
/home/jamorin/InnovR/GAPuino/svm_aes/BUILD/GAP8_V3/GCC_RISCV_PULPOS/svm_aes:     file format elf32-littleriscv

Sections:
Idx Name          Size      VMA       LMA       File off  Algn  Flags
  0 .data_tiny_fc 00000390  00000004  1b000004  00001004  2**2  CONTENTS, ALLOC, LOAD, DATA
  1 .stack        00001038  1b000398  1b000398  00001398  2**3  CONTENTS, ALLOC, LOAD, DATA
  2 .vectors      000000a0  1c000000  1c000000  00003000  2**0  CONTENTS, ALLOC, LOAD, READONLY, CODE
  3 .text         00006e44  1c0000a0  1c0000a0  000030a0  2**1  CONTENTS, ALLOC, LOAD, READONLY, CODE
  4 .init_array   0000003c  1c006ee4  1c006ee4  00009ee4  2**2  CONTENTS, ALLOC, LOAD, DATA
  5 .fini_array   0000000c  1c006f20  1c006f20  00009f20  2**2  CONTENTS, ALLOC, LOAD, DATA
  6 .init         00000000  1c006f2c  1c006f2c  00013020  2**0  CONTENTS, ALLOC, LOAD, CODE
  7 .fini         00000000  1c006f2c  1c006f2c  00013020  2**0  CONTENTS, ALLOC, LOAD, CODE
  8 .preinit_array 00000000  1c006f2c  1c006f2c  00013020  2**0  CONTENTS, ALLOC, LOAD, DATA
  9 .boot         00000000  1c006f2c  1c006f2c  00013020  2**0  CONTENTS
 10 .got          00000000  1c006f2c  1c006f2c  00013020  2**0  CONTENTS, ALLOC, LOAD, DATA
 11 .shbss        00000000  1c006f2c  1c006f2c  00013020  2**0  CONTENTS
 12 .gnu.offload_funcs 00000000  1c006f2c  1c006f2c  00013020  2**0  CONTENTS
 13 .gnu.offload_vars 00000000  1c006f2c  1c006f2c  00013020  2**0  CONTENTS
 14 .rodata       000005f8  1c006f30  1c006f30  00009f30  2**3  CONTENTS, ALLOC, LOAD, READONLY, DATA
 15 .data         000088bc  1c007528  1c007528  0000a528  2**3  CONTENTS, ALLOC, LOAD, DATA
 16 .bss          00000404  1c00fde8  1c00fde8  00012de4  2**3  ALLOC
 17 .data_tiny_l1 00000018  00000004  1c0101ec  00013004  2**2  CONTENTS, ALLOC, LOAD, DATA
 18 .l1cluster_g  00000004  1000001c  1c010204  0001301c  2**2  CONTENTS, ALLOC, LOAD, DATA
 19 .bss_l1       00000000  10000020  10000020  00013020  2**0  CONTENTS
 20 .comment      0000001a  00000000  00000000  00013020  2**0  CONTENTS, READONLY
 21 .Pulp_Chip.Info 0000004e  00000000  00000000  0001303a  2**0  CONTENTS, READONLY
 22 .debug_frame  00003c70  00000000  00000000  00013088  2**2  CONTENTS, READONLY, DEBUGGING
 23 .debug_info   0004e31c  00000000  00000000  00016cf8  2**0  CONTENTS, READONLY, DEBUGGING
 24 .debug_abbrev 00008b4f  00000000  00000000  00065014  2**0  CONTENTS, READONLY, DEBUGGING
 25 .debug_loc    00015c8d  00000000  00000000  0006db63  2**0  CONTENTS, READONLY, DEBUGGING
 26 .debug_aranges 00000fb8  00000000  00000000  000837f0  2**3  CONTENTS, READONLY, DEBUGGING
 27 .debug_ranges 000031b0  00000000  00000000  000847a8  2**3  CONTENTS, READONLY, DEBUGGING
 28 .debug_line   000176fb  00000000  00000000  00087958  2**0  CONTENTS, READONLY, DEBUGGING
 29 .debug_str    00008dcb  00000000  00000000  0009f053  2**0  CONTENTS, READONLY, DEBUGGING
SYMBOL TABLE:
00000004 l    d  .data_tiny_fc	00000000 .data_tiny_fc
1b000398 l    d  .stack	00000000 .stack
1c000000 l    d  .vectors	00000000 .vectors
1c0000a0 l    d  .text	00000000 .text
1c006ee4 l    d  .init_array	00000000 .init_array
1c006f20 l    d  .fini_array	00000000 .fini_array
1c006f2c l    d  .init	00000000 .init
1c006f2c l    d  .fini	00000000 .fini
1c006f2c l    d  .preinit_array	00000000 .preinit_array
1c006f2c l    d  .boot	00000000 .boot
1c006f2c l    d  .got	00000000 .got
1c006f2c l    d  .shbss	00000000 .shbss
1c006f2c l    d  .gnu.offload_funcs	00000000 .gnu.offload_funcs
1c006f2c l    d  .gnu.offload_vars	00000000 .gnu.offload_vars
1c006f30 l    d  .rodata	00000000 .rodata
1c007528 l    d  .data	00000000 .data
1c00fde8 l    d  .bss	00000000 .bss
00000004 l    d  .data_tiny_l1	00000000 .data_tiny_l1
1000001c l    d  .l1cluster_g	00000000 .l1cluster_g
10000020 l    d  .bss_l1	00000000 .bss_l1
00000000 l    d  .comment	00000000 .comment
00000000 l    d  .Pulp_Chip.Info	00000000 .Pulp_Chip.Info
00000000 l    d  .debug_frame	00000000 .debug_frame
00000000 l    d  .debug_info	00000000 .debug_info
00000000 l    d  .debug_abbrev	00000000 .debug_abbrev
00000000 l    d  .debug_loc	00000000 .debug_loc
00000000 l    d  .debug_aranges	00000000 .debug_aranges
00000000 l    d  .debug_ranges	00000000 .debug_ranges
00000000 l    d  .debug_line	00000000 .debug_line
00000000 l    d  .debug_str	00000000 .debug_str
00000000 l    df *ABS*	00000000 bridge.c
1c003c88 l     F .text	0000001c __rt_event_enqueue
1c003ca4 l     F .text	00000020 __rt_bridge_check_bridge_req.part.5
1c003cc4 l     F .text	00000046 __rt_bridge_wait
00000004 l     O .data_tiny_fc	00000004 __rt_bridge_flash_handle
00000008 l     O .data_tiny_fc	00000004 __rt_bridge_flash_type
0000000c l     O .data_tiny_fc	00000004 __rt_bridge_flash_itf
00000010 l     O .data_tiny_fc	00000004 __rt_bridge_flash_cs
00000014 l     O .data_tiny_fc	00000004 __rt_bridge_eeprom_handle
00000000 l    df *ABS*	00000000 events.c
00000000 l    df *ABS*	00000000 periph-v2.c
00000000 l    df *ABS*	00000000 hyperram-v1.c
1c005194 l     F .text	00000014 l2_memcpy
1c0051a8 l     F .text	00000024 rt_event_enqueue
1c005224 l     F .text	00000044 __pi_hyper_copy_exec
1c0052b8 l     F .text	00000296 __pi_hyper_copy_misaligned
1c005268 l     F .text	00000050 exec_pending_task
1c00555a l     F .text	00000050 __rt_hyper_init
1c00fe14 l     O .bss	00000080 __pi_hyper_temp_buffer
1c00ffc8 l     O .bss	00000004 __pi_hyper_cluster_reqs_first
1c00ffcc l     O .bss	00000004 __rt_hyper_open_count
00000000 l    df *ABS*	00000000 pwm.c
00000000 l    df *ABS*	00000000 rtc.c
00000000 l    df *ABS*	00000000 conf.c
00000000 l    df *ABS*	00000000 debug.c
00000000 l    df *ABS*	00000000 utils.c
1c003aa8 l     F .text	0000007c __rt_fc_cluster_lock_req
1b000ba0 l     O .stack	00000018 cbsys_first
00000000 l    df *ABS*	00000000 himax.c
00000000 l    df *ABS*	00000000 io.c
1c005738 l     F .text	0000000e __rt_io_end_of_flush
1c005746 l     F .text	00000050 __rt_io_uart_wait_req
1c005796 l     F .text	00000040 __rt_do_putc_host
1c0057d6 l     F .text	0000005a __rt_io_start
1c005830 l     F .text	00000020 rt_event_execute.isra.4.constprop.12
1c005850 l     F .text	00000070 __rt_io_lock
1c0058c0 l     F .text	00000034 __rt_putc_host_cluster_req
1c0058f4 l     F .text	00000070 __rt_io_unlock
1c005964 l     F .text	000000d6 __rt_io_uart_flush.constprop.11
1c005a3a l     F .text	00000092 __rt_io_uart_wait_pending
1c005acc l     F .text	00000026 __rt_io_stop
1c005bec l     F .text	000000aa tfp_putc.isra.9
1c00ff2c l     O .bss	00000080 __rt_io_event
1b000bbc l     O .stack	00000010 __rt_io_fc_lock
1c00fd64 l     O .data	00000080 __rt_putc_host_buffer
1c00ffdc l     O .bss	00000004 __rt_io_event_current
1c00ffe0 l     O .bss	00000004 __rt_io_pending_flush
1c00ffe4 l     O .bss	00000004 __rt_putc_host_buffer_index
1c00ffe8 l     O .bss	00000004 _rt_io_uart
00000000 l    df *ABS*	00000000 crt0.o
1c000094 l       .vectors	00000000 __rt_no_irq_handler
00000000 l    df *ABS*	00000000 sched.o
1c000132 l       .text	00000000 __rt_handle_special_event
1c00012c l       .text	00000000 __rt_no_first
1c00012e l       .text	00000000 __rt_common
1c000130 l       .text	00000000 enqueue_end
1c000192 l       .text	00000000 __rt_remote_enqueue_event_loop_cluster
1c0001ce l       .text	00000000 __rt_remote_enqueue_event_loop_cluster_continue
1c0001b8 l       .text	00000000 __rt_cluster_pool_update_end
1c0001a0 l       .text	00000000 __rt_cluster_pool_update_loop
1c0001a8 l       .text	00000000 __rt_cluster_pool_update_loop_end
1c0001b0 l       .text	00000000 __rt_cluster_pool_update_no_current
1c0001ec l       .text	00000000 __rt_remote_enqueue_event_loop_next_cluster
00000000 l    df *ABS*	00000000 vectors.o
1c000266 l       .text	00000000 __rt_call_c_function
00000000 l    df *ABS*	00000000 udma-v2.o
1c000356 l       .text	00000000 __rt_udma_no_copy
1c00031e l       .text	00000000 repeat_transfer
1c00036e l       .text	00000000 handle_special_end
1c0002ca l       .text	00000000 resume_after_special_end
1c000308 l       .text	00000000 checkTask
1c0002de l       .text	00000000 __rt_udma_call_enqueue_callback_resume
1c000304 l       .text	00000000 transfer_resume
1c0002fc l       .text	00000000 hyper
1c0002fc l       .text	00000000 fc_tcdm
1c0002fc l       .text	00000000 dual
1c00031e l       .text	00000000 dmaCmd
1c000346 l       .text	00000000 not_last
1c0003b6 l       .text	00000000 i2c_step1
1c0003d2 l       .text	00000000 i2c_step2
1c000378 l       .text	00000000 spim_step3
1c000394 l       .text	00000000 spim_step2
00000000 l    df *ABS*	00000000 soc_event_eu.o
1c000426 l       .text	00000000 __rt_fc_socevents_not_hyper_rx
1c00042c l       .text	00000000 __rt_fc_socevents_not_hyper_tx
1c000446 l       .text	00000000 __rt_soc_evt_no_udma_channel
1c0004b4 l       .text	00000000 rtc_event_handler
1c000472 l       .text	00000000 __rt_soc_evt_pwm
1c000486 l       .text	00000000 __rt_soc_evt_store
1c00049a l       .text	00000000 socevents_set
00000000 l    df *ABS*	00000000 gpio.o
1c000502 l       .text	00000000 __rt_gpio_handler_end
00000000 l    df *ABS*	00000000 hyperram-v1_asm.o
1c000552 l       .text	00000000 __rt_hyper_handle_copy_end
1c000512 l       .text	00000000 __rt_hyper_repeat_copy
1c000540 l       .text	00000000 __rt_hyper_repeat_copy_not_last
1c000564 l       .text	00000000 __rt_hyper_handle_emu_task
1c00057e l       .text	00000000 __rt_hyper_handle_pending_tasks
1c000614 l       .text	00000000 __rt_hyper_repeat_copy_last3
1c0005f0 l       .text	00000000 __rt_hyper_repeat_copy_not_last3
00000000 l    df *ABS*	00000000 libgcc2.c
00000000 l    df *ABS*	00000000 libgcc2.c
00000000 l    df *ABS*	00000000 adddf3.c
00000000 l    df *ABS*	00000000 ledf2.c
00000000 l    df *ABS*	00000000 mulsf3.c
00000000 l    df *ABS*	00000000 extendsfdf2.c
00000000 l    df *ABS*	00000000 svm_aes.c
1c0015ba l     F .text	00000052 pi_cluster_task
1c00160c l     F .text	0000001e core_id
1c00162a l     F .text	00000020 cluster_id
1c00164a l     F .text	00000016 hal_core_id
1c001660 l     F .text	00000016 hal_cluster_id
1c001676 l     F .text	0000001e cpu_perf_conf_events
1c001694 l     F .text	0000001a cpu_perf_conf
1c0016ae l     F .text	0000001a cpu_perf_setall
1c0016c8 l     F .text	0000020e cpu_perf_get
1c0018d6 l     F .text	00000020 eu_bar_addr
1c0018f6 l     F .text	00000022 eu_bar_trig_wait_clr
1c001918 l     F .text	00000032 eu_bar_setup_mask
1c00194a l     F .text	00000028 eu_bar_setup
1c001972 l     F .text	0000001e eu_dispatch_push
1c001990 l     F .text	0000001e eu_dispatch_team_config
1c0019ae l     F .text	00000022 timer_cfg_lo_set
1c0019d0 l     F .text	0000001a timer_cnt_lo_get
1c0019ea l     F .text	00000022 timer_start_lo_set
1c001a0c l     F .text	00000022 timer_reset_lo_set
1c001a2e l     F .text	00000030 timer_base_fc
1c001a5e l     F .text	00000034 timer_base_cl
1c001a92 l     F .text	00000024 timer_conf_set
1c001ab6 l     F .text	0000001e timer_count_get
1c001ad4 l     F .text	0000001e timer_reset
1c001af2 l     F .text	0000001e timer_start
1c001b10 l     F .text	00000016 pi_core_id
1c001e78 l     F .text	00000018 rt_core_id
1c001b26 l     F .text	00000016 pi_cluster_id
1c001e60 l     F .text	00000018 rt_cluster_id
1c001b3c l     F .text	00000024 __rt_team_barrier_config
1c001b60 l     F .text	00000032 __rt_team_config
1c001b92 l     F .text	0000002c pi_cl_team_fork
1c001bbe l     F .text	00000046 rt_team_fork
1c001c04 l     F .text	0000001c __rt_team_barrier
1c001c20 l     F .text	0000001c pi_perf_conf
1c001c3c l     F .text	00000024 pi_perf_cl_reset
1c001c60 l     F .text	00000022 pi_perf_fc_reset
1c001c82 l     F .text	00000030 pi_perf_reset
1c001cb2 l     F .text	00000024 pi_perf_cl_start
1c001cd6 l     F .text	00000022 pi_perf_fc_start
1c001cf8 l     F .text	00000030 pi_perf_start
1c001d28 l     F .text	00000026 pi_perf_cl_stop
1c001d4e l     F .text	00000024 pi_perf_fc_stop
1c001d72 l     F .text	00000032 pi_perf_stop
1c001da4 l     F .text	0000003e pi_perf_cl_read
1c001de2 l     F .text	0000003c pi_perf_fc_read
1c001e1e l     F .text	00000042 pi_perf_read
1c001e90 l     F .text	0000001e pmsis_kickoff
1c001eae l     F .text	00000014 pmsis_exit
00000000 l    df *ABS*	00000000 svm_model.c
00000000 l    df *ABS*	00000000 aes.c
00000000 l    df *ABS*	00000000 aes_encrypt.c
1c0071d0 l     O .rodata	00000100 sbox
1c002528 l     F .text	0000001c rotword
1c002700 l     F .text	00000282 add_round_key
1c002982 l     F .text	00000058 sub_bytes
1c0029da l     F .text	000001ae mult_row_column
1c002b88 l     F .text	00000070 mix_columns
1c002bf8 l     F .text	000000e8 shift_rows
00000000 l    df *ABS*	00000000 ctr_prng.c
1c002dd6 l     F .text	0000005a arrInc
1c002e30 l     F .text	00000112 tc_ctr_prng_update
1c00fd1c l     O .data	00000004 MAX_BYTES_PER_REQ.1797
1c00fd20 l     O .data	00000008 MAX_REQS_BEFORE_RESEED.1796
00000000 l    df *ABS*	00000000 ccm_mode.c
1c0032f0 l     F .text	000000f6 ccm_cbc_mac
1c0033e6 l     F .text	0000014a ccm_ctr_mode
00000000 l    df *ABS*	00000000 utils.c
00000000 l    df *ABS*	00000000 init.c
1c003800 l     F .text	00000026 cluster_start
1c006ee8 l     O .init_array	00000004 ctor_list
1c006f24 l     O .fini_array	00000004 dtor_list
00000000 l    df *ABS*	00000000 irq.c
00000000 l    df *ABS*	00000000 alloc.c
00000000 l    df *ABS*	00000000 time.c
1c004260 l     F .text	00000018 __rt_time_poweroff
1c004278 l     F .text	00000018 __rt_time_poweron
1c00ffc0 l     O .bss	00000004 timer_count
00000000 l    df *ABS*	00000000 time_irq.c
00000000 l    df *ABS*	00000000 freq.c
00000000 l    df *ABS*	00000000 pmu_driver.c
1c004716 l     F .text	0000002c SetFllMultDivFactors
1c004742 l     F .text	00000026 soc_eu_fcEventMask_setEvent
1c00fd38 l     O .data	00000007 SystemStateToSCUFastSeq
1c00fd50 l     O .data	00000003 ToHWDCDC_Pos
1c00fd60 l     O .data	00000004 RetPMUStateToPMUState
00000000 l    df *ABS*	00000000 cluster.c
1c004b52 l     F .text	00000062 __rt_init_cluster_data
1c004bb4 l     F .text	00000064 __rt_cluster_init
1c004c18 l     F .text	00000126 __rt_cluster_mount_step
00000000 l    df *ABS*	00000000 pulpos_emu.c
1c004ef8 l     F .text	0000003c __rt_cluster_pulpos_emu_init
1c00fde8 l     O .bss	0000002c __rt_pulpos_emu_global_cluster_task
1c00ffc4 l     O .bss	00000004 __rt_fc_cluster_device
00000000 l    df *ABS*	00000000 cluster_call.c
00000000 l    df *ABS*	00000000 pads-v1.c
00000000 l    df *ABS*	00000000 gpio-v2.c
1c00fe94 l     O .bss	00000098 __rt_gpio
00000000 l    df *ABS*	00000000 i2s-v1.c
1c005630 l     F .text	00000034 __rt_i2s_resume
1c005664 l     F .text	00000028 __rt_i2s_setfreq_after
1c00568c l     F .text	0000002c __rt_i2s_setfreq_before
1c00ffd0 l     O .bss	00000004 __rt_i2s_first
00000000 l    df *ABS*	00000000 spim-v2.c
1c00ffd4 l     O .bss	00000008 __rt_spim_open_count
00000000 l    df *ABS*	00000000 semihost.c
1c005df4 l     F .text	0000000e __internal_semihost
00000000 l    df *ABS*	00000000 fprintf.c
00000000 l    df *ABS*	00000000 prf.c
1c005e3a l     F .text	00000092 _to_x
1c005ecc l     F .text	00000020 _rlrshift
1c005eec l     F .text	00000044 _ldiv5
1c005f30 l     F .text	00000034 _get_digit
00000000 l    df *ABS*	00000000 uart.c
1c006a40 l     F .text	00000024 __rt_uart_setup.isra.5
1c006a64 l     F .text	00000022 __rt_uart_setfreq_after
1c006a86 l     F .text	00000042 __rt_uart_wait_tx_done.isra.6
1c006ac8 l     F .text	0000002c __rt_uart_setfreq_before
1c006af4 l     F .text	00000042 __rt_uart_cluster_req
1c006b36 l     F .text	00000026 soc_eu_fcEventMask_setEvent
1c00ffac l     O .bss	00000010 __rt_uart
00000000 l    df *ABS*	00000000 pe-eu-v3.o
1c006df2 l       .text	00000000 __rt_slave_start
1c006d48 l       .text	00000000 __rt_master_event
1c006d5c l       .text	00000000 __rt_master_loop
1c006d4c l       .text	00000000 __rt_push_event_to_fc_retry
1c006de4 l       .text	00000000 __rt_push_event_to_fc_wait
1c006dd6 l       .text	00000000 __rt_master_sleep
1c006d64 l       .text	00000000 __rt_master_loop_update_next
1c006db8 l       .text	00000000 __rt_no_stack_check
1c006dc4 l       .text	00000000 __rt_master_no_slave_barrier
1c006dd4 l       .text	00000000 __rt_master_loop_no_slave
1c006e10 l       .text	00000000 __rt_fork_return
1c006e14 l       .text	00000000 __rt_wait_for_dispatch
1c006e2a l       .text	00000000 __rt_other_entry
1c006e24 l       .text	00000000 __rt_fork_entry
1c006e52 l       .text	00000000 __rt_no_stack_check_end
1c006ec4 l       .text	00000000 __rt_dma_2d_done
1c006e82 l       .text	00000000 __rt_dma_2d_redo
1c006e8a l       .text	00000000 __rt_dma_2d_not_last
1c006eac l       .text	00000000 __rt_dma_2d_exit
00000000 l    df *ABS*	00000000 libgcc2.c
00000000 g       *ABS*	00000000 __rt_debug_init_config_trace
00000350 g     O .data_tiny_fc	00000004 __rt_hyper_pending_emu_stride
1c0020b2 g     F .text	00000168 predict
1c000598 g       .text	00000000 udma_event_handler_end_hyper
1c003c1a g     F .text	00000038 __rt_fc_cluster_lock
1c0048d2 g     F .text	000000a2 InitOneFll
00000000 g       *ABS*	00000000 __RT_DEBUG_CONFIG
1c0101c0 g     O .bss	00000004 __rt_cluster_tasks
1c003de4 g     F .text	00000020 __rt_bridge_send_notif
1c003f3e g     F .text	00000074 rt_event_alloc
00000338 g     O .data_tiny_fc	00000001 __rt_hyper_pending_emu_do_memcpy
1c004012 g     F .text	00000064 __rt_event_execute
1c003a56 g     F .text	00000052 __rt_irq_init
1c0040ea g     F .text	00000048 rt_user_alloc
00000310 g     O .data_tiny_fc	00000004 __rt_hyper_pending_hyper_addr
1c004d44 g     F .text	000000d6 pi_cluster_open
1c005e0e g     F .text	0000002c printf
ffffffff g       *ABS*	00000000 pulp__L2
1c0041f6 g     F .text	0000006a __rt_allocs_init
1c0101a4 g     O .bss	00000004 __rt_alloc_l1
1c004d3e g     F .text	00000006 pi_cluster_conf_init
ffffffff g       *ABS*	00000000 pulp__PE
1c0039b8 g     F .text	0000004c rt_irq_set_handler
00000314 g     O .data_tiny_fc	00000004 __rt_hyper_pending_addr
00000308 g     O .data_tiny_fc	00000004 __rt_hyper_udma_handle
1c004a3c g     F .text	00000040 InitFlls
00000018 g     O .data_tiny_fc	00000004 __rt_first_free
00000001 g       *ABS*	00000000 __ACTIVE_FC
00000400 g       *ABS*	00000000 __rt_cl_slave_stack_size
1c0046d8 g     F .text	0000003e __rt_freq_init
1c003826 g     F .text	00000166 __rt_init
00000001 g       *ABS*	00000000 __FC
1c004b36 g     F .text	00000012 __rt_fll_init
1b0013d0 g       .stack	00000000 __fc_tcdm_end
1c003eca g     F .text	00000034 __rt_bridge_init
00000018 g     O .data_tiny_l1	00000004 __rt_cluster_nb_active_pe
0000032c g     O .data_tiny_fc	00000004 __rt_hyper_pending_emu_hyper_addr
1c006ee4 g       .text	00000000 _etext
0000030c g     O .data_tiny_fc	00000004 __rt_hyper_pending_base
1c007528 g       .data	00000000 sdata
00000001 g       *ABS*	00000000 __rt_nb_cluster
00000390 g     O .data_tiny_fc	00000004 __rtc_handler
1c00417e g     F .text	0000002e rt_alloc
1c006a1a g     F .text	00000026 __rt_uart_cluster_req_done
1c00398c g     F .text	00000028 __rt_deinit
1b000bb8 g     O .stack	00000001 camera_isAwaked
1c00010e g       .text	00000000 __rt_event_enqueue
1c00430a g     F .text	0000001e rt_time_wait_us
1c005b02 g     F .text	00000036 memcpy
1c0004ec g       .text	00000000 __rt_gpio_handler
1c000246 g       .text	00000000 __rt_illegal_instr
1c0041ce g     F .text	00000028 __rt_alloc_init_l1_for_fc
1c002544 g     F .text	000001bc tc_aes128_set_encrypt_key
1c001298 g     F .text	000000ae .hidden __ltdf2
1c00518a g     F .text	0000000a __rt_padframe_init
1c006f2c g       .fini_array	00000000 __DTOR_END__
0000020c g       *ABS*	00000000 __cluster_text_size
1c000506 g       .text	00000000 __rt_hyper_handle_copy
1c005c96 g     F .text	0000002c puts
1c00fc40  w    O .data	00000018 __rt_padframe_profiles
00000330 g     O .data_tiny_fc	00000004 __rt_hyper_pending_emu_addr
00000344 g     O .data_tiny_fc	00000004 __rt_hyper_pending_tasks_last
1c003fcc g     F .text	00000022 rt_event_get_blocking
1c00fde8 g       .bss	00000000 _bss_start
1c00fde4 g       .data	00000000 edata
1c0041ac g     F .text	00000022 __rt_alloc_init_l1
1c00fd30  w    O .data	00000004 __rt_iodev_uart_baudrate
1c000174 g       .text	00000000 __rt_remote_enqueue_event
1c00fd40 g     O .data	00000010 PMUState
1c00fbe8 g     O .data	00000028 intercepts
1c007528 g       .data	00000000 _sdata
10000020 g       .l1cluster_g	00000000 __l1_end
1c0005c8 g       .text	00000000 __rt_hyper_handle_burst
1c0044a6 g     F .text	00000134 rt_periph_copy
1c005bb0 g     F .text	0000003c __rt_putc_uart
1b000398 g     O .stack	00000800 __rt_fc_stack
00000010 g     O .data_tiny_l1	00000004 __rt_dma_last_pending
1c00013c g       .text	00000000 __rt_bridge_enqueue_event
1c001532 g     F .text	00000088 .hidden __extendsfdf2
1c005f64 g     F .text	00000ab6 _prf
1c000c9a g     F .text	000005fe .hidden __adddf3
10000020 g       .l1cluster_g	00000000 _libgomp_start
1c00096c g     F .text	0000032e .hidden __umoddi3
1c0043b4 g     F .text	000000f2 __rt_timer_handler
1c002406 g     F .text	00000050 amp_aes_update_nonce
1c0101a8 g     O .bss	00000004 __rt_alloc_l2
1b0013d0 g       .stack	00000000 stack
1c000630 g     F .text	0000033c .hidden __udivdi3
1c001f98 g     F .text	000000f0 helloworld
1c005d78 g     F .text	0000000a abort
1c003fb2 g     F .text	0000001a rt_event_get
1c0101b4 g     O .bss	00000008 __rt_freq_domains
0000001c g       *ABS*	00000000 _l1_preload_size
1c00010c g       .text	00000000 _init
1c0101ec g       .bss	00000000 _bss_end
1c00fc20  w    O .data	00000010 __rt_padframe_hyper
1c003dc6 g     F .text	0000001e __rt_bridge_set_available
1c006e54 g       .text	00000000 __rt_dma_2d
1c006cd8 g       .text	00000000 __rt_pe_start
1c0101b0 g     O .bss	00000004 first_delayed
1c003742 g     F .text	00000046 _copy
0000038c g     O .data_tiny_fc	00000004 __rt_rtc_init_done
1c010020 g     O .bss	000000c8 ctx
00000008 g       *ABS*	00000000 __NB_ACTIVE_PE
1c00511a g     F .text	00000048 pi_cluster_send_task_to_cl
1c004974 g     F .text	000000c8 __rt_pmu_cluster_power_up
1b000bd0 g       .stack	00000000 stack_start
00000004 g     O .data_tiny_l1	0000000c __rt_cluster_pool
1c001ec2 g     F .text	00000098 cluster_helloworld
00010000 g       *ABS*	00000000 __L1Cl
1c006b6c g     F .text	0000008e __rt_uart_open
1c001298 g     F .text	000000ae .hidden __ledf2
1c002456 g     F .text	000000d2 amp_aes_encrypts
1c003b92 g     F .text	00000022 __rt_utils_init
1c005020 g     F .text	000000fa pi_cluster_send_task_to_cl_async
1c00fc10  w    O .data	00000010 __rt_padframe_default
1c005cc2 g     F .text	0000001a fputc_locked
1c006bfa g     F .text	0000004e rt_uart_close
1c004132 g     F .text	0000004c rt_user_free
1c006ee4 g       .init_array	00000000 __CTOR_LIST__
1c0045da g     F .text	00000056 __rt_periph_wait_event
1c00468e g     F .text	0000004a rt_freq_set_and_get
1c005e02 g     F .text	00000006 semihost_write0
1c003a04  w    F .text	00000002 illegal_insn_handler_c
0000033c g     O .data_tiny_fc	00000004 __rt_hyper_pending_emu_task
1c004e4c g     F .text	00000070 __rt_cluster_push_fc_event
00000320 g     O .data_tiny_fc	00000004 __rt_hyper_end_task
1c006cd8 g       .text	00000000 __cluster_text_start
1c000080 g       .vectors	00000000 _start
1c0040ca g     F .text	00000020 rt_user_alloc_init
00000000 g       *ABS*	00000000 __rt_config
00000334 g     O .data_tiny_fc	00000004 __rt_hyper_pending_emu_size
1c002f42 g     F .text	0000016c tc_ctr_prng_init
1c0101ec g       .bss	00000000 _l1_preload_start_inL2
1c003bb4 g     F .text	00000032 __rt_fc_lock
10000020 g       .l1cluster_g	00000000 __l1_heap_start
1c003f26 g     F .text	00000018 __rt_wait_event_prepare_blocking
1c003d0a g     F .text	00000072 __rt_bridge_handle_notif
1c00045e g       .text	00000000 __rt_soc_evt_no_udma
1000001c g     O .l1cluster_g	00000004 __rt_cluster_fc_task_lock
1c007528 g     O .data	00000c40 img
1c0100e8 g     O .bss	0000000c c
00000340 g     O .data_tiny_fc	00000004 __rt_hyper_pending_tasks
1c003fee g     F .text	00000024 rt_event_push
1c003e04 g     F .text	0000001e __rt_bridge_clear_notif
00000014 g     O .data_tiny_l1	00000004 __rt_dma_first_pending
1c00fc58 g     O .data	000000c0 __hal_debug_struct
1c004328 g     F .text	0000008c __rt_time_init
00080000 g       *ABS*	00000000 __L2
00000008 g       *ABS*	00000000 __rt_nb_pe
1c0000a0 g       .text	00000000 _entry
1c004076 g     F .text	0000002a __rt_wait_event
1c00221a g     F .text	000001ec amp_aes_init
1c004a7c g     F .text	000000ba __rt_pmu_init
1c003a06 g     F .text	00000050 __rt_handle_illegal_instr
1c005af2 g     F .text	00000010 memset
1c0051cc g     F .text	00000058 __pi_hyper_copy_aligned
1c002088 g     F .text	0000002a main
1c004b48 g     F .text	00000002 __rt_fll_deinit
1c0004a4 g       .text	00000000 udma_event_handler_end
1c0101ac g     O .bss	00000004 __rt_alloc_fc_tcdm
1c00570a g     F .text	0000000a __rt_himax_init
1c003530 g     F .text	00000212 tc_ccm_generation_encryption
1c003c52 g     F .text	00000036 __rt_fc_cluster_unlock
00000318 g     O .data_tiny_fc	00000004 __rt_hyper_pending_repeat
1c005d82 g     F .text	00000072 __rt_io_init
1c00fc30  w    O .data	00000010 __rt_padframe_hyper_gpio
00000000 g       *ABS*	00000000 __FETCH_ALL
1c0005b2 g       .text	00000000 __rt_hyper_handler
1c00fd28  w    O .data	00000004 __rt_platform
1c006f20 g       .init_array	00000000 __CTOR_END__
1c001346 g     F .text	000001ec .hidden __mulsf3
1c005e08 g     F .text	00000006 semihost_exit
1c006f20 g       .fini_array	00000000 __DTOR_LIST__
1c003efe g     F .text	00000028 __rt_event_init
000002e0 g     O .data_tiny_fc	00000028 __rt_udma_extra_callback_arg
1c0004c8 g       .text	00000000 pwm_event_handler
00000348 g     O .data_tiny_fc	00000004 __rt_hyper_pending_emu_size_2d
1c005cdc g     F .text	00000028 _prf_locked
00000000 g       *ABS*	00000000 __USE_UART
1c00554e g     F .text	00000008 __rt_hyper_resume_emu_task
1c0047f4 g     F .text	000000de SetFllFrequency
1c004b4a g     F .text	00000002 __rt_flls_constructor
1c004290 g     F .text	0000007a rt_event_push_delayed
1c00010c g       .text	00000000 _fini
1c00326a g     F .text	00000086 tc_ccm_config
1c0040a0 g     F .text	00000018 rt_event_wait
1c000090 g       .vectors	00000000 __rt_debug_struct_ptr
1c0070d0 g     O .rodata	00000100 .hidden __clz_tab
00000328 g     O .data_tiny_fc	00000004 __rt_hyper_pending_emu_channel
1c006e30 g       .text	00000000 __rt_set_slave_stack
1c00fd34  w    O .data	00000004 __rt_fc_stack_size
1c0037ba g     F .text	00000046 _double_byte
1c0003f4 g       .text	00000000 __rt_fc_socevents_handler
1c0100f4 g     O .bss	000000b0 s
000002b8 g     O .data_tiny_fc	00000028 __rt_udma_extra_callback
00000358 g     O .data_tiny_fc	00000034 dev_rtc
1c003788 g     F .text	00000032 _set
1c000200 g       .text	00000000 __rt_call_external_c_function
1c003be6 g     F .text	00000034 __rt_fc_unlock
00000004 g       .data_tiny_l1	00000000 _l1_preload_start
1c0055aa g     F .text	00000086 __pi_gpio_handler
000002b0 g     O .data_tiny_fc	00000008 __rt_socevents_status
1c003e22 g     F .text	0000003a __rt_bridge_printf_flush
1c00fd2c  w    O .data	00000004 __rt_iodev
1c00fd18 g     O .data	00000004 f_img
0000001c g     O .data_tiny_fc	00000014 __rt_sched
1c000000 g       .vectors	00000000 __irq_vector_base
1c00fde4 g       .data	00000000 _edata
00000000 g       *ABS*	00000000 __ZERO
1c004630 g     F .text	0000005e __rt_periph_init
1c005726 g     F .text	00000012 __rt_spim_init
1c003d7c g     F .text	0000004a __rt_bridge_check_connection
1c004f34 g     F .text	00000090 rt_cluster_call
00000800 g       *ABS*	00000000 __rt_stack_size
1c0039b4 g     F .text	00000004 pi_open_from_conf
ffffffff g       *ABS*	00000000 pulp__FC
1c0056b8 g     F .text	00000052 __rt_i2s_init
00000003 g       *ABS*	00000000 __rt_debug_init_config
1c0101c4 g     O .bss	00000028 __rt_fc_cluster_data
1c005d04 g     F .text	00000074 exit
1c0040b8 g     F .text	00000012 __rt_event_sched_init
1c002ce0 g     F .text	000000f6 tc_aes_encrypt
0000034c g     O .data_tiny_fc	00000004 __rt_hyper_pending_emu_length
1c0002b4 g       .text	00000000 udma_event_handler
1c004e1a g     F .text	00000032 pi_cluster_close
1c005556 g     F .text	00000004 __rt_hyper_resume_copy
00000354 g     O .data_tiny_fc	00000004 pwmEventsStatus
1c003b62 g     F .text	00000030 __rt_cbsys_exec
0000ffe0 g       .l1cluster_g	00000000 __l1_heap_size
1c004768 g     F .text	0000008c __rt_pmu_cluster_power_down
0000031c g     O .data_tiny_fc	00000004 __rt_hyper_pending_repeat_size
1b000b98 g     O .stack	00000004 __rt_debug_config_trace
1c00ffbc  w    O .bss	00000004 __rt_iodev_uart_channel
1c0000a0 g       .text	00000000 _stext
1c00fd54 g     O .data	00000004 PMURetentionState
ffffffff g       *ABS*	00000000 pulp__L1CL
1c005162 g     F .text	00000028 rt_padframe_set
1c0101bc g     O .bss	00000004 __rt_wakeup_use_fast
1c00ffec g     O .bss	0000002e priv_data
00000400 g       *ABS*	00000000 __rt_cl_master_stack_size
1c005b38 g     F .text	0000001a strchr
1c003e5c g     F .text	0000006e __rt_bridge_req_shutdown
1c006b5c g     F .text	00000010 rt_uart_conf_init
1c006ee4 g       .text	00000000 __cluster_text_end
1c006c7c g     F .text	0000005c __rt_uart_init
1c010208 g       *ABS*	00000000 __l2_end
1c004fc4 g     F .text	0000005c rt_cluster_mount
1c005714 g     F .text	00000012 __rt_rtc_init
1c006c48 g     F .text	00000034 rt_uart_cluster_write
1c0030ae g     F .text	000001bc tc_ctr_prng_generate
1c000098 g       .vectors	00000000 __rt_semihosting_call
1b000b9c g     O .stack	00000004 __rt_debug_config
1c004b4c g     F .text	00000006 __rt_fll_set_freq
1c003b24 g     F .text	0000003e __rt_cbsys_add
1c008168 g     O .data	00007a80 coefficients
1c004ebc g     F .text	0000003c __rt_cluster_new
1c005b52 g     F .text	0000005e __rt_putc_debug_bridge
1c006ee4 g       .text	00000000 _endtext
00000324 g     O .data_tiny_fc	00000004 __rt_hyper_current_task
ffffffff g       *ABS*	00000000 pulp__L1FC
1c001f5a g     F .text	0000003e cluster_delegate
1c00fd58 g     O .data	00000008 FllsFrequency
00000030 g     O .data_tiny_fc	00000280 periph_channels



Disassembly of section .vectors:

1c000000 <__irq_vector_base>:


#ifdef ARCHI_CORE_HAS_1_10
  j __rt_illegal_instr
#else
  j __rt_no_irq_handler
1c000000:	0940006f          	j	1c000094 <__rt_no_irq_handler>
#endif

  j __rt_no_irq_handler
1c000004:	0900006f          	j	1c000094 <__rt_no_irq_handler>
  j __rt_no_irq_handler
1c000008:	08c0006f          	j	1c000094 <__rt_no_irq_handler>
  j __rt_no_irq_handler
1c00000c:	0880006f          	j	1c000094 <__rt_no_irq_handler>
  j __rt_no_irq_handler
1c000010:	0840006f          	j	1c000094 <__rt_no_irq_handler>
  j __rt_no_irq_handler
1c000014:	0800006f          	j	1c000094 <__rt_no_irq_handler>
  j __rt_no_irq_handler
1c000018:	07c0006f          	j	1c000094 <__rt_no_irq_handler>
  j __rt_no_irq_handler
1c00001c:	0780006f          	j	1c000094 <__rt_no_irq_handler>
  j __rt_no_irq_handler
1c000020:	0740006f          	j	1c000094 <__rt_no_irq_handler>
  j __rt_no_irq_handler
1c000024:	0700006f          	j	1c000094 <__rt_no_irq_handler>
  j __rt_no_irq_handler
1c000028:	06c0006f          	j	1c000094 <__rt_no_irq_handler>
  j __rt_no_irq_handler
1c00002c:	0680006f          	j	1c000094 <__rt_no_irq_handler>
  j __rt_no_irq_handler
1c000030:	0640006f          	j	1c000094 <__rt_no_irq_handler>
  j __rt_no_irq_handler
1c000034:	0600006f          	j	1c000094 <__rt_no_irq_handler>
  j __rt_no_irq_handler
1c000038:	05c0006f          	j	1c000094 <__rt_no_irq_handler>
  j __rt_no_irq_handler
1c00003c:	0580006f          	j	1c000094 <__rt_no_irq_handler>
  j __rt_no_irq_handler
1c000040:	0540006f          	j	1c000094 <__rt_no_irq_handler>
  j __rt_no_irq_handler
1c000044:	0500006f          	j	1c000094 <__rt_no_irq_handler>
  j __rt_no_irq_handler
1c000048:	04c0006f          	j	1c000094 <__rt_no_irq_handler>
  j __rt_no_irq_handler
1c00004c:	0480006f          	j	1c000094 <__rt_no_irq_handler>
  j __rt_no_irq_handler
1c000050:	0440006f          	j	1c000094 <__rt_no_irq_handler>
  j __rt_no_irq_handler
1c000054:	0400006f          	j	1c000094 <__rt_no_irq_handler>
  j __rt_no_irq_handler
1c000058:	03c0006f          	j	1c000094 <__rt_no_irq_handler>
  j __rt_no_irq_handler
1c00005c:	0380006f          	j	1c000094 <__rt_no_irq_handler>
  j __rt_no_irq_handler
1c000060:	0340006f          	j	1c000094 <__rt_no_irq_handler>
  j __rt_no_irq_handler
1c000064:	0300006f          	j	1c000094 <__rt_no_irq_handler>
  j __rt_no_irq_handler
1c000068:	02c0006f          	j	1c000094 <__rt_no_irq_handler>
  j __rt_no_irq_handler
1c00006c:	0280006f          	j	1c000094 <__rt_no_irq_handler>
  j __rt_no_irq_handler
1c000070:	0240006f          	j	1c000094 <__rt_no_irq_handler>
  j __rt_no_irq_handler
1c000074:	0200006f          	j	1c000094 <__rt_no_irq_handler>
  j __rt_no_irq_handler
1c000078:	01c0006f          	j	1c000094 <__rt_no_irq_handler>
  j __rt_no_irq_handler
1c00007c:	0180006f          	j	1c000094 <__rt_no_irq_handler>

1c000080 <_start>:


  .org 0x80
  .global _start
_start:
  jal x0, _entry
1c000080:	0200006f          	j	1c0000a0 <_entry>


#ifndef __RT_MODE_BARE

  jal x0, __rt_illegal_instr
1c000084:	1c20006f          	j	1c000246 <__rt_illegal_instr>
	...

1c000090 <__rt_debug_struct_ptr>:
1c000090:	fc58                	fsw	fa4,60(s0)
1c000092:	1c00                	addi	s0,sp,560

1c000094 <__rt_no_irq_handler>:
  .word __hal_debug_struct

#endif

__rt_no_irq_handler:
  j __rt_no_irq_handler
1c000094:	0000006f          	j	1c000094 <__rt_no_irq_handler>

1c000098 <__rt_semihosting_call>:

#endif

  .global __rt_semihosting_call
__rt_semihosting_call:
  ebreak
1c000098:	00100073          	ebreak
  jr          ra
1c00009c:	00008067          	ret

Disassembly of section .text:

1c0000a0 <_entry>:
  csrw    0x7A1, x0
1c0000a0:	7a101073          	csrw	pcmr,zero
  csrr    a0, 0xF14
1c0000a4:	f1402573          	csrr	a0,mhartid
  andi    a1, a0, 0x1f
1c0000a8:	01f57593          	andi	a1,a0,31
  srli    a0, a0, 5
1c0000ac:	8115                	srli	a0,a0,0x5
  li      a2, ARCHI_FC_CID
1c0000ae:	02000613          	li	a2,32
  bne     a0, a2, __rt_pe_start
1c0000b2:	00c50463          	beq	a0,a2,1c0000ba <_entry+0x1a>
1c0000b6:	4230606f          	j	1c006cd8 <__cluster_text_start>
  la      t0, _bss_start
1c0000ba:	00010297          	auipc	t0,0x10
1c0000be:	d2e28293          	addi	t0,t0,-722 # 1c00fde8 <_bss_start>
  la      t1, _bss_end
1c0000c2:	00010317          	auipc	t1,0x10
1c0000c6:	12a30313          	addi	t1,t1,298 # 1c0101ec <_bss_end>
  sw      zero,0(t0)
1c0000ca:	0002a023          	sw	zero,0(t0)
  addi    t0, t0, 4
1c0000ce:	0291                	addi	t0,t0,4
  bltu    t0, t1, 1b
1c0000d0:	fe62ede3          	bltu	t0,t1,1c0000ca <_entry+0x2a>
  la   a0, __rt_fc_stack_size
1c0000d4:	00010517          	auipc	a0,0x10
1c0000d8:	c6050513          	addi	a0,a0,-928 # 1c00fd34 <__rt_fc_stack_size>
  lw   a0, 0(a0)
1c0000dc:	4108                	lw	a0,0(a0)
  la   x2, __rt_fc_stack
1c0000de:	ff000117          	auipc	sp,0xff000
1c0000e2:	2ba10113          	addi	sp,sp,698 # 1b000398 <__rt_fc_stack>
  add  x2, x2, a0
1c0000e6:	912a                	add	sp,sp,a0
  jal  x1, __rt_init
1c0000e8:	73e030ef          	jal	ra,1c003826 <__rt_init>
  addi  a0, x0, 0
1c0000ec:	00000513          	li	a0,0
  addi  a1, x0, 0
1c0000f0:	00000593          	li	a1,0
  la    t2, main
1c0000f4:	00002397          	auipc	t2,0x2
1c0000f8:	f9438393          	addi	t2,t2,-108 # 1c002088 <main>
  jalr  x1, t2
1c0000fc:	000380e7          	jalr	t2
  mv    s0, a0
1c000100:	842a                	mv	s0,a0
  jal  x1, __rt_deinit
1c000102:	08b030ef          	jal	ra,1c00398c <__rt_deinit>
  mv   a0, s0
1c000106:	8522                	mv	a0,s0
  jal  x1, exit
1c000108:	3fd050ef          	jal	ra,1c005d04 <exit>

1c00010c <_fini>:
  ret
1c00010c:	8082                	ret

1c00010e <__rt_event_enqueue>:
  //   x10/a0: temporary register
  //   x11/a1: the event
  //   x12/a2: temporary register

  // First check if it is a normal event
  andi    x10, x11, 0x3
1c00010e:	0035f513          	andi	a0,a1,3
  bne     x10, x0, __rt_handle_special_event
1c000112:	02051063          	bnez	a0,1c000132 <__rt_handle_special_event>

  // Enqueue normal event
  la      x10, __rt_sched
1c000116:	e4000517          	auipc	a0,0xe4000
1c00011a:	f0650513          	addi	a0,a0,-250 # 1c <_l1_preload_size>
  sw      x0, RT_EVENT_T_NEXT(x11)
1c00011e:	0005a023          	sw	zero,0(a1)
  lw      x12, RT_SCHED_T_FIRST(x10)
1c000122:	4110                	lw	a2,0(a0)
  beqz    x12, __rt_no_first
1c000124:	c601                	beqz	a2,1c00012c <__rt_no_first>
  lw      x12, RT_SCHED_T_LAST(x10)
1c000126:	4150                	lw	a2,4(a0)
  sw      x11, RT_EVENT_T_NEXT(x12)
1c000128:	c20c                	sw	a1,0(a2)
  j       __rt_common
1c00012a:	a011                	j	1c00012e <__rt_common>

1c00012c <__rt_no_first>:

__rt_no_first:
  sw      x11, RT_SCHED_T_FIRST(x10)
1c00012c:	c10c                	sw	a1,0(a0)

1c00012e <__rt_common>:

__rt_common:
  sw      x11, RT_SCHED_T_LAST(x10)
1c00012e:	c14c                	sw	a1,4(a0)

1c000130 <enqueue_end>:

enqueue_end:
  jr          x9
1c000130:	8482                	jr	s1

1c000132 <__rt_handle_special_event>:

__rt_handle_special_event:
  li      x10, ~0x3
1c000132:	5571                	li	a0,-4
  and     x11, x11, x10
1c000134:	8de9                	and	a1,a1,a0
  lw      x12, PI_CALLBACK_T_ENTRY(x11)
1c000136:	41d0                	lw	a2,4(a1)
  lw      x10, PI_CALLBACK_T_ARG(x11)
1c000138:	4588                	lw	a0,8(a1)
  j       __rt_call_external_c_function
1c00013a:	a0d9                	j	1c000200 <__rt_call_external_c_function>

1c00013c <__rt_bridge_enqueue_event>:
    // to enqueue an event to the FC scheduler.

    .global __rt_bridge_enqueue_event
__rt_bridge_enqueue_event:

    sw  x8, -4(sp)
1c00013c:	fe812e23          	sw	s0,-4(sp)
    sw  x9, -8(sp)
1c000140:	fe912c23          	sw	s1,-8(sp)
    sw  a0, -12(sp)
1c000144:	fea12a23          	sw	a0,-12(sp)
    sw  a1, -16(sp)
1c000148:	feb12823          	sw	a1,-16(sp)
    sw  a2, -20(sp)
1c00014c:	fec12623          	sw	a2,-20(sp)

    // Everything is done from C code
    la      x12, __rt_bridge_handle_notif
1c000150:	00004617          	auipc	a2,0x4
1c000154:	bba60613          	addi	a2,a2,-1094 # 1c003d0a <__rt_bridge_handle_notif>
    jal     x9, __rt_call_external_c_function
1c000158:	0a8004ef          	jal	s1,1c000200 <__rt_call_external_c_function>

    lw  x8, -4(sp)
1c00015c:	ffc12403          	lw	s0,-4(sp)
    lw  x9, -8(sp)
1c000160:	ff812483          	lw	s1,-8(sp)
    lw  a0, -12(sp)
1c000164:	ff412503          	lw	a0,-12(sp)
    lw  a1, -16(sp)
1c000168:	ff012583          	lw	a1,-16(sp)
    lw  a2, -20(sp)
1c00016c:	fec12603          	lw	a2,-20(sp)

    mret
1c000170:	30200073          	mret

1c000174 <__rt_remote_enqueue_event>:
    // The FC must get it and push it to the scheduler

    .global __rt_remote_enqueue_event
__rt_remote_enqueue_event:

    sw  x8, -4(sp)
1c000174:	fe812e23          	sw	s0,-4(sp)
    sw  x9, -8(sp)
1c000178:	fe912c23          	sw	s1,-8(sp)
    sw  a0, -12(sp)
1c00017c:	fea12a23          	sw	a0,-12(sp)
    sw  a1, -16(sp)
1c000180:	feb12823          	sw	a1,-16(sp)
    sw  a2, -20(sp)
1c000184:	fec12623          	sw	a2,-20(sp)

#ifndef ARCHI_NB_CLUSTER
    li   x8, 1
1c000188:	4405                	li	s0,1
#else
    li   x8, ARCHI_NB_CLUSTER
#endif
    la   x9, __rt_fc_cluster_data
1c00018a:	00010497          	auipc	s1,0x10
1c00018e:	03a48493          	addi	s1,s1,58 # 1c0101c4 <__rt_fc_cluster_data>

1c000192 <__rt_remote_enqueue_event_loop_cluster>:

    // Loop over the clusters to see if there is an event to push
__rt_remote_enqueue_event_loop_cluster:
    lw   a1, RT_FC_CLUSTER_DATA_T_EVENTS(x9)
1c000192:	40cc                	lw	a1,4(s1)
    beq  a1, x0, __rt_remote_enqueue_event_loop_cluster_continue
1c000194:	02058d63          	beqz	a1,1c0001ce <__rt_remote_enqueue_event_loop_cluster_continue>

    // Everytime a task is finished, first check if we can update the queue head
    // as it is not updated by cluster side to avoid race conditions.
    // At least this task won t be there anymore after we update, and maybe even
    // more tasks, which is not an issue, as we compare against the head.
    lw   a1, RT_FC_CLUSTER_DATA_T_CLUSTER_POOL(x9)
1c000198:	48cc                	lw	a1,20(s1)
    lw   a0, RT_CLUSTER_CALL_POOL_T_FIRST_CALL_FC(a1)
1c00019a:	41c8                	lw	a0,4(a1)

    beq  a0, x0, __rt_cluster_pool_update_end
1c00019c:	00050e63          	beqz	a0,1c0001b8 <__rt_cluster_pool_update_end>

1c0001a0 <__rt_cluster_pool_update_loop>:

__rt_cluster_pool_update_loop:
    lw    a2, RT_CLUSTER_TASK_PENDING(a0)
1c0001a0:	5150                	lw	a2,36(a0)
    bnez  a2, __rt_cluster_pool_update_loop_end
1c0001a2:	e219                	bnez	a2,1c0001a8 <__rt_cluster_pool_update_loop_end>

    lw   a0, RT_CLUSTER_TASK_NEXT(a0)
1c0001a4:	5108                	lw	a0,32(a0)
    bnez a0, __rt_cluster_pool_update_loop
1c0001a6:	fd6d                	bnez	a0,1c0001a0 <__rt_cluster_pool_update_loop>

1c0001a8 <__rt_cluster_pool_update_loop_end>:


__rt_cluster_pool_update_loop_end:
    
    beqz a0, __rt_cluster_pool_update_no_current
1c0001a8:	c501                	beqz	a0,1c0001b0 <__rt_cluster_pool_update_no_current>

    lw   a0, RT_CLUSTER_TASK_NEXT(a0)
1c0001aa:	5108                	lw	a0,32(a0)
    sw   a0, RT_CLUSTER_CALL_POOL_T_FIRST_CALL_FC(a1)
1c0001ac:	c1c8                	sw	a0,4(a1)

    j    __rt_cluster_pool_update_end
1c0001ae:	a029                	j	1c0001b8 <__rt_cluster_pool_update_end>

1c0001b0 <__rt_cluster_pool_update_no_current>:

__rt_cluster_pool_update_no_current:

    sw   x0, RT_CLUSTER_CALL_POOL_T_FIRST_CALL_FC(a1)
1c0001b0:	0005a223          	sw	zero,4(a1)
    sw   x0, RT_CLUSTER_CALL_POOL_T_FIRST_LAST_FC(a1)
1c0001b4:	0005a423          	sw	zero,8(a1)

1c0001b8 <__rt_cluster_pool_update_end>:




__rt_cluster_pool_update_end:
    lw   a1, RT_FC_CLUSTER_DATA_T_EVENTS(x9)
1c0001b8:	40cc                	lw	a1,4(s1)

    lw   a2, RT_FC_CLUSTER_DATA_T_TRIG_ADDR(x9)
1c0001ba:	4890                	lw	a2,16(s1)
    sw   x0, RT_FC_CLUSTER_DATA_T_EVENTS(x9)
1c0001bc:	0004a223          	sw	zero,4(s1)

    sw   x0, 0(a2)
1c0001c0:	00062023          	sw	zero,0(a2)

    la   x9, __rt_remote_enqueue_event_loop_cluster_continue
1c0001c4:	00000497          	auipc	s1,0x0
1c0001c8:	00a48493          	addi	s1,s1,10 # 1c0001ce <__rt_remote_enqueue_event_loop_cluster_continue>
    j    __rt_event_enqueue
1c0001cc:	b789                	j	1c00010e <__rt_event_enqueue>

1c0001ce <__rt_remote_enqueue_event_loop_cluster_continue>:

__rt_remote_enqueue_event_loop_cluster_continue:
    addi x8, x8, -1
1c0001ce:	147d                	addi	s0,s0,-1
    bgt  x8, x0, __rt_remote_enqueue_event_loop_next_cluster
1c0001d0:	00804e63          	bgtz	s0,1c0001ec <__rt_remote_enqueue_event_loop_next_cluster>



    lw  x8, -4(sp)
1c0001d4:	ffc12403          	lw	s0,-4(sp)
    lw  x9, -8(sp)
1c0001d8:	ff812483          	lw	s1,-8(sp)
    lw  a0, -12(sp)
1c0001dc:	ff412503          	lw	a0,-12(sp)
    lw  a1, -16(sp)
1c0001e0:	ff012583          	lw	a1,-16(sp)
    lw  a2, -20(sp)
1c0001e4:	fec12603          	lw	a2,-20(sp)

    mret
1c0001e8:	30200073          	mret

1c0001ec <__rt_remote_enqueue_event_loop_next_cluster>:

__rt_remote_enqueue_event_loop_next_cluster:
    la   x9, __rt_fc_cluster_data
1c0001ec:	00010497          	auipc	s1,0x10
1c0001f0:	fd848493          	addi	s1,s1,-40 # 1c0101c4 <__rt_fc_cluster_data>
    li   a1, RT_FC_CLUSTER_DATA_T_SIZEOF
1c0001f4:	02800593          	li	a1,40
    mul  a1, x8, a1
1c0001f8:	02b405b3          	mul	a1,s0,a1
    add  x9, x9, a1
1c0001fc:	94ae                	add	s1,s1,a1
    j __rt_remote_enqueue_event_loop_cluster
1c0001fe:	bf51                	j	1c000192 <__rt_remote_enqueue_event_loop_cluster>

1c000200 <__rt_call_external_c_function>:
#endif

  .global __rt_call_external_c_function
__rt_call_external_c_function:

    add  sp, sp, -128
1c000200:	7119                	addi	sp,sp,-128

    sw   ra, 0x00(sp)
1c000202:	c006                	sw	ra,0(sp)
    sw   gp, 0x04(sp)
1c000204:	c20e                	sw	gp,4(sp)
    sw   tp, 0x08(sp)
1c000206:	c412                	sw	tp,8(sp)
    sw   t0, 0x0C(sp)
1c000208:	c616                	sw	t0,12(sp)
    sw   t1, 0x10(sp)
1c00020a:	c81a                	sw	t1,16(sp)
    sw   t2, 0x14(sp)
1c00020c:	ca1e                	sw	t2,20(sp)
    sw   a3, 0x24(sp)
1c00020e:	d236                	sw	a3,36(sp)
    sw   a4, 0x28(sp)
1c000210:	d43a                	sw	a4,40(sp)
    sw   a5, 0x2C(sp)
1c000212:	d63e                	sw	a5,44(sp)
    sw   a6, 0x30(sp)
1c000214:	d842                	sw	a6,48(sp)
    sw   a7, 0x34(sp)
1c000216:	da46                	sw	a7,52(sp)
    sw   t3, 0x38(sp)
1c000218:	dc72                	sw	t3,56(sp)
    sw   t4, 0x3C(sp)
1c00021a:	de76                	sw	t4,60(sp)
    sw   t5, 0x40(sp)
1c00021c:	c0fa                	sw	t5,64(sp)
    sw   t6, 0x4C(sp)
1c00021e:	c6fe                	sw	t6,76(sp)

    jalr ra, a2
1c000220:	000600e7          	jalr	a2

    lw   ra, 0x00(sp)
1c000224:	4082                	lw	ra,0(sp)
    lw   gp, 0x04(sp)
1c000226:	4192                	lw	gp,4(sp)
    lw   tp, 0x08(sp)
1c000228:	4222                	lw	tp,8(sp)
    lw   t0, 0x0C(sp)
1c00022a:	42b2                	lw	t0,12(sp)
    lw   t1, 0x10(sp)
1c00022c:	4342                	lw	t1,16(sp)
    lw   t2, 0x14(sp)
1c00022e:	43d2                	lw	t2,20(sp)
    lw   a3, 0x24(sp)
1c000230:	5692                	lw	a3,36(sp)
    lw   a4, 0x28(sp)
1c000232:	5722                	lw	a4,40(sp)
    lw   a5, 0x2C(sp)
1c000234:	57b2                	lw	a5,44(sp)
    lw   a6, 0x30(sp)
1c000236:	5842                	lw	a6,48(sp)
    lw   a7, 0x34(sp)
1c000238:	58d2                	lw	a7,52(sp)
    lw   t3, 0x38(sp)
1c00023a:	5e62                	lw	t3,56(sp)
    lw   t4, 0x3C(sp)
1c00023c:	5ef2                	lw	t4,60(sp)
    lw   t5, 0x40(sp)
1c00023e:	4f06                	lw	t5,64(sp)
    lw   t6, 0x4C(sp)
1c000240:	4fb6                	lw	t6,76(sp)

    add  sp, sp, 128
1c000242:	6109                	addi	sp,sp,128

    jr   x9
1c000244:	8482                	jr	s1

1c000246 <__rt_illegal_instr>:

  .section .text
  
    .global __rt_illegal_instr
__rt_illegal_instr:
    sw   ra, -4(sp)
1c000246:	fe112e23          	sw	ra,-4(sp)
    sw   a0, -8(sp)
1c00024a:	fea12c23          	sw	a0,-8(sp)
    la   a0, __rt_handle_illegal_instr
1c00024e:	00003517          	auipc	a0,0x3
1c000252:	7b850513          	addi	a0,a0,1976 # 1c003a06 <__rt_handle_illegal_instr>
    jal  ra, __rt_call_c_function
1c000256:	010000ef          	jal	ra,1c000266 <__rt_call_c_function>
    lw   ra, -4(sp)
1c00025a:	ffc12083          	lw	ra,-4(sp)
    lw   a0, -8(sp)
1c00025e:	ff812503          	lw	a0,-8(sp)
#if PULP_CORE == CORE_RISCV_V4
    mret
1c000262:	30200073          	mret

1c000266 <__rt_call_c_function>:
#endif


__rt_call_c_function:

    add  sp, sp, -128
1c000266:	7119                	addi	sp,sp,-128

    sw   ra, 0x00(sp)
1c000268:	c006                	sw	ra,0(sp)
    sw   gp, 0x04(sp)
1c00026a:	c20e                	sw	gp,4(sp)
    sw   tp, 0x08(sp)
1c00026c:	c412                	sw	tp,8(sp)
    sw   t0, 0x0C(sp)
1c00026e:	c616                	sw	t0,12(sp)
    sw   t1, 0x10(sp)
1c000270:	c81a                	sw	t1,16(sp)
    sw   t2, 0x14(sp)
1c000272:	ca1e                	sw	t2,20(sp)
    sw   a1, 0x1C(sp)
1c000274:	ce2e                	sw	a1,28(sp)
    sw   a2, 0x20(sp)
1c000276:	d032                	sw	a2,32(sp)
    sw   a3, 0x24(sp)
1c000278:	d236                	sw	a3,36(sp)
    sw   a4, 0x28(sp)
1c00027a:	d43a                	sw	a4,40(sp)
    sw   a5, 0x2C(sp)
1c00027c:	d63e                	sw	a5,44(sp)
    sw   a6, 0x30(sp)
1c00027e:	d842                	sw	a6,48(sp)
    sw   a7, 0x34(sp)
1c000280:	da46                	sw	a7,52(sp)
    sw   t3, 0x38(sp)
1c000282:	dc72                	sw	t3,56(sp)
    sw   t4, 0x3C(sp)
1c000284:	de76                	sw	t4,60(sp)
    sw   t5, 0x40(sp)
1c000286:	c0fa                	sw	t5,64(sp)
    sw   t6, 0x4C(sp)
1c000288:	c6fe                	sw	t6,76(sp)

    jalr ra, a0
1c00028a:	000500e7          	jalr	a0

    lw   ra, 0x00(sp)
1c00028e:	4082                	lw	ra,0(sp)
    lw   gp, 0x04(sp)
1c000290:	4192                	lw	gp,4(sp)
    lw   tp, 0x08(sp)
1c000292:	4222                	lw	tp,8(sp)
    lw   t0, 0x0C(sp)
1c000294:	42b2                	lw	t0,12(sp)
    lw   t1, 0x10(sp)
1c000296:	4342                	lw	t1,16(sp)
    lw   t2, 0x14(sp)
1c000298:	43d2                	lw	t2,20(sp)
    lw   a1, 0x1C(sp)
1c00029a:	45f2                	lw	a1,28(sp)
    lw   a2, 0x20(sp)
1c00029c:	5602                	lw	a2,32(sp)
    lw   a3, 0x24(sp)
1c00029e:	5692                	lw	a3,36(sp)
    lw   a4, 0x28(sp)
1c0002a0:	5722                	lw	a4,40(sp)
    lw   a5, 0x2C(sp)
1c0002a2:	57b2                	lw	a5,44(sp)
    lw   a6, 0x30(sp)
1c0002a4:	5842                	lw	a6,48(sp)
    lw   a7, 0x34(sp)
1c0002a6:	58d2                	lw	a7,52(sp)
    lw   t3, 0x38(sp)
1c0002a8:	5e62                	lw	t3,56(sp)
    lw   t4, 0x3C(sp)
1c0002aa:	5ef2                	lw	t4,60(sp)
    lw   t5, 0x40(sp)
1c0002ac:	4f06                	lw	t5,64(sp)
    lw   t6, 0x4C(sp)
1c0002ae:	4fb6                	lw	t6,76(sp)

    add  sp, sp, 128
1c0002b0:	6109                	addi	sp,sp,128

    jr   ra
1c0002b2:	8082                	ret

1c0002b4 <udma_event_handler>:

  .global udma_event_handler
udma_event_handler:

  // Dequeue the transfer which have just finished and mark it as done
  lw   x8, RT_PERIPH_CHANNEL_T_FIRST(x9)
1c0002b4:	4080                	lw	s0,0(s1)
  lw   x11, RT_PERIPH_CHANNEL_T_FIRST_TO_ENQUEUE(x9)   // This is used later on, just put here to fill the slot
1c0002b6:	448c                	lw	a1,8(s1)
  beq  x8, x0, __rt_udma_no_copy                       // Special case where there is no copy, just register the event in the bitfield
1c0002b8:	08040f63          	beqz	s0,1c000356 <__rt_udma_no_copy>
  lw   x12, RT_PERIPH_COPY_T_REPEAT(x8)
1c0002bc:	4c50                	lw	a2,28(s0)
  lw   x10, RT_PERIPH_COPY_T_NEXT(x8)
1c0002be:	4848                	lw	a0,20(s0)
  bne  x12, x0, repeat_transfer
1c0002c0:	04061f63          	bnez	a2,1c00031e <dmaCmd>
  sw   x10, RT_PERIPH_CHANNEL_T_FIRST(x9)
1c0002c4:	c088                	sw	a0,0(s1)
  
  // Handle any special end-of-transfer control
  lw       x10, RT_PERIPH_COPY_T_CTRL(x8)
1c0002c6:	4448                	lw	a0,12(s0)
  bnez     x10, handle_special_end
1c0002c8:	e15d                	bnez	a0,1c00036e <handle_special_end>

1c0002ca <resume_after_special_end>:
resume_after_special_end:


  // Now check if there are some transfers enqueued in the SW FIFO to be enqueued to the UDMA
  beq x11, x0, checkTask
1c0002ca:	02058f63          	beqz	a1,1c000308 <checkTask>

  // x9 contains the pointer to the channel and x11 the first copy

  // Update the FIFO pointers and just copy from node to UDMA
  lw  x12, RT_PERIPH_COPY_T_ENQUEUE_CALLBACK(x11)
1c0002ce:	4990                	lw	a2,16(a1)
  lw  x10, RT_PERIPH_COPY_T_NEXT(x11)
1c0002d0:	49c8                	lw	a0,20(a1)
  beqz x12, __rt_udma_call_enqueue_callback_resume
1c0002d2:	c611                	beqz	a2,1c0002de <__rt_udma_call_enqueue_callback_resume>

  la  x9, __rt_udma_call_enqueue_callback_resume
1c0002d4:	00000497          	auipc	s1,0x0
1c0002d8:	00a48493          	addi	s1,s1,10 # 1c0002de <__rt_udma_call_enqueue_callback_resume>
  jr  x12
1c0002dc:	8602                	jr	a2

1c0002de <__rt_udma_call_enqueue_callback_resume>:

__rt_udma_call_enqueue_callback_resume:
  lw  x12, RT_PERIPH_CHANNEL_T_BASE(x9)
1c0002de:	44d0                	lw	a2,12(s1)
  sw  x10, RT_PERIPH_CHANNEL_T_FIRST_TO_ENQUEUE(x9)
1c0002e0:	c488                	sw	a0,8(s1)
  lw  x10, RT_PERIPH_COPY_T_ADDR(x11)
1c0002e2:	4188                	lw	a0,0(a1)
  lw  x9, RT_PERIPH_COPY_T_SIZE(x11)
1c0002e4:	41c4                	lw	s1,4(a1)
  sw  x10, UDMA_CHANNEL_SADDR_OFFSET(x12)
1c0002e6:	c208                	sw	a0,0(a2)
  sw  x9, UDMA_CHANNEL_SIZE_OFFSET(x12)
1c0002e8:	c244                	sw	s1,4(a2)

  lw  x9, RT_PERIPH_COPY_T_CTRL(x11)
1c0002ea:	45c4                	lw	s1,12(a1)
  andi x9, x9, (1<<RT_PERIPH_COPY_CTRL_TYPE_WIDTH)-1
1c0002ec:	88bd                	andi	s1,s1,15
  li  x10, RT_PERIPH_COPY_SPECIAL_ENQUEUE_THRESHOLD
1c0002ee:	4515                	li	a0,5
  blt x9, x10, transfer_resume
1c0002f0:	00a4ca63          	blt	s1,a0,1c000304 <transfer_resume>
  li          x10, RT_PERIPH_COPY_HYPER
  beq         x9, x10, hyper
  li          x10, RT_PERIPH_COPY_FC_TCDM
  beq         x9, x10, fc_tcdm
#else
  p.beqimm      x9, RT_PERIPH_COPY_HYPER, hyper
1c0002f4:	0064a463          	p.beqimm	s1,6,1c0002fc <dual>
  p.beqimm      x9, RT_PERIPH_COPY_FC_TCDM, fc_tcdm
1c0002f8:	0074a263          	p.beqimm	s1,7,1c0002fc <dual>

1c0002fc <dual>:
#ifdef RV_ISA_RV32
  li    x10, ~(1<<UDMA_CHANNEL_SIZE_LOG2)
  and   x9, x12, x10
  lw    x10, RT_PERIPH_COPY_T_HYPER_ADDR(x11)
#else
  lw    x10, RT_PERIPH_COPY_T_HYPER_ADDR(x11)
1c0002fc:	51c8                	lw	a0,36(a1)
  p.bclr  x9, x12, 0, UDMA_CHANNEL_SIZE_LOG2
1c0002fe:	c04634b3          	p.bclr	s1,a2,0,4
#endif
  sw    x10, HYPER_EXT_ADDR_CHANNEL_CUSTOM_OFFSET(x9)
1c000302:	d088                	sw	a0,32(s1)

1c000304 <transfer_resume>:
#endif

transfer_resume:
  lw  x10, RT_PERIPH_COPY_T_CFG(x11)
1c000304:	4588                	lw	a0,8(a1)
  sw  x10, UDMA_CHANNEL_CFG_OFFSET(x12)
1c000306:	c608                	sw	a0,8(a2)

1c000308 <checkTask>:

checkTask:

  // Check if we have a DMA transfer from L2 to L1   
  //lw          x10, RT_PERIPH_COPY_T_DMACMD(x8)           // Not null if we must transfer
  lw          x11, RT_PERIPH_COPY_T_EVENT(x8)             // Read this in advance to fill the slot, it is used later on in case there is no DMA command
1c000308:	4c0c                	lw	a1,24(s0)

  //bne         x10, zero, dmaCmd
  la          x9, udma_event_handler_end
1c00030a:	00000497          	auipc	s1,0x0
1c00030e:	19a48493          	addi	s1,s1,410 # 1c0004a4 <udma_event_handler_end>
  bne         x11, zero, __rt_event_enqueue
1c000312:	00058463          	beqz	a1,1c00031a <checkTask+0x12>
1c000316:	df9ff06f          	j	1c00010e <__rt_event_enqueue>

  // Loop again in case there are still events in the FIFO
  j udma_event_handler_end
1c00031a:	18a0006f          	j	1c0004a4 <udma_event_handler_end>

1c00031e <dmaCmd>:
//   x12 : number of bytes to repeat
repeat_transfer:

#ifdef ARCHI_UDMA_HAS_HYPER

  lw      x11, RT_PERIPH_CHANNEL_T_BASE(x9)
1c00031e:	44cc                	lw	a1,12(s1)
#ifdef RV_ISA_RV32
  li      x10, ~(1<<UDMA_CHANNEL_SIZE_LOG2)
  and     x9, x11, x10
  lw      x10, RT_PERIPH_COPY_T_HYPER_ADDR(x8)
#else
  lw      x10, RT_PERIPH_COPY_T_HYPER_ADDR(x8)
1c000320:	5048                	lw	a0,36(s0)
  p.bclr  x9, x11, 0, UDMA_CHANNEL_SIZE_LOG2
1c000322:	c045b4b3          	p.bclr	s1,a1,0,4
#endif
  add     x10, x10, x12
1c000326:	9532                	add	a0,a0,a2
  sw      x10, HYPER_EXT_ADDR_CHANNEL_CUSTOM_OFFSET(x9)
1c000328:	d088                	sw	a0,32(s1)
  sw      x10, RT_PERIPH_COPY_T_HYPER_ADDR(x8)
1c00032a:	d048                	sw	a0,36(s0)

  lw      x10, RT_PERIPH_COPY_T_ADDR(x8)
1c00032c:	4008                	lw	a0,0(s0)
  lw      x9, RT_PERIPH_COPY_T_REPEAT_SIZE(x8)
1c00032e:	5004                	lw	s1,32(s0)
  add     x10, x10, x12
1c000330:	9532                	add	a0,a0,a2
  sub     x9, x9, x12
1c000332:	8c91                	sub	s1,s1,a2
  blt     x12, x9, not_last
1c000334:	00964963          	blt	a2,s1,1c000346 <not_last>
  mv      x12, x9
1c000338:	8626                	mv	a2,s1
  sw      x0, RT_PERIPH_COPY_T_REPEAT(x8)
1c00033a:	00042e23          	sw	zero,28(s0)
  beq     x12, x0, udma_event_handler_end
1c00033e:	00061463          	bnez	a2,1c000346 <not_last>
1c000342:	1620006f          	j	1c0004a4 <udma_event_handler_end>

1c000346 <not_last>:

not_last:
  sw      x10, RT_PERIPH_COPY_T_ADDR(x8)
1c000346:	c008                	sw	a0,0(s0)
  sw      x9, RT_PERIPH_COPY_T_REPEAT_SIZE(x8)
1c000348:	d004                	sw	s1,32(s0)
  sw      x10, UDMA_CHANNEL_SADDR_OFFSET(x11)
1c00034a:	c188                	sw	a0,0(a1)
  sw      x12, UDMA_CHANNEL_SIZE_OFFSET(x11)
1c00034c:	c1d0                	sw	a2,4(a1)

  li      x10, UDMA_CHANNEL_CFG_EN
1c00034e:	4541                	li	a0,16
  sw      x10, UDMA_CHANNEL_CFG_OFFSET(x11)
1c000350:	c588                	sw	a0,8(a1)

#endif

  j           udma_event_handler_end
1c000352:	1520006f          	j	1c0004a4 <udma_event_handler_end>

1c000356 <__rt_udma_no_copy>:




__rt_udma_no_copy:
  la      x9, __rt_socevents_status
1c000356:	e4000497          	auipc	s1,0xe4000
1c00035a:	f5a48493          	addi	s1,s1,-166 # 2b0 <__rt_socevents_status>
  lw      x8, 0(x9)
1c00035e:	4080                	lw	s0,0(s1)
  li      x11, 1
1c000360:	4585                	li	a1,1
  sll     x10, x11, x10
1c000362:	00a59533          	sll	a0,a1,a0
  or      x8, x8, x10
1c000366:	8c49                	or	s0,s0,a0
  sw      x8, 0(x9)
1c000368:	c080                	sw	s0,0(s1)
  j udma_event_handler_end
1c00036a:	13a0006f          	j	1c0004a4 <udma_event_handler_end>

1c00036e <handle_special_end>:
  li          x12, RT_PERIPH_COPY_I2C_STEP1
  beq         x10, x12, i2c_step1
  li          x12, RT_PERIPH_COPY_I2C_STEP2
  beq         x10, x12, i2c_step2
#else
  p.beqimm    x10, RT_PERIPH_COPY_I2C_STEP1, i2c_step1  
1c00036e:	04352463          	p.beqimm	a0,3,1c0003b6 <i2c_step1>
  p.beqimm    x10, RT_PERIPH_COPY_I2C_STEP2, i2c_step2
1c000372:	06452063          	p.beqimm	a0,4,1c0003d2 <i2c_step2>
#endif

  j           resume_after_special_end
1c000376:	bf91                	j	1c0002ca <resume_after_special_end>

1c000378 <spim_step3>:


spim_step3:
  // The current copy was enqueued to configure spi, cs and send command
  // now we need to reenqueue the same copy with the user buffer.
  lw          x10, RT_PERIPH_COPY_T_RAW_VAL1(x8)
1c000378:	5408                	lw	a0,40(s0)
  sw          x10, RT_PERIPH_COPY_T_CTRL(x8)
1c00037a:	c448                	sw	a0,12(s0)

  // Reenqueue the same copy to the list of pending copies as it has been removed
  lw          x10, RT_PERIPH_CHANNEL_T_FIRST(x9)
1c00037c:	4088                	lw	a0,0(s1)
  sw          x10, RT_PERIPH_COPY_T_NEXT(x8)
1c00037e:	c848                	sw	a0,20(s0)
  sw          x8, RT_PERIPH_CHANNEL_T_FIRST(x9)
1c000380:	c080                	sw	s0,0(s1)

  // And rearm the transfer in the udma
  lw          x12, RT_PERIPH_CHANNEL_T_BASE(x9)
1c000382:	44d0                	lw	a2,12(s1)
  lw          x10, RT_PERIPH_COPY_T_RAW_VAL2(x8)
1c000384:	5448                	lw	a0,44(s0)
  sw          x10, UDMA_CHANNEL_SADDR_OFFSET(x12)
1c000386:	c208                	sw	a0,0(a2)
  lw          x10, RT_PERIPH_COPY_T_RAW_VAL0(x8)
1c000388:	5048                	lw	a0,36(s0)
  sw          x10, UDMA_CHANNEL_SIZE_OFFSET(x12)
1c00038a:	c248                	sw	a0,4(a2)
  lw          x10, RT_PERIPH_COPY_T_CFG(x8)
1c00038c:	4408                	lw	a0,8(s0)
  sw          x10, UDMA_CHANNEL_CFG_OFFSET(x12)
1c00038e:	c608                	sw	a0,8(a2)

  j           udma_event_handler_end
1c000390:	1140006f          	j	1c0004a4 <udma_event_handler_end>

1c000394 <spim_step2>:

spim_step2:
  // Now that the user data has been pushed, we must push an EOT command
  sw          x0, RT_PERIPH_COPY_T_CTRL(x8)
1c000394:	00042623          	sw	zero,12(s0)
  
  // Reenqueue the same copy to the list of pending copies as it has been removed
  lw          x10, RT_PERIPH_CHANNEL_T_FIRST(x9)
1c000398:	4088                	lw	a0,0(s1)
  sw          x10, RT_PERIPH_COPY_T_NEXT(x8)
1c00039a:	c848                	sw	a0,20(s0)
  sw          x8, RT_PERIPH_CHANNEL_T_FIRST(x9)
1c00039c:	c080                	sw	s0,0(s1)

  // And rearm the transfer in the udma
  #if PULP_CHIP_FAMILY == CHIP_GAP

  lw          x8, RT_PERIPH_COPY_T_PERIPH_DATA(x8)
1c00039e:	4060                	lw	s0,68(s0)
  li          x12, SPI_CMD_EOT(0)
1c0003a0:	90000637          	lui	a2,0x90000
  sw          x12, 0(x8)
1c0003a4:	c010                	sw	a2,0(s0)
  lw          x12, RT_PERIPH_CHANNEL_T_BASE(x9)
1c0003a6:	44d0                	lw	a2,12(s1)
  sw          x8, UDMA_CHANNEL_SADDR_OFFSET(x12)
1c0003a8:	c200                	sw	s0,0(a2)
  addi        x10, x8, RT_PERIPH_COPY_T_PERIPH_DATA
  sw          x10, UDMA_CHANNEL_SADDR_OFFSET(x12)

  #endif

  li          x10, 4
1c0003aa:	4511                	li	a0,4
  sw          x10, UDMA_CHANNEL_SIZE_OFFSET(x12)
1c0003ac:	c248                	sw	a0,4(a2)
  li          x10, UDMA_CHANNEL_CFG_EN
1c0003ae:	4541                	li	a0,16
  sw          x10, UDMA_CHANNEL_CFG_OFFSET(x12)
1c0003b0:	c608                	sw	a0,8(a2)

  j           udma_event_handler_end
1c0003b2:	0f20006f          	j	1c0004a4 <udma_event_handler_end>

1c0003b6 <i2c_step1>:
 */

i2c_step1:
  // The current copy was enqueued to configure i2c, cs and send command
  // now we need to reenqueue the same copy with the user buffer.
  lw          x10, RT_PERIPH_COPY_T_RAW_VAL1(x8)
1c0003b6:	5408                	lw	a0,40(s0)
  sw          x10, RT_PERIPH_COPY_T_CTRL(x8)
1c0003b8:	c448                	sw	a0,12(s0)

  // Reenqueue the same copy to the list of pending copies as it has been removed
  lw          x10, RT_PERIPH_CHANNEL_T_FIRST(x9)
1c0003ba:	4088                	lw	a0,0(s1)
  sw          x10, RT_PERIPH_COPY_T_NEXT(x8)
1c0003bc:	c848                	sw	a0,20(s0)
  sw          x8, RT_PERIPH_CHANNEL_T_FIRST(x9)
1c0003be:	c080                	sw	s0,0(s1)

  // And rearm the transfer in the udma
  lw          x12, RT_PERIPH_CHANNEL_T_BASE(x9)
1c0003c0:	44d0                	lw	a2,12(s1)
  lw          x10, RT_PERIPH_COPY_T_ADDR(x8)
1c0003c2:	4008                	lw	a0,0(s0)
  sw          x10, UDMA_CHANNEL_SADDR_OFFSET(x12)
1c0003c4:	c208                	sw	a0,0(a2)
  lw          x10, RT_PERIPH_COPY_T_RAW_VAL0(x8)
1c0003c6:	5048                	lw	a0,36(s0)
  sw          x10, UDMA_CHANNEL_SIZE_OFFSET(x12)
1c0003c8:	c248                	sw	a0,4(a2)
  lw          x10, RT_PERIPH_COPY_T_CFG(x8)
1c0003ca:	4408                	lw	a0,8(s0)
  sw          x10, UDMA_CHANNEL_CFG_OFFSET(x12)
1c0003cc:	c608                	sw	a0,8(a2)

  j           udma_event_handler_end
1c0003ce:	0d60006f          	j	1c0004a4 <udma_event_handler_end>

1c0003d2 <i2c_step2>:

i2c_step2:
  // Now that the user data has been pushed, we must push a STOP command
  sw          x0, RT_PERIPH_COPY_T_CTRL(x8)
1c0003d2:	00042623          	sw	zero,12(s0)
  
  // Reenqueue the same copy to the list of pending copies as it has been removed
  lw          x10, RT_PERIPH_CHANNEL_T_FIRST(x9)
1c0003d6:	4088                	lw	a0,0(s1)
  sw          x10, RT_PERIPH_COPY_T_NEXT(x8)
1c0003d8:	c848                	sw	a0,20(s0)
  sw          x8, RT_PERIPH_CHANNEL_T_FIRST(x9)
1c0003da:	c080                	sw	s0,0(s1)

  // And rearm the transfer in the udma
  #if PULP_CHIP_FAMILY == CHIP_GAP

  lw          x8, RT_PERIPH_COPY_T_PERIPH_DATA(x8)
1c0003dc:	4060                	lw	s0,68(s0)
  li          x12, I2C_CMD_STOP
1c0003de:	02000613          	li	a2,32
  sw          x12, 0(x8)
1c0003e2:	c010                	sw	a2,0(s0)
  lw          x12, RT_PERIPH_CHANNEL_T_BASE(x9)
1c0003e4:	44d0                	lw	a2,12(s1)
  sw          x8, UDMA_CHANNEL_SADDR_OFFSET(x12)
1c0003e6:	c200                	sw	s0,0(a2)
  addi        x10, x8, RT_PERIPH_COPY_T_PERIPH_DATA
  sw          x10, UDMA_CHANNEL_SADDR_OFFSET(x12)

  #endif

  li          x10, 1
1c0003e8:	4505                	li	a0,1
  sw          x10, UDMA_CHANNEL_SIZE_OFFSET(x12)
1c0003ea:	c248                	sw	a0,4(a2)
  li          x10, UDMA_CHANNEL_CFG_EN
1c0003ec:	4541                	li	a0,16
  sw          x10, UDMA_CHANNEL_CFG_OFFSET(x12)
1c0003ee:	c608                	sw	a0,8(a2)

  j           udma_event_handler_end
1c0003f0:	0b40006f          	j	1c0004a4 <udma_event_handler_end>

1c0003f4 <__rt_fc_socevents_handler>:

  .global __rt_fc_socevents_handler
  .extern pwm_event_handler
__rt_fc_socevents_handler:
// The stack is first adjusted to have stack-based load/store compressed
  add sp, sp, -128
1c0003f4:	7119                	addi	sp,sp,-128
  sw  x8, 0(sp)
1c0003f6:	c022                	sw	s0,0(sp)
  sw  x9, 4(sp)
1c0003f8:	c226                	sw	s1,4(sp)
  sw  x10, 8(sp)
1c0003fa:	c42a                	sw	a0,8(sp)
  sw  x11, 12(sp)
1c0003fc:	c62e                	sw	a1,12(sp)
  sw  x12, 16(sp)
1c0003fe:	c832                	sw	a2,16(sp)


  // Pop one element from the FIFO
  li  x8, ARCHI_EU_ADDR + EU_SOC_EVENTS_AREA_OFFSET + EU_SOC_EVENTS_CURRENT_EVENT
1c000400:	00201437          	lui	s0,0x201
1c000404:	f0040413          	addi	s0,s0,-256 # 200f00 <__L2+0x180f00>
  lw  x8, 0(x8)
1c000408:	4000                	lw	s0,0(s0)

  // Now that we popped the element, we can clear the soc event FIFO event as the FIFO is generating
  // an event as soon as the FIFO is not empty
  li  x9, 1<<PULP_SOC_EVENTS_EVENT
1c00040a:	080004b7          	lui	s1,0x8000
  li  x10, ARCHI_EU_DEMUX_ADDR + EU_CORE_BUFFER_CLEAR
1c00040e:	00204537          	lui	a0,0x204
1c000412:	02850513          	addi	a0,a0,40 # 204028 <__L2+0x184028>
  sw  x9, 0(x10)
1c000416:	c104                	sw	s1,0(a0)
  // Due to a HW bug in the core on Gap, we have to load this value early
#ifdef CONFIG_NO_FC_TINY
  la    x12, __rt_hyper_udma_handle
  lw    x12, 0(x12)
#else
  lw    x12, %tiny(__rt_hyper_udma_handle)(x0)
1c000418:	30802603          	lw	a2,776(zero) # 308 <__rt_hyper_udma_handle>
#endif
#endif

  // Extract ID part
  p.extractu x10, x8, EU_SOC_EVENTS_EVENT_MASK_BITS-1, EU_SOC_EVENTS_EVENT_MASK_OFFSET
1c00041c:	ce041533          	p.extractu	a0,s0,7,0

#ifdef ARCHI_UDMA_HAS_HYPER
  p.bneimm x10, UDMA_EVENT_ID(ARCHI_UDMA_HYPER_ID(0)), __rt_fc_socevents_not_hyper_rx
1c000420:	00653363          	p.bneimm	a0,6,1c000426 <__rt_fc_socevents_not_hyper_rx>
  jr x12
1c000424:	8602                	jr	a2

1c000426 <__rt_fc_socevents_not_hyper_rx>:

__rt_fc_socevents_not_hyper_rx:
  p.bneimm x10, UDMA_EVENT_ID(ARCHI_UDMA_HYPER_ID(0))+1, __rt_fc_socevents_not_hyper_tx
1c000426:	00753363          	p.bneimm	a0,7,1c00042c <__rt_fc_socevents_not_hyper_tx>
  jr x12
1c00042a:	8602                	jr	a2

1c00042c <__rt_fc_socevents_not_hyper_tx>:
#endif

__rt_fc_socevents_not_hyper_tx:

  // UDMA CHANNEL EVENTS
  li x9, ARCHI_SOC_EVENT_UDMA_NB_EVT
1c00042c:	44cd                	li	s1,19
  bge x10, x9, __rt_soc_evt_no_udma_channel
1c00042e:	00955c63          	ble	s1,a0,1c000446 <__rt_soc_evt_no_udma_channel>
  andi   x8, x10, 1
  srli   x10, x10, 1
  or     x10, x10, x8
#endif

  la     x8, periph_channels
1c000432:	e4000417          	auipc	s0,0xe4000
1c000436:	bfe40413          	addi	s0,s0,-1026 # 30 <periph_channels>
  slli   x9, x10, RT_PERIPH_CHANNEL_T_SIZEOF_LOG2
1c00043a:	00551493          	slli	s1,a0,0x5
  add    x9, x9, x8
1c00043e:	94a2                	add	s1,s1,s0

  lw   x11, RT_PERIPH_CHANNEL_T_CALLBACK(x9)
1c000440:	4ccc                	lw	a1,28(s1)
  lw   x8, RT_PERIPH_CHANNEL_T_FIRST(x9)
1c000442:	4080                	lw	s0,0(s1)

  jr   x11
1c000444:	8582                	jr	a1

1c000446 <__rt_soc_evt_no_udma_channel>:


__rt_soc_evt_no_udma_channel:

  li x9, ARCHI_SOC_EVENT_UDMA_FIRST_EXTRA_EVT + ARCHI_SOC_EVENT_UDMA_NB_EXTRA_EVT
1c000446:	44f9                	li	s1,30
  bge x10, x9, __rt_soc_evt_no_udma
1c000448:	00955b63          	ble	s1,a0,1c00045e <__rt_soc_evt_no_udma>

  addi x8, x10, -ARCHI_SOC_EVENT_UDMA_FIRST_EXTRA_EVT
1c00044c:	fec50413          	addi	s0,a0,-20
  slli x11, x8, 2
1c000450:	00241593          	slli	a1,s0,0x2
  la   x12, __rt_udma_extra_callback
  p.lw x12, x12(x11)
  la   x9, __rt_udma_extra_callback_arg
  p.lw x11, x9(x11)
#else
  lw   x12, %tiny(__rt_udma_extra_callback)(x11)
1c000454:	2b85a603          	lw	a2,696(a1)
  lw   x11, %tiny(__rt_udma_extra_callback_arg)(x11)
1c000458:	2e05a583          	lw	a1,736(a1)
#endif

  jr   x12
1c00045c:	8602                	jr	a2

1c00045e <__rt_soc_evt_no_udma>:

  .global __rt_soc_evt_no_udma
__rt_soc_evt_no_udma:
#ifdef RT_CONFIG_GPIO_ENABLED
  // GPIO EVENT
  li      x9, ARCHI_SOC_EVENT_GPIO
1c00045e:	02a00493          	li	s1,42
  beq     x10, x9, __rt_gpio_handler
1c000462:	00951463          	bne	a0,s1,1c00046a <__rt_soc_evt_no_udma+0xc>
1c000466:	0860006f          	j	1c0004ec <__rt_gpio_handler>
#endif

  li      x9, ARCHI_SOC_EVENT_RTC_IRQ
1c00046a:	02c00493          	li	s1,44
  beq     x9, x10, rtc_event_handler
1c00046e:	04a48363          	beq	s1,a0,1c0004b4 <rtc_event_handler>

1c000472 <__rt_soc_evt_pwm>:


// pwm event handler
//x9 : nb of event that will be used by handler
__rt_soc_evt_pwm:
  li x11, ARCHI_SOC_EVENT_ADV_TIMER_NB_EVT-1 // 3
1c000472:	458d                	li	a1,3
  addi x9, x11, ARCHI_SOC_EVENT_ADV_TIMER_FIRST_EVT //3+38=41
1c000474:	02658493          	addi	s1,a1,38
  sub x9, x9, x10 // 41 - 56
1c000478:	8c89                	sub	s1,s1,a0
  bgt x9, x11, __rt_soc_evt_store // if > 3 not for pwm
1c00047a:	0095c663          	blt	a1,s1,1c000486 <__rt_soc_evt_store>
  blt x9, x0,  __rt_soc_evt_store // if > 3 not for pwm
1c00047e:	0004c463          	bltz	s1,1c000486 <__rt_soc_evt_store>
  j pwm_event_handler
1c000482:	0460006f          	j	1c0004c8 <pwm_event_handler>

1c000486 <__rt_soc_evt_store>:


__rt_soc_evt_store:
  // If the event is not handled, store it in the soc event status mask
  la      x9, __rt_socevents_status
1c000486:	e4000497          	auipc	s1,0xe4000
1c00048a:	e2a48493          	addi	s1,s1,-470 # 2b0 <__rt_socevents_status>
  li      x11, 32
1c00048e:	02000593          	li	a1,32
  blt     x10, x11, socevents_set
1c000492:	00b54463          	blt	a0,a1,1c00049a <socevents_set>
  addi    x9, x9, 4
1c000496:	0491                	addi	s1,s1,4
  addi    x10, x10, -32
1c000498:	1501                	addi	a0,a0,-32

1c00049a <socevents_set>:

socevents_set:
  lw      x11, 0(x9)
1c00049a:	408c                	lw	a1,0(s1)
  p.bsetr x12, x11, x10
1c00049c:	80a5c633          	p.bsetr	a2,a1,a0
  sw      x12, 0(x9)
1c0004a0:	c090                	sw	a2,0(s1)
  j       udma_event_handler_end
1c0004a2:	a009                	j	1c0004a4 <udma_event_handler_end>

1c0004a4 <udma_event_handler_end>:

  .global udma_event_handler_end
udma_event_handler_end:
  lw  x8, 0(sp)
1c0004a4:	4402                	lw	s0,0(sp)
  lw  x9, 4(sp)
1c0004a6:	4492                	lw	s1,4(sp)
  lw  x10, 8(sp)
1c0004a8:	4522                	lw	a0,8(sp)
  lw  x11, 12(sp)
1c0004aa:	45b2                	lw	a1,12(sp)
  lw  x12, 16(sp)
1c0004ac:	4642                	lw	a2,16(sp)
  add sp, sp, 128
1c0004ae:	6109                	addi	sp,sp,128
  mret
1c0004b0:	30200073          	mret

1c0004b4 <rtc_event_handler>:


rtc_event_handler:
  lw    x11, __rtc_handler
1c0004b4:	e4000597          	auipc	a1,0xe4000
1c0004b8:	edc5a583          	lw	a1,-292(a1) # 390 <__rtc_handler>
  la    x9, udma_event_handler_end
1c0004bc:	00000497          	auipc	s1,0x0
1c0004c0:	fe848493          	addi	s1,s1,-24 # 1c0004a4 <udma_event_handler_end>
  j   __rt_event_enqueue
1c0004c4:	c4bff06f          	j	1c00010e <__rt_event_enqueue>

1c0004c8 <pwm_event_handler>:
#include "archi/eu/eu_v3.h"

  .global pwm_event_handler
  .extern pwmEventsStatus
pwm_event_handler:
  la   x10, pwmEventsStatus
1c0004c8:	e4000517          	auipc	a0,0xe4000
1c0004cc:	e8c50513          	addi	a0,a0,-372 # 354 <pwmEventsStatus>
  addi  x11, x0, 1
1c0004d0:	00100593          	li	a1,1
  lw   x8, 0(x10)
1c0004d4:	4100                	lw	s0,0(a0)
  p.insertr x8, x11, x9
1c0004d6:	8095a433          	p.insertr	s0,a1,s1
  sw   x8, 0(x10)
1c0004da:	c100                	sw	s0,0(a0)

  // continue with sw event raising
  li   x9, ARCHI_EU_DEMUX_ADDR + EU_SW_EVENTS_DEMUX_OFFSET + EU_CORE_TRIGG_SW_EVENT + (PLP_RT_NOTIF_EVENT << 2)
1c0004dc:	002044b7          	lui	s1,0x204
1c0004e0:	10c48493          	addi	s1,s1,268 # 20410c <__L2+0x18410c>
  li   x10, -1
1c0004e4:	557d                	li	a0,-1
  sw   x10, 0(x9)
1c0004e6:	c088                	sw	a0,0(s1)

  j udma_event_handler_end
1c0004e8:	fbdff06f          	j	1c0004a4 <udma_event_handler_end>

1c0004ec <__rt_gpio_handler>:
  bnez     x8, __rt_gpio_ff1_loop
#endif

#else
  .extern __pi_gpio_handler
  mv        x11, x8
1c0004ec:	85a2                	mv	a1,s0
  la        x12, __pi_gpio_handler
1c0004ee:	00005617          	auipc	a2,0x5
1c0004f2:	0bc60613          	addi	a2,a2,188 # 1c0055aa <__pi_gpio_handler>
  la        x9, __rt_gpio_handler_end
1c0004f6:	00000497          	auipc	s1,0x0
1c0004fa:	00c48493          	addi	s1,s1,12 # 1c000502 <__rt_gpio_handler_end>
  j         __rt_call_external_c_function
1c0004fe:	d03ff06f          	j	1c000200 <__rt_call_external_c_function>

1c000502 <__rt_gpio_handler_end>:

  mret

#else

  j udma_event_handler_end
1c000502:	fa3ff06f          	j	1c0004a4 <udma_event_handler_end>

1c000506 <__rt_hyper_handle_copy>:
#if PULP_CHIP == CHIP_GAP8_REVC

  // x9: channel, x10: event, x8,x11,x12:temp
  .global __rt_hyper_handle_copy
__rt_hyper_handle_copy:
  sw  x8, -4(sp)
1c000506:	fe812e23          	sw	s0,-4(sp)
  add sp, sp, -128
1c00050a:	7119                	addi	sp,sp,-128

#ifdef CONFIG_NO_FC_TINY
  la    x12, __rt_hyper_pending_repeat
  lw    x12, 0(x12)
#else
  lw    x12, %tiny(__rt_hyper_pending_repeat)(x0)
1c00050c:	31802603          	lw	a2,792(zero) # 318 <__rt_hyper_pending_repeat>
#endif
  beqz      x12, __rt_hyper_handle_copy_end
1c000510:	c229                	beqz	a2,1c000552 <__rt_hyper_handle_copy_end>

1c000512 <__rt_hyper_repeat_copy>:

#ifdef CONFIG_NO_FC_TINY
  la        x11, __rt_hyper_pending_base
  lw        x11, 0(x11)
#else
  lw        x11, %tiny(__rt_hyper_pending_base)(x0)
1c000512:	30c02583          	lw	a1,780(zero) # 30c <__rt_hyper_pending_base>
#else
#ifdef CONFIG_NO_FC_TINY
  la        x10, __rt_hyper_pending_hyper_addr
  lw        x10, 0(x10)
#else
  lw        x10, %tiny(__rt_hyper_pending_hyper_addr)(x0)
1c000516:	31002503          	lw	a0,784(zero) # 310 <__rt_hyper_pending_hyper_addr>
#endif
  p.bclr    x9, x11, 0, UDMA_CHANNEL_SIZE_LOG2
1c00051a:	c045b4b3          	p.bclr	s1,a1,0,4
#endif
  add       x10, x10, x12
1c00051e:	9532                	add	a0,a0,a2
  sw        x10, HYPER_EXT_ADDR_CHANNEL_CUSTOM_OFFSET(x9)
1c000520:	d088                	sw	a0,32(s1)
#ifdef CONFIG_NO_FC_TINY
  la        x10, __rt_hyper_pending_hyper_addr
  sw        x10, 0(x10)
#else
  sw        x10, %tiny(__rt_hyper_pending_hyper_addr)(x0)
1c000522:	30a02823          	sw	a0,784(zero) # 310 <__rt_hyper_pending_hyper_addr>
  la        x10, __rt_hyper_pending_addr
  lw        x10, 0(x10)
  la        x9, __rt_hyper_pending_repeat_size
  lw        x9, 0(x9)
#else
  lw        x10, %tiny(__rt_hyper_pending_addr)(x0)
1c000526:	31402503          	lw	a0,788(zero) # 314 <__rt_hyper_pending_addr>
  lw        x9, %tiny(__rt_hyper_pending_repeat_size)(x0)
1c00052a:	31c02483          	lw	s1,796(zero) # 31c <__rt_hyper_pending_repeat_size>
#endif
  add       x10, x10, x12
1c00052e:	9532                	add	a0,a0,a2
  sub       x9, x9, x12
1c000530:	8c91                	sub	s1,s1,a2
  blt       x12, x9, __rt_hyper_repeat_copy_not_last
1c000532:	00964763          	blt	a2,s1,1c000540 <__rt_hyper_repeat_copy_not_last>
  mv        x12, x9
1c000536:	8626                	mv	a2,s1
#ifdef CONFIG_NO_FC_TINY
  la        x8, __rt_hyper_pending_repeat
  sw        x0, 0(x8)
#else
  sw        x0, %tiny(__rt_hyper_pending_repeat)(x0)
1c000538:	30002c23          	sw	zero,792(zero) # 318 <__rt_hyper_pending_repeat>
#endif
  beq       x12, x0, udma_event_handler_end_hyper
1c00053c:	04060e63          	beqz	a2,1c000598 <udma_event_handler_end_hyper>

1c000540 <__rt_hyper_repeat_copy_not_last>:
  la        x8, __rt_hyper_pending_addr
  sw        x10, 0(x8)
  la        x8, __rt_hyper_pending_repeat_size
  sw        x9, 0(x8)
#else
  sw        x10, %tiny(__rt_hyper_pending_addr)(x0)
1c000540:	30a02a23          	sw	a0,788(zero) # 314 <__rt_hyper_pending_addr>
  sw        x9, %tiny(__rt_hyper_pending_repeat_size)(x0)
1c000544:	30902e23          	sw	s1,796(zero) # 31c <__rt_hyper_pending_repeat_size>
#endif
  sw        x10, UDMA_CHANNEL_SADDR_OFFSET(x11)
1c000548:	c188                	sw	a0,0(a1)
  sw        x12, UDMA_CHANNEL_SIZE_OFFSET(x11)
1c00054a:	c1d0                	sw	a2,4(a1)

  li        x10, UDMA_CHANNEL_CFG_EN
1c00054c:	4541                	li	a0,16
  sw        x10, UDMA_CHANNEL_CFG_OFFSET(x11)
1c00054e:	c588                	sw	a0,8(a1)

  j         udma_event_handler_end_hyper
1c000550:	a0a1                	j	1c000598 <udma_event_handler_end_hyper>

1c000552 <__rt_hyper_handle_copy_end>:
#ifdef CONFIG_NO_FC_TINY
  la        x8, __rt_hyper_end_task
  lw        x11, 0(x8)
  sw        x0, 0(x8)
#else
  lw        x11, %tiny(__rt_hyper_end_task)(x0)
1c000552:	32002583          	lw	a1,800(zero) # 320 <__rt_hyper_end_task>
  sw        x0, %tiny(__rt_hyper_end_task)(x0)
1c000556:	32002023          	sw	zero,800(zero) # 320 <__rt_hyper_end_task>
#endif
  beqz      x11, __rt_hyper_handle_emu_task
1c00055a:	c589                	beqz	a1,1c000564 <__rt_hyper_handle_emu_task>
#ifdef CONFIG_NO_FC_TINY
  la        x8, __rt_hyper_current_task
  sw        x0, 0(x8)
#else
  sw        x0, %tiny(__rt_hyper_current_task)(x0)
1c00055c:	32002223          	sw	zero,804(zero) # 324 <__rt_hyper_current_task>
#endif
  jal       x9, __rt_event_enqueue
1c000560:	bafff4ef          	jal	s1,1c00010e <__rt_event_enqueue>

1c000564 <__rt_hyper_handle_emu_task>:
__rt_hyper_handle_emu_task:
#ifdef CONFIG_NO_FC_TINY
  la        x8, __rt_hyper_pending_emu_task
  lw        x10, 0(x8)
#else
  lw        x10, %tiny(__rt_hyper_pending_emu_task)(x0)
1c000564:	33c02503          	lw	a0,828(zero) # 33c <__rt_hyper_pending_emu_task>
#endif
  beqz      x10, __rt_hyper_handle_pending_tasks
1c000568:	c919                	beqz	a0,1c00057e <__rt_hyper_handle_pending_tasks>

  la      x12, __rt_hyper_resume_emu_task
1c00056a:	00005617          	auipc	a2,0x5
1c00056e:	fe460613          	addi	a2,a2,-28 # 1c00554e <__rt_hyper_resume_emu_task>
  la        x9, udma_event_handler_end_hyper
1c000572:	00000497          	auipc	s1,0x0
1c000576:	02648493          	addi	s1,s1,38 # 1c000598 <udma_event_handler_end_hyper>
  j         __rt_call_external_c_function
1c00057a:	c87ff06f          	j	1c000200 <__rt_call_external_c_function>

1c00057e <__rt_hyper_handle_pending_tasks>:
__rt_hyper_handle_pending_tasks:
#ifdef CONFIG_NO_FC_TINY
  la        x8, __rt_hyper_pending_tasks
  lw        x10, 0(x8)
#else
  lw        x10, %tiny(__rt_hyper_pending_tasks)(x0)
1c00057e:	34002503          	lw	a0,832(zero) # 340 <__rt_hyper_pending_tasks>
#endif
  beqz      x10, udma_event_handler_end_hyper
1c000582:	c919                	beqz	a0,1c000598 <udma_event_handler_end_hyper>

  la      x12, __rt_hyper_resume_copy
1c000584:	00005617          	auipc	a2,0x5
1c000588:	fd260613          	addi	a2,a2,-46 # 1c005556 <__rt_hyper_resume_copy>
  la        x9, udma_event_handler_end_hyper
1c00058c:	00000497          	auipc	s1,0x0
1c000590:	00c48493          	addi	s1,s1,12 # 1c000598 <udma_event_handler_end_hyper>
  j         __rt_call_external_c_function
1c000594:	c6dff06f          	j	1c000200 <__rt_call_external_c_function>

1c000598 <udma_event_handler_end_hyper>:

  .global udma_event_handler_end_hyper
udma_event_handler_end_hyper:
  add sp, sp, 128
1c000598:	6109                	addi	sp,sp,128
  lw  x8, -4(sp)
1c00059a:	ffc12403          	lw	s0,-4(sp)
  lw  x9, -8(sp)
1c00059e:	ff812483          	lw	s1,-8(sp)
  lw  x10, -12(sp)
1c0005a2:	ff412503          	lw	a0,-12(sp)
  lw  x11, -16(sp)
1c0005a6:	ff012583          	lw	a1,-16(sp)
  lw  x12, -20(sp)
1c0005aa:	fec12603          	lw	a2,-20(sp)
  mret
1c0005ae:	30200073          	mret

1c0005b2 <__rt_hyper_handler>:



  .global __rt_hyper_handler
__rt_hyper_handler:
  sw  x9, -8(sp)
1c0005b2:	fe912c23          	sw	s1,-8(sp)
  sw  x10, -12(sp)
1c0005b6:	fea12a23          	sw	a0,-12(sp)
  sw  x12, -20(sp)
1c0005ba:	fec12623          	sw	a2,-20(sp)
#ifdef CONFIG_NO_FC_TINY
  la        x8, __rt_hyper_udma_handle
  lw        x12, 0(x8)
#else
  lw        x12, %tiny(__rt_hyper_udma_handle)(x0)
1c0005be:	30802603          	lw	a2,776(zero) # 308 <__rt_hyper_udma_handle>
#endif
  sw  x11, -16(sp)
1c0005c2:	feb12823          	sw	a1,-16(sp)
  jr        x12
1c0005c6:	8602                	jr	a2

1c0005c8 <__rt_hyper_handle_burst>:
  la        x8, __rt_hyper_pending_repeat
  lw        x12, 0(x8)
  la        x8, __rt_hyper_pending_base
  lw        x11, 0(x8)
#else
  lw        x12, %tiny(__rt_hyper_pending_repeat)(x0)
1c0005c8:	31802603          	lw	a2,792(zero) # 318 <__rt_hyper_pending_repeat>

  lw        x11, %tiny(__rt_hyper_pending_base)(x0)
1c0005cc:	30c02583          	lw	a1,780(zero) # 30c <__rt_hyper_pending_base>
#else
#ifdef CONFIG_NO_FC_TINY
  la        x8, __rt_hyper_pending_hyper_addr
  lw        x10, 0(x8)
#else
  lw        x10, %tiny(__rt_hyper_pending_hyper_addr)(x0)
1c0005d0:	31002503          	lw	a0,784(zero) # 310 <__rt_hyper_pending_hyper_addr>
#endif
  p.bclr    x9, x11, 0, UDMA_CHANNEL_SIZE_LOG2
1c0005d4:	c045b4b3          	p.bclr	s1,a1,0,4
#endif
  add       x10, x10, x12
1c0005d8:	9532                	add	a0,a0,a2
  sw        x10, HYPER_EXT_ADDR_CHANNEL_CUSTOM_OFFSET(x9)
1c0005da:	d088                	sw	a0,32(s1)
  la        x8, __rt_hyper_pending_addr
  lw        x10, 0(x8)
  la        x8, __rt_hyper_pending_repeat_size
  lw        x9, 0(x8)
#else
  sw        x10, %tiny(__rt_hyper_pending_hyper_addr)(x0)
1c0005dc:	30a02823          	sw	a0,784(zero) # 310 <__rt_hyper_pending_hyper_addr>

  lw        x10, %tiny(__rt_hyper_pending_addr)(x0)
1c0005e0:	31402503          	lw	a0,788(zero) # 314 <__rt_hyper_pending_addr>
  lw        x9, %tiny(__rt_hyper_pending_repeat_size)(x0)
1c0005e4:	31c02483          	lw	s1,796(zero) # 31c <__rt_hyper_pending_repeat_size>
#endif
  add       x10, x10, x12
1c0005e8:	9532                	add	a0,a0,a2
  sub       x9, x9, x12
1c0005ea:	8c91                	sub	s1,s1,a2
  bge       x12, x9, __rt_hyper_repeat_copy_last3
1c0005ec:	02965463          	ble	s1,a2,1c000614 <__rt_hyper_repeat_copy_last3>

1c0005f0 <__rt_hyper_repeat_copy_not_last3>:
  la        x8, __rt_hyper_pending_addr
  sw        x10, 0(x8)
  la        x8, __rt_hyper_pending_repeat_size
  sw        x9, 0(x8)
#else
  sw        x10, %tiny(__rt_hyper_pending_addr)(x0)
1c0005f0:	30a02a23          	sw	a0,788(zero) # 314 <__rt_hyper_pending_addr>
  sw        x9, %tiny(__rt_hyper_pending_repeat_size)(x0)
1c0005f4:	30902e23          	sw	s1,796(zero) # 31c <__rt_hyper_pending_repeat_size>
#endif
  sw        x10, UDMA_CHANNEL_SADDR_OFFSET(x11)
1c0005f8:	c188                	sw	a0,0(a1)
  sw        x12, UDMA_CHANNEL_SIZE_OFFSET(x11)
1c0005fa:	c1d0                	sw	a2,4(a1)

  li        x10, UDMA_CHANNEL_CFG_EN
1c0005fc:	4541                	li	a0,16
  sw        x10, UDMA_CHANNEL_CFG_OFFSET(x11)
1c0005fe:	c588                	sw	a0,8(a1)

  lw  x9, -8(sp)
1c000600:	ff812483          	lw	s1,-8(sp)
  lw  x10, -12(sp)
1c000604:	ff412503          	lw	a0,-12(sp)
  lw  x11, -16(sp)
1c000608:	ff012583          	lw	a1,-16(sp)
  lw  x12, -20(sp)
1c00060c:	fec12603          	lw	a2,-20(sp)
  mret
1c000610:	30200073          	mret

1c000614 <__rt_hyper_repeat_copy_last3>:

__rt_hyper_repeat_copy_last3:
  la        x12, __rt_hyper_handle_copy
1c000614:	00000617          	auipc	a2,0x0
1c000618:	ef260613          	addi	a2,a2,-270 # 1c000506 <__rt_hyper_handle_copy>
#ifdef CONFIG_NO_FC_TINY
  la        x8, __rt_hyper_udma_handle
  sw        x12, 0(x8)
#else
  sw        x12, %tiny(__rt_hyper_udma_handle)(x0)
1c00061c:	30c02423          	sw	a2,776(zero) # 308 <__rt_hyper_udma_handle>
#endif

  mv        x12, x9
1c000620:	8626                	mv	a2,s1
#ifdef CONFIG_NO_FC_TINY
  la        x8, __rt_hyper_pending_repeat
  sw        x0, 0(x8)
#else
  sw        x0, %tiny(__rt_hyper_pending_repeat)(x0)
1c000622:	30002c23          	sw	zero,792(zero) # 318 <__rt_hyper_pending_repeat>
#endif
  beq       x12, x0, udma_event_handler_end
1c000626:	00061463          	bnez	a2,1c00062e <__rt_hyper_repeat_copy_last3+0x1a>
1c00062a:	e7bff06f          	j	1c0004a4 <udma_event_handler_end>

  j         __rt_hyper_repeat_copy_not_last3
1c00062e:	b7c9                	j	1c0005f0 <__rt_hyper_repeat_copy_not_last3>

1c000630 <__udivdi3>:
1c000630:	87b2                	mv	a5,a2
1c000632:	8736                	mv	a4,a3
1c000634:	88aa                	mv	a7,a0
1c000636:	882e                	mv	a6,a1
1c000638:	1e069d63          	bnez	a3,1c000832 <__udivdi3+0x202>
1c00063c:	1c007337          	lui	t1,0x1c007
1c000640:	0d030313          	addi	t1,t1,208 # 1c0070d0 <__clz_tab>
1c000644:	0ac5fd63          	bleu	a2,a1,1c0006fe <__udivdi3+0xce>
1c000648:	6741                	lui	a4,0x10
1c00064a:	0ae67363          	bleu	a4,a2,1c0006f0 <__udivdi3+0xc0>
1c00064e:	0ff00693          	li	a3,255
1c000652:	00c6b6b3          	sltu	a3,a3,a2
1c000656:	068e                	slli	a3,a3,0x3
1c000658:	00d65733          	srl	a4,a2,a3
1c00065c:	933a                	add	t1,t1,a4
1c00065e:	00034703          	lbu	a4,0(t1)
1c000662:	02000313          	li	t1,32
1c000666:	96ba                	add	a3,a3,a4
1c000668:	40d30333          	sub	t1,t1,a3
1c00066c:	00030c63          	beqz	t1,1c000684 <__udivdi3+0x54>
1c000670:	00659733          	sll	a4,a1,t1
1c000674:	00d556b3          	srl	a3,a0,a3
1c000678:	006617b3          	sll	a5,a2,t1
1c00067c:	00e6e833          	or	a6,a3,a4
1c000680:	006518b3          	sll	a7,a0,t1
1c000684:	0107d513          	srli	a0,a5,0x10
1c000688:	02a85733          	divu	a4,a6,a0
1c00068c:	1007d5b3          	p.exthz	a1,a5
1c000690:	0108d693          	srli	a3,a7,0x10
1c000694:	02a87633          	remu	a2,a6,a0
1c000698:	02e58833          	mul	a6,a1,a4
1c00069c:	0642                	slli	a2,a2,0x10
1c00069e:	8ed1                	or	a3,a3,a2
1c0006a0:	863a                	mv	a2,a4
1c0006a2:	0106fc63          	bleu	a6,a3,1c0006ba <__udivdi3+0x8a>
1c0006a6:	96be                	add	a3,a3,a5
1c0006a8:	fff70613          	addi	a2,a4,-1 # ffff <__l1_heap_size+0x1f>
1c0006ac:	00f6e763          	bltu	a3,a5,1c0006ba <__udivdi3+0x8a>
1c0006b0:	0106f563          	bleu	a6,a3,1c0006ba <__udivdi3+0x8a>
1c0006b4:	ffe70613          	addi	a2,a4,-2
1c0006b8:	96be                	add	a3,a3,a5
1c0006ba:	410686b3          	sub	a3,a3,a6
1c0006be:	02a6f833          	remu	a6,a3,a0
1c0006c2:	02a6d6b3          	divu	a3,a3,a0
1c0006c6:	df0828b3          	p.insert	a7,a6,15,16
1c0006ca:	02d58733          	mul	a4,a1,a3
1c0006ce:	8536                	mv	a0,a3
1c0006d0:	00e8fb63          	bleu	a4,a7,1c0006e6 <__udivdi3+0xb6>
1c0006d4:	98be                	add	a7,a7,a5
1c0006d6:	fff68513          	addi	a0,a3,-1
1c0006da:	00f8e663          	bltu	a7,a5,1c0006e6 <__udivdi3+0xb6>
1c0006de:	00e8f463          	bleu	a4,a7,1c0006e6 <__udivdi3+0xb6>
1c0006e2:	ffe68513          	addi	a0,a3,-2
1c0006e6:	01061793          	slli	a5,a2,0x10
1c0006ea:	8fc9                	or	a5,a5,a0
1c0006ec:	4801                	li	a6,0
1c0006ee:	a06d                	j	1c000798 <__udivdi3+0x168>
1c0006f0:	01000737          	lui	a4,0x1000
1c0006f4:	46c1                	li	a3,16
1c0006f6:	f6e661e3          	bltu	a2,a4,1c000658 <__udivdi3+0x28>
1c0006fa:	46e1                	li	a3,24
1c0006fc:	bfb1                	j	1c000658 <__udivdi3+0x28>
1c0006fe:	e601                	bnez	a2,1c000706 <__udivdi3+0xd6>
1c000700:	4685                	li	a3,1
1c000702:	02c6d7b3          	divu	a5,a3,a2
1c000706:	66c1                	lui	a3,0x10
1c000708:	08d7fb63          	bleu	a3,a5,1c00079e <__udivdi3+0x16e>
1c00070c:	0ff00693          	li	a3,255
1c000710:	00f6f363          	bleu	a5,a3,1c000716 <__udivdi3+0xe6>
1c000714:	4721                	li	a4,8
1c000716:	00e7d6b3          	srl	a3,a5,a4
1c00071a:	9336                	add	t1,t1,a3
1c00071c:	00034683          	lbu	a3,0(t1)
1c000720:	02000613          	li	a2,32
1c000724:	96ba                	add	a3,a3,a4
1c000726:	8e15                	sub	a2,a2,a3
1c000728:	e251                	bnez	a2,1c0007ac <__udivdi3+0x17c>
1c00072a:	40f58733          	sub	a4,a1,a5
1c00072e:	4805                	li	a6,1
1c000730:	0107d513          	srli	a0,a5,0x10
1c000734:	1007d5b3          	p.exthz	a1,a5
1c000738:	0108d693          	srli	a3,a7,0x10
1c00073c:	02a77633          	remu	a2,a4,a0
1c000740:	02a75733          	divu	a4,a4,a0
1c000744:	0642                	slli	a2,a2,0x10
1c000746:	8ed1                	or	a3,a3,a2
1c000748:	02e58333          	mul	t1,a1,a4
1c00074c:	863a                	mv	a2,a4
1c00074e:	0066fc63          	bleu	t1,a3,1c000766 <__udivdi3+0x136>
1c000752:	96be                	add	a3,a3,a5
1c000754:	fff70613          	addi	a2,a4,-1 # ffffff <__L2+0xf7ffff>
1c000758:	00f6e763          	bltu	a3,a5,1c000766 <__udivdi3+0x136>
1c00075c:	0066f563          	bleu	t1,a3,1c000766 <__udivdi3+0x136>
1c000760:	ffe70613          	addi	a2,a4,-2
1c000764:	96be                	add	a3,a3,a5
1c000766:	406686b3          	sub	a3,a3,t1
1c00076a:	02a6f333          	remu	t1,a3,a0
1c00076e:	02a6d6b3          	divu	a3,a3,a0
1c000772:	df0328b3          	p.insert	a7,t1,15,16
1c000776:	02d58733          	mul	a4,a1,a3
1c00077a:	8536                	mv	a0,a3
1c00077c:	00e8fb63          	bleu	a4,a7,1c000792 <__udivdi3+0x162>
1c000780:	98be                	add	a7,a7,a5
1c000782:	fff68513          	addi	a0,a3,-1 # ffff <__l1_heap_size+0x1f>
1c000786:	00f8e663          	bltu	a7,a5,1c000792 <__udivdi3+0x162>
1c00078a:	00e8f463          	bleu	a4,a7,1c000792 <__udivdi3+0x162>
1c00078e:	ffe68513          	addi	a0,a3,-2
1c000792:	01061793          	slli	a5,a2,0x10
1c000796:	8fc9                	or	a5,a5,a0
1c000798:	853e                	mv	a0,a5
1c00079a:	85c2                	mv	a1,a6
1c00079c:	8082                	ret
1c00079e:	010006b7          	lui	a3,0x1000
1c0007a2:	4741                	li	a4,16
1c0007a4:	f6d7e9e3          	bltu	a5,a3,1c000716 <__udivdi3+0xe6>
1c0007a8:	4761                	li	a4,24
1c0007aa:	b7b5                	j	1c000716 <__udivdi3+0xe6>
1c0007ac:	00c797b3          	sll	a5,a5,a2
1c0007b0:	00d5d333          	srl	t1,a1,a3
1c0007b4:	0107de13          	srli	t3,a5,0x10
1c0007b8:	00c59733          	sll	a4,a1,a2
1c0007bc:	00c518b3          	sll	a7,a0,a2
1c0007c0:	00d555b3          	srl	a1,a0,a3
1c0007c4:	03c35533          	divu	a0,t1,t3
1c0007c8:	8dd9                	or	a1,a1,a4
1c0007ca:	1007d733          	p.exthz	a4,a5
1c0007ce:	0105d693          	srli	a3,a1,0x10
1c0007d2:	03c37633          	remu	a2,t1,t3
1c0007d6:	882a                	mv	a6,a0
1c0007d8:	02a70333          	mul	t1,a4,a0
1c0007dc:	0642                	slli	a2,a2,0x10
1c0007de:	8ed1                	or	a3,a3,a2
1c0007e0:	0066fc63          	bleu	t1,a3,1c0007f8 <__udivdi3+0x1c8>
1c0007e4:	96be                	add	a3,a3,a5
1c0007e6:	fff50813          	addi	a6,a0,-1
1c0007ea:	00f6e763          	bltu	a3,a5,1c0007f8 <__udivdi3+0x1c8>
1c0007ee:	0066f563          	bleu	t1,a3,1c0007f8 <__udivdi3+0x1c8>
1c0007f2:	ffe50813          	addi	a6,a0,-2
1c0007f6:	96be                	add	a3,a3,a5
1c0007f8:	406686b3          	sub	a3,a3,t1
1c0007fc:	03c6f633          	remu	a2,a3,t3
1c000800:	03c6d6b3          	divu	a3,a3,t3
1c000804:	df0625b3          	p.insert	a1,a2,15,16
1c000808:	02d70733          	mul	a4,a4,a3
1c00080c:	8636                	mv	a2,a3
1c00080e:	00e5fc63          	bleu	a4,a1,1c000826 <__udivdi3+0x1f6>
1c000812:	95be                	add	a1,a1,a5
1c000814:	fff68613          	addi	a2,a3,-1 # ffffff <__L2+0xf7ffff>
1c000818:	00f5e763          	bltu	a1,a5,1c000826 <__udivdi3+0x1f6>
1c00081c:	00e5f563          	bleu	a4,a1,1c000826 <__udivdi3+0x1f6>
1c000820:	ffe68613          	addi	a2,a3,-2
1c000824:	95be                	add	a1,a1,a5
1c000826:	0842                	slli	a6,a6,0x10
1c000828:	40e58733          	sub	a4,a1,a4
1c00082c:	00c86833          	or	a6,a6,a2
1c000830:	b701                	j	1c000730 <__udivdi3+0x100>
1c000832:	12d5ea63          	bltu	a1,a3,1c000966 <__udivdi3+0x336>
1c000836:	67c1                	lui	a5,0x10
1c000838:	02f6fd63          	bleu	a5,a3,1c000872 <__udivdi3+0x242>
1c00083c:	0ff00793          	li	a5,255
1c000840:	00d7b8b3          	sltu	a7,a5,a3
1c000844:	088e                	slli	a7,a7,0x3
1c000846:	1c007737          	lui	a4,0x1c007
1c00084a:	0116d7b3          	srl	a5,a3,a7
1c00084e:	0d070713          	addi	a4,a4,208 # 1c0070d0 <__clz_tab>
1c000852:	97ba                	add	a5,a5,a4
1c000854:	0007c783          	lbu	a5,0(a5) # 10000 <__L1Cl>
1c000858:	02000813          	li	a6,32
1c00085c:	97c6                	add	a5,a5,a7
1c00085e:	40f80833          	sub	a6,a6,a5
1c000862:	00081f63          	bnez	a6,1c000880 <__udivdi3+0x250>
1c000866:	4785                	li	a5,1
1c000868:	f2b6e8e3          	bltu	a3,a1,1c000798 <__udivdi3+0x168>
1c00086c:	04a637b3          	p.sletu	a5,a2,a0
1c000870:	b725                	j	1c000798 <__udivdi3+0x168>
1c000872:	010007b7          	lui	a5,0x1000
1c000876:	48c1                	li	a7,16
1c000878:	fcf6e7e3          	bltu	a3,a5,1c000846 <__udivdi3+0x216>
1c00087c:	48e1                	li	a7,24
1c00087e:	b7e1                	j	1c000846 <__udivdi3+0x216>
1c000880:	00f658b3          	srl	a7,a2,a5
1c000884:	010696b3          	sll	a3,a3,a6
1c000888:	00d8e6b3          	or	a3,a7,a3
1c00088c:	00f5d333          	srl	t1,a1,a5
1c000890:	0106de13          	srli	t3,a3,0x10
1c000894:	00f55733          	srl	a4,a0,a5
1c000898:	03c377b3          	remu	a5,t1,t3
1c00089c:	1006d8b3          	p.exthz	a7,a3
1c0008a0:	010595b3          	sll	a1,a1,a6
1c0008a4:	8f4d                	or	a4,a4,a1
1c0008a6:	01075593          	srli	a1,a4,0x10
1c0008aa:	01061633          	sll	a2,a2,a6
1c0008ae:	03c35333          	divu	t1,t1,t3
1c0008b2:	07c2                	slli	a5,a5,0x10
1c0008b4:	8ddd                	or	a1,a1,a5
1c0008b6:	02688eb3          	mul	t4,a7,t1
1c0008ba:	879a                	mv	a5,t1
1c0008bc:	01d5fc63          	bleu	t4,a1,1c0008d4 <__udivdi3+0x2a4>
1c0008c0:	95b6                	add	a1,a1,a3
1c0008c2:	fff30793          	addi	a5,t1,-1
1c0008c6:	00d5e763          	bltu	a1,a3,1c0008d4 <__udivdi3+0x2a4>
1c0008ca:	01d5f563          	bleu	t4,a1,1c0008d4 <__udivdi3+0x2a4>
1c0008ce:	ffe30793          	addi	a5,t1,-2
1c0008d2:	95b6                	add	a1,a1,a3
1c0008d4:	41d585b3          	sub	a1,a1,t4
1c0008d8:	03c5f333          	remu	t1,a1,t3
1c0008dc:	03c5d5b3          	divu	a1,a1,t3
1c0008e0:	df032733          	p.insert	a4,t1,15,16
1c0008e4:	02b888b3          	mul	a7,a7,a1
1c0008e8:	832e                	mv	t1,a1
1c0008ea:	01177c63          	bleu	a7,a4,1c000902 <__udivdi3+0x2d2>
1c0008ee:	9736                	add	a4,a4,a3
1c0008f0:	fff58313          	addi	t1,a1,-1
1c0008f4:	00d76763          	bltu	a4,a3,1c000902 <__udivdi3+0x2d2>
1c0008f8:	01177563          	bleu	a7,a4,1c000902 <__udivdi3+0x2d2>
1c0008fc:	ffe58313          	addi	t1,a1,-2
1c000900:	9736                	add	a4,a4,a3
1c000902:	07c2                	slli	a5,a5,0x10
1c000904:	6e41                	lui	t3,0x10
1c000906:	0067e7b3          	or	a5,a5,t1
1c00090a:	fffe0593          	addi	a1,t3,-1 # ffff <__l1_heap_size+0x1f>
1c00090e:	00b7f6b3          	and	a3,a5,a1
1c000912:	41170733          	sub	a4,a4,a7
1c000916:	8df1                	and	a1,a1,a2
1c000918:	0107d893          	srli	a7,a5,0x10
1c00091c:	02b68333          	mul	t1,a3,a1
1c000920:	8241                	srli	a2,a2,0x10
1c000922:	02b885b3          	mul	a1,a7,a1
1c000926:	8eae                	mv	t4,a1
1c000928:	42c68eb3          	p.mac	t4,a3,a2
1c00092c:	01035693          	srli	a3,t1,0x10
1c000930:	96f6                	add	a3,a3,t4
1c000932:	02c888b3          	mul	a7,a7,a2
1c000936:	00b6f363          	bleu	a1,a3,1c00093c <__udivdi3+0x30c>
1c00093a:	98f2                	add	a7,a7,t3
1c00093c:	0106d613          	srli	a2,a3,0x10
1c000940:	98b2                	add	a7,a7,a2
1c000942:	03176063          	bltu	a4,a7,1c000962 <__udivdi3+0x332>
1c000946:	db1713e3          	bne	a4,a7,1c0006ec <__udivdi3+0xbc>
1c00094a:	6741                	lui	a4,0x10
1c00094c:	177d                	addi	a4,a4,-1
1c00094e:	8ef9                	and	a3,a3,a4
1c000950:	06c2                	slli	a3,a3,0x10
1c000952:	00e37333          	and	t1,t1,a4
1c000956:	01051533          	sll	a0,a0,a6
1c00095a:	969a                	add	a3,a3,t1
1c00095c:	4801                	li	a6,0
1c00095e:	e2d57de3          	bleu	a3,a0,1c000798 <__udivdi3+0x168>
1c000962:	17fd                	addi	a5,a5,-1
1c000964:	b361                	j	1c0006ec <__udivdi3+0xbc>
1c000966:	4801                	li	a6,0
1c000968:	4781                	li	a5,0
1c00096a:	b53d                	j	1c000798 <__udivdi3+0x168>

1c00096c <__umoddi3>:
1c00096c:	88b2                	mv	a7,a2
1c00096e:	8736                	mv	a4,a3
1c000970:	87aa                	mv	a5,a0
1c000972:	882e                	mv	a6,a1
1c000974:	1a069963          	bnez	a3,1c000b26 <__umoddi3+0x1ba>
1c000978:	1c0076b7          	lui	a3,0x1c007
1c00097c:	0d068693          	addi	a3,a3,208 # 1c0070d0 <__clz_tab>
1c000980:	0ac5f463          	bleu	a2,a1,1c000a28 <__umoddi3+0xbc>
1c000984:	6341                	lui	t1,0x10
1c000986:	08667a63          	bleu	t1,a2,1c000a1a <__umoddi3+0xae>
1c00098a:	0ff00313          	li	t1,255
1c00098e:	00c37363          	bleu	a2,t1,1c000994 <__umoddi3+0x28>
1c000992:	4721                	li	a4,8
1c000994:	00e65333          	srl	t1,a2,a4
1c000998:	969a                	add	a3,a3,t1
1c00099a:	0006c683          	lbu	a3,0(a3)
1c00099e:	02000313          	li	t1,32
1c0009a2:	9736                	add	a4,a4,a3
1c0009a4:	40e30333          	sub	t1,t1,a4
1c0009a8:	00030c63          	beqz	t1,1c0009c0 <__umoddi3+0x54>
1c0009ac:	006595b3          	sll	a1,a1,t1
1c0009b0:	00e55733          	srl	a4,a0,a4
1c0009b4:	006618b3          	sll	a7,a2,t1
1c0009b8:	00b76833          	or	a6,a4,a1
1c0009bc:	006517b3          	sll	a5,a0,t1
1c0009c0:	0108d613          	srli	a2,a7,0x10
1c0009c4:	02c87733          	remu	a4,a6,a2
1c0009c8:	1008d533          	p.exthz	a0,a7
1c0009cc:	0107d693          	srli	a3,a5,0x10
1c0009d0:	02c85833          	divu	a6,a6,a2
1c0009d4:	0742                	slli	a4,a4,0x10
1c0009d6:	8ed9                	or	a3,a3,a4
1c0009d8:	03050833          	mul	a6,a0,a6
1c0009dc:	0106f863          	bleu	a6,a3,1c0009ec <__umoddi3+0x80>
1c0009e0:	96c6                	add	a3,a3,a7
1c0009e2:	0116e563          	bltu	a3,a7,1c0009ec <__umoddi3+0x80>
1c0009e6:	0106f363          	bleu	a6,a3,1c0009ec <__umoddi3+0x80>
1c0009ea:	96c6                	add	a3,a3,a7
1c0009ec:	410686b3          	sub	a3,a3,a6
1c0009f0:	02c6f733          	remu	a4,a3,a2
1c0009f4:	02c6d6b3          	divu	a3,a3,a2
1c0009f8:	df0727b3          	p.insert	a5,a4,15,16
1c0009fc:	02d506b3          	mul	a3,a0,a3
1c000a00:	00d7f863          	bleu	a3,a5,1c000a10 <__umoddi3+0xa4>
1c000a04:	97c6                	add	a5,a5,a7
1c000a06:	0117e563          	bltu	a5,a7,1c000a10 <__umoddi3+0xa4>
1c000a0a:	00d7f363          	bleu	a3,a5,1c000a10 <__umoddi3+0xa4>
1c000a0e:	97c6                	add	a5,a5,a7
1c000a10:	8f95                	sub	a5,a5,a3
1c000a12:	0067d533          	srl	a0,a5,t1
1c000a16:	4581                	li	a1,0
1c000a18:	8082                	ret
1c000a1a:	01000337          	lui	t1,0x1000
1c000a1e:	4741                	li	a4,16
1c000a20:	f6666ae3          	bltu	a2,t1,1c000994 <__umoddi3+0x28>
1c000a24:	4761                	li	a4,24
1c000a26:	b7bd                	j	1c000994 <__umoddi3+0x28>
1c000a28:	e601                	bnez	a2,1c000a30 <__umoddi3+0xc4>
1c000a2a:	4605                	li	a2,1
1c000a2c:	031658b3          	divu	a7,a2,a7
1c000a30:	6641                	lui	a2,0x10
1c000a32:	06c8ff63          	bleu	a2,a7,1c000ab0 <__umoddi3+0x144>
1c000a36:	0ff00613          	li	a2,255
1c000a3a:	01167363          	bleu	a7,a2,1c000a40 <__umoddi3+0xd4>
1c000a3e:	4721                	li	a4,8
1c000a40:	00e8d633          	srl	a2,a7,a4
1c000a44:	96b2                	add	a3,a3,a2
1c000a46:	0006c603          	lbu	a2,0(a3)
1c000a4a:	02000313          	li	t1,32
1c000a4e:	963a                	add	a2,a2,a4
1c000a50:	40c30333          	sub	t1,t1,a2
1c000a54:	06031563          	bnez	t1,1c000abe <__umoddi3+0x152>
1c000a58:	411585b3          	sub	a1,a1,a7
1c000a5c:	0108d713          	srli	a4,a7,0x10
1c000a60:	1008d533          	p.exthz	a0,a7
1c000a64:	0107d613          	srli	a2,a5,0x10
1c000a68:	02e5f6b3          	remu	a3,a1,a4
1c000a6c:	02e5d5b3          	divu	a1,a1,a4
1c000a70:	06c2                	slli	a3,a3,0x10
1c000a72:	8ed1                	or	a3,a3,a2
1c000a74:	02b505b3          	mul	a1,a0,a1
1c000a78:	00b6f863          	bleu	a1,a3,1c000a88 <__umoddi3+0x11c>
1c000a7c:	96c6                	add	a3,a3,a7
1c000a7e:	0116e563          	bltu	a3,a7,1c000a88 <__umoddi3+0x11c>
1c000a82:	00b6f363          	bleu	a1,a3,1c000a88 <__umoddi3+0x11c>
1c000a86:	96c6                	add	a3,a3,a7
1c000a88:	40b685b3          	sub	a1,a3,a1
1c000a8c:	02e5f6b3          	remu	a3,a1,a4
1c000a90:	02e5d5b3          	divu	a1,a1,a4
1c000a94:	df06a7b3          	p.insert	a5,a3,15,16
1c000a98:	02b505b3          	mul	a1,a0,a1
1c000a9c:	00b7f863          	bleu	a1,a5,1c000aac <__umoddi3+0x140>
1c000aa0:	97c6                	add	a5,a5,a7
1c000aa2:	0117e563          	bltu	a5,a7,1c000aac <__umoddi3+0x140>
1c000aa6:	00b7f363          	bleu	a1,a5,1c000aac <__umoddi3+0x140>
1c000aaa:	97c6                	add	a5,a5,a7
1c000aac:	8f8d                	sub	a5,a5,a1
1c000aae:	b795                	j	1c000a12 <__umoddi3+0xa6>
1c000ab0:	01000637          	lui	a2,0x1000
1c000ab4:	4741                	li	a4,16
1c000ab6:	f8c8e5e3          	bltu	a7,a2,1c000a40 <__umoddi3+0xd4>
1c000aba:	4761                	li	a4,24
1c000abc:	b751                	j	1c000a40 <__umoddi3+0xd4>
1c000abe:	006898b3          	sll	a7,a7,t1
1c000ac2:	00c5d733          	srl	a4,a1,a2
1c000ac6:	006517b3          	sll	a5,a0,t1
1c000aca:	00c55633          	srl	a2,a0,a2
1c000ace:	006595b3          	sll	a1,a1,t1
1c000ad2:	0108d513          	srli	a0,a7,0x10
1c000ad6:	8dd1                	or	a1,a1,a2
1c000ad8:	02a77633          	remu	a2,a4,a0
1c000adc:	1008d833          	p.exthz	a6,a7
1c000ae0:	0105d693          	srli	a3,a1,0x10
1c000ae4:	02a75733          	divu	a4,a4,a0
1c000ae8:	0642                	slli	a2,a2,0x10
1c000aea:	8ed1                	or	a3,a3,a2
1c000aec:	02e80733          	mul	a4,a6,a4
1c000af0:	00e6f863          	bleu	a4,a3,1c000b00 <__umoddi3+0x194>
1c000af4:	96c6                	add	a3,a3,a7
1c000af6:	0116e563          	bltu	a3,a7,1c000b00 <__umoddi3+0x194>
1c000afa:	00e6f363          	bleu	a4,a3,1c000b00 <__umoddi3+0x194>
1c000afe:	96c6                	add	a3,a3,a7
1c000b00:	8e99                	sub	a3,a3,a4
1c000b02:	02a6f733          	remu	a4,a3,a0
1c000b06:	02a6d6b3          	divu	a3,a3,a0
1c000b0a:	df0725b3          	p.insert	a1,a4,15,16
1c000b0e:	02d806b3          	mul	a3,a6,a3
1c000b12:	00d5f863          	bleu	a3,a1,1c000b22 <__umoddi3+0x1b6>
1c000b16:	95c6                	add	a1,a1,a7
1c000b18:	0115e563          	bltu	a1,a7,1c000b22 <__umoddi3+0x1b6>
1c000b1c:	00d5f363          	bleu	a3,a1,1c000b22 <__umoddi3+0x1b6>
1c000b20:	95c6                	add	a1,a1,a7
1c000b22:	8d95                	sub	a1,a1,a3
1c000b24:	bf25                	j	1c000a5c <__umoddi3+0xf0>
1c000b26:	eed5e9e3          	bltu	a1,a3,1c000a18 <__umoddi3+0xac>
1c000b2a:	6741                	lui	a4,0x10
1c000b2c:	04e6f563          	bleu	a4,a3,1c000b76 <__umoddi3+0x20a>
1c000b30:	0ff00e93          	li	t4,255
1c000b34:	00deb733          	sltu	a4,t4,a3
1c000b38:	070e                	slli	a4,a4,0x3
1c000b3a:	1c007337          	lui	t1,0x1c007
1c000b3e:	00e6d8b3          	srl	a7,a3,a4
1c000b42:	0d030313          	addi	t1,t1,208 # 1c0070d0 <__clz_tab>
1c000b46:	989a                	add	a7,a7,t1
1c000b48:	0008ce83          	lbu	t4,0(a7)
1c000b4c:	02000e13          	li	t3,32
1c000b50:	9eba                	add	t4,t4,a4
1c000b52:	41de0e33          	sub	t3,t3,t4
1c000b56:	020e1763          	bnez	t3,1c000b84 <__umoddi3+0x218>
1c000b5a:	00b6e463          	bltu	a3,a1,1c000b62 <__umoddi3+0x1f6>
1c000b5e:	00c56963          	bltu	a0,a2,1c000b70 <__umoddi3+0x204>
1c000b62:	40c507b3          	sub	a5,a0,a2
1c000b66:	8d95                	sub	a1,a1,a3
1c000b68:	00f53533          	sltu	a0,a0,a5
1c000b6c:	40a58833          	sub	a6,a1,a0
1c000b70:	853e                	mv	a0,a5
1c000b72:	85c2                	mv	a1,a6
1c000b74:	b555                	j	1c000a18 <__umoddi3+0xac>
1c000b76:	010008b7          	lui	a7,0x1000
1c000b7a:	4741                	li	a4,16
1c000b7c:	fb16efe3          	bltu	a3,a7,1c000b3a <__umoddi3+0x1ce>
1c000b80:	4761                	li	a4,24
1c000b82:	bf65                	j	1c000b3a <__umoddi3+0x1ce>
1c000b84:	01d65733          	srl	a4,a2,t4
1c000b88:	01c696b3          	sll	a3,a3,t3
1c000b8c:	8ed9                	or	a3,a3,a4
1c000b8e:	01d5d7b3          	srl	a5,a1,t4
1c000b92:	0106d813          	srli	a6,a3,0x10
1c000b96:	0307f333          	remu	t1,a5,a6
1c000b9a:	1006d733          	p.exthz	a4,a3
1c000b9e:	01d558b3          	srl	a7,a0,t4
1c000ba2:	01c595b3          	sll	a1,a1,t3
1c000ba6:	00b8e5b3          	or	a1,a7,a1
1c000baa:	0105d893          	srli	a7,a1,0x10
1c000bae:	01c61633          	sll	a2,a2,t3
1c000bb2:	01c51533          	sll	a0,a0,t3
1c000bb6:	0307d7b3          	divu	a5,a5,a6
1c000bba:	0342                	slli	t1,t1,0x10
1c000bbc:	011368b3          	or	a7,t1,a7
1c000bc0:	02f70f33          	mul	t5,a4,a5
1c000bc4:	833e                	mv	t1,a5
1c000bc6:	01e8fc63          	bleu	t5,a7,1c000bde <__umoddi3+0x272>
1c000bca:	98b6                	add	a7,a7,a3
1c000bcc:	fff78313          	addi	t1,a5,-1 # ffffff <__L2+0xf7ffff>
1c000bd0:	00d8e763          	bltu	a7,a3,1c000bde <__umoddi3+0x272>
1c000bd4:	01e8f563          	bleu	t5,a7,1c000bde <__umoddi3+0x272>
1c000bd8:	ffe78313          	addi	t1,a5,-2
1c000bdc:	98b6                	add	a7,a7,a3
1c000bde:	41e888b3          	sub	a7,a7,t5
1c000be2:	0308f7b3          	remu	a5,a7,a6
1c000be6:	0308d8b3          	divu	a7,a7,a6
1c000bea:	df07a5b3          	p.insert	a1,a5,15,16
1c000bee:	03170733          	mul	a4,a4,a7
1c000bf2:	87c6                	mv	a5,a7
1c000bf4:	00e5fc63          	bleu	a4,a1,1c000c0c <__umoddi3+0x2a0>
1c000bf8:	95b6                	add	a1,a1,a3
1c000bfa:	fff88793          	addi	a5,a7,-1 # ffffff <__L2+0xf7ffff>
1c000bfe:	00d5e763          	bltu	a1,a3,1c000c0c <__umoddi3+0x2a0>
1c000c02:	00e5f563          	bleu	a4,a1,1c000c0c <__umoddi3+0x2a0>
1c000c06:	ffe88793          	addi	a5,a7,-2
1c000c0a:	95b6                	add	a1,a1,a3
1c000c0c:	0342                	slli	t1,t1,0x10
1c000c0e:	6f41                	lui	t5,0x10
1c000c10:	00f36333          	or	t1,t1,a5
1c000c14:	ffff0793          	addi	a5,t5,-1 # ffff <__l1_heap_size+0x1f>
1c000c18:	00f37833          	and	a6,t1,a5
1c000c1c:	01035313          	srli	t1,t1,0x10
1c000c20:	8ff1                	and	a5,a5,a2
1c000c22:	02f808b3          	mul	a7,a6,a5
1c000c26:	8d99                	sub	a1,a1,a4
1c000c28:	01065713          	srli	a4,a2,0x10
1c000c2c:	02f307b3          	mul	a5,t1,a5
1c000c30:	8fbe                	mv	t6,a5
1c000c32:	42e80fb3          	p.mac	t6,a6,a4
1c000c36:	0108d813          	srli	a6,a7,0x10
1c000c3a:	987e                	add	a6,a6,t6
1c000c3c:	02e30333          	mul	t1,t1,a4
1c000c40:	00f87363          	bleu	a5,a6,1c000c46 <__umoddi3+0x2da>
1c000c44:	937a                	add	t1,t1,t5
1c000c46:	01085713          	srli	a4,a6,0x10
1c000c4a:	933a                	add	t1,t1,a4
1c000c4c:	6741                	lui	a4,0x10
1c000c4e:	177d                	addi	a4,a4,-1
1c000c50:	00e87833          	and	a6,a6,a4
1c000c54:	0842                	slli	a6,a6,0x10
1c000c56:	00e8f733          	and	a4,a7,a4
1c000c5a:	9742                	add	a4,a4,a6
1c000c5c:	0065e663          	bltu	a1,t1,1c000c68 <__umoddi3+0x2fc>
1c000c60:	00659d63          	bne	a1,t1,1c000c7a <__umoddi3+0x30e>
1c000c64:	00e57b63          	bleu	a4,a0,1c000c7a <__umoddi3+0x30e>
1c000c68:	40c70633          	sub	a2,a4,a2
1c000c6c:	00c73733          	sltu	a4,a4,a2
1c000c70:	40d30333          	sub	t1,t1,a3
1c000c74:	40e30333          	sub	t1,t1,a4
1c000c78:	8732                	mv	a4,a2
1c000c7a:	40e50733          	sub	a4,a0,a4
1c000c7e:	00e53533          	sltu	a0,a0,a4
1c000c82:	406585b3          	sub	a1,a1,t1
1c000c86:	8d89                	sub	a1,a1,a0
1c000c88:	01d597b3          	sll	a5,a1,t4
1c000c8c:	01c75733          	srl	a4,a4,t3
1c000c90:	00e7e533          	or	a0,a5,a4
1c000c94:	01c5d5b3          	srl	a1,a1,t3
1c000c98:	b341                	j	1c000a18 <__umoddi3+0xac>

1c000c9a <__adddf3>:
1c000c9a:	e6059733          	p.extractu	a4,a1,19,0
1c000c9e:	070e                	slli	a4,a4,0x3
1c000ca0:	01d55793          	srli	a5,a0,0x1d
1c000ca4:	e6069833          	p.extractu	a6,a3,19,0
1c000ca8:	d5459e33          	p.extractu	t3,a1,10,20
1c000cac:	080e                	slli	a6,a6,0x3
1c000cae:	01d65893          	srli	a7,a2,0x1d
1c000cb2:	8fd9                	or	a5,a5,a4
1c000cb4:	81fd                	srli	a1,a1,0x1f
1c000cb6:	d5469733          	p.extractu	a4,a3,10,20
1c000cba:	82fd                	srli	a3,a3,0x1f
1c000cbc:	0108eeb3          	or	t4,a7,a6
1c000cc0:	050e                	slli	a0,a0,0x3
1c000cc2:	060e                	slli	a2,a2,0x3
1c000cc4:	40ee0833          	sub	a6,t3,a4
1c000cc8:	2ad59563          	bne	a1,a3,1c000f72 <__adddf3+0x2d8>
1c000ccc:	15005463          	blez	a6,1c000e14 <__adddf3+0x17a>
1c000cd0:	e369                	bnez	a4,1c000d92 <__adddf3+0xf8>
1c000cd2:	00cee733          	or	a4,t4,a2
1c000cd6:	e325                	bnez	a4,1c000d36 <__adddf3+0x9c>
1c000cd8:	7ff00693          	li	a3,2047
1c000cdc:	8742                	mv	a4,a6
1c000cde:	22d81d63          	bne	a6,a3,1c000f18 <__adddf3+0x27e>
1c000ce2:	00a7e6b3          	or	a3,a5,a0
1c000ce6:	22069963          	bnez	a3,1c000f18 <__adddf3+0x27e>
1c000cea:	4781                	li	a5,0
1c000cec:	4501                	li	a0,0
1c000cee:	00879693          	slli	a3,a5,0x8
1c000cf2:	0006d963          	bgez	a3,1c000d04 <__adddf3+0x6a>
1c000cf6:	0705                	addi	a4,a4,1
1c000cf8:	7ff00693          	li	a3,2047
1c000cfc:	58d70b63          	beq	a4,a3,1c001292 <__adddf3+0x5f8>
1c000d00:	c177b7b3          	p.bclr	a5,a5,0,23
1c000d04:	01d79693          	slli	a3,a5,0x1d
1c000d08:	810d                	srli	a0,a0,0x3
1c000d0a:	8d55                	or	a0,a0,a3
1c000d0c:	7ff00693          	li	a3,2047
1c000d10:	838d                	srli	a5,a5,0x3
1c000d12:	00d71963          	bne	a4,a3,1c000d24 <__adddf3+0x8a>
1c000d16:	8d5d                	or	a0,a0,a5
1c000d18:	4781                	li	a5,0
1c000d1a:	c509                	beqz	a0,1c000d24 <__adddf3+0x8a>
1c000d1c:	000807b7          	lui	a5,0x80
1c000d20:	4501                	li	a0,0
1c000d22:	4581                	li	a1,0
1c000d24:	4681                	li	a3,0
1c000d26:	e607a6b3          	p.insert	a3,a5,19,0
1c000d2a:	d54726b3          	p.insert	a3,a4,10,20
1c000d2e:	c1f5a6b3          	p.insert	a3,a1,0,31
1c000d32:	85b6                	mv	a1,a3
1c000d34:	8082                	ret
1c000d36:	fff80893          	addi	a7,a6,-1
1c000d3a:	04089163          	bnez	a7,1c000d7c <__adddf3+0xe2>
1c000d3e:	962a                	add	a2,a2,a0
1c000d40:	00a63533          	sltu	a0,a2,a0
1c000d44:	01d78833          	add	a6,a5,t4
1c000d48:	00a807b3          	add	a5,a6,a0
1c000d4c:	4705                	li	a4,1
1c000d4e:	8532                	mv	a0,a2
1c000d50:	00879893          	slli	a7,a5,0x8
1c000d54:	1c08d263          	bgez	a7,1c000f18 <__adddf3+0x27e>
1c000d58:	0705                	addi	a4,a4,1
1c000d5a:	7ff00693          	li	a3,2047
1c000d5e:	f8d706e3          	beq	a4,a3,1c000cea <__adddf3+0x50>
1c000d62:	c177b633          	p.bclr	a2,a5,0,23
1c000d66:	00155693          	srli	a3,a0,0x1
1c000d6a:	fc153533          	p.bclr	a0,a0,30,1
1c000d6e:	01f61793          	slli	a5,a2,0x1f
1c000d72:	8d55                	or	a0,a0,a3
1c000d74:	8d5d                	or	a0,a0,a5
1c000d76:	00165793          	srli	a5,a2,0x1
1c000d7a:	aa79                	j	1c000f18 <__adddf3+0x27e>
1c000d7c:	7ff00713          	li	a4,2047
1c000d80:	02e81063          	bne	a6,a4,1c000da0 <__adddf3+0x106>
1c000d84:	00a7e733          	or	a4,a5,a0
1c000d88:	4e070563          	beqz	a4,1c001272 <__adddf3+0x5d8>
1c000d8c:	7ff00713          	li	a4,2047
1c000d90:	a261                	j	1c000f18 <__adddf3+0x27e>
1c000d92:	7ff00713          	li	a4,2047
1c000d96:	feee07e3          	beq	t3,a4,1c000d84 <__adddf3+0xea>
1c000d9a:	c17eceb3          	p.bset	t4,t4,0,23
1c000d9e:	88c2                	mv	a7,a6
1c000da0:	03800713          	li	a4,56
1c000da4:	07174363          	blt	a4,a7,1c000e0a <__adddf3+0x170>
1c000da8:	477d                	li	a4,31
1c000daa:	03174c63          	blt	a4,a7,1c000de2 <__adddf3+0x148>
1c000dae:	02000713          	li	a4,32
1c000db2:	41170733          	sub	a4,a4,a7
1c000db6:	011656b3          	srl	a3,a2,a7
1c000dba:	00ee9833          	sll	a6,t4,a4
1c000dbe:	00e61633          	sll	a2,a2,a4
1c000dc2:	00d86833          	or	a6,a6,a3
1c000dc6:	00c03633          	snez	a2,a2
1c000dca:	00c86833          	or	a6,a6,a2
1c000dce:	011ed8b3          	srl	a7,t4,a7
1c000dd2:	982a                	add	a6,a6,a0
1c000dd4:	98be                	add	a7,a7,a5
1c000dd6:	00a837b3          	sltu	a5,a6,a0
1c000dda:	97c6                	add	a5,a5,a7
1c000ddc:	8542                	mv	a0,a6
1c000dde:	8772                	mv	a4,t3
1c000de0:	bf85                	j	1c000d50 <__adddf3+0xb6>
1c000de2:	02000713          	li	a4,32
1c000de6:	011ed833          	srl	a6,t4,a7
1c000dea:	4681                	li	a3,0
1c000dec:	00e88863          	beq	a7,a4,1c000dfc <__adddf3+0x162>
1c000df0:	04000693          	li	a3,64
1c000df4:	411688b3          	sub	a7,a3,a7
1c000df8:	011e96b3          	sll	a3,t4,a7
1c000dfc:	8e55                	or	a2,a2,a3
1c000dfe:	00c03633          	snez	a2,a2
1c000e02:	00c86833          	or	a6,a6,a2
1c000e06:	4881                	li	a7,0
1c000e08:	b7e9                	j	1c000dd2 <__adddf3+0x138>
1c000e0a:	00cee833          	or	a6,t4,a2
1c000e0e:	01003833          	snez	a6,a6
1c000e12:	bfd5                	j	1c000e06 <__adddf3+0x16c>
1c000e14:	0c080263          	beqz	a6,1c000ed8 <__adddf3+0x23e>
1c000e18:	060e1f63          	bnez	t3,1c000e96 <__adddf3+0x1fc>
1c000e1c:	00a7e6b3          	or	a3,a5,a0
1c000e20:	ee89                	bnez	a3,1c000e3a <__adddf3+0x1a0>
1c000e22:	7ff00793          	li	a5,2047
1c000e26:	00f71763          	bne	a4,a5,1c000e34 <__adddf3+0x19a>
1c000e2a:	00cee533          	or	a0,t4,a2
1c000e2e:	4781                	li	a5,0
1c000e30:	ea050fe3          	beqz	a0,1c000cee <__adddf3+0x54>
1c000e34:	87f6                	mv	a5,t4
1c000e36:	8532                	mv	a0,a2
1c000e38:	a0c5                	j	1c000f18 <__adddf3+0x27e>
1c000e3a:	01f83a63          	p.bneimm	a6,-1,1c000e4e <__adddf3+0x1b4>
1c000e3e:	9532                	add	a0,a0,a2
1c000e40:	01d78833          	add	a6,a5,t4
1c000e44:	00c53633          	sltu	a2,a0,a2
1c000e48:	00c807b3          	add	a5,a6,a2
1c000e4c:	b711                	j	1c000d50 <__adddf3+0xb6>
1c000e4e:	7ff00693          	li	a3,2047
1c000e52:	fff84813          	not	a6,a6
1c000e56:	fcd70ae3          	beq	a4,a3,1c000e2a <__adddf3+0x190>
1c000e5a:	03800693          	li	a3,56
1c000e5e:	0706c963          	blt	a3,a6,1c000ed0 <__adddf3+0x236>
1c000e62:	46fd                	li	a3,31
1c000e64:	0506c263          	blt	a3,a6,1c000ea8 <__adddf3+0x20e>
1c000e68:	02000893          	li	a7,32
1c000e6c:	410888b3          	sub	a7,a7,a6
1c000e70:	01055333          	srl	t1,a0,a6
1c000e74:	011796b3          	sll	a3,a5,a7
1c000e78:	01151533          	sll	a0,a0,a7
1c000e7c:	0066e6b3          	or	a3,a3,t1
1c000e80:	00a03533          	snez	a0,a0
1c000e84:	8d55                	or	a0,a0,a3
1c000e86:	0107d833          	srl	a6,a5,a6
1c000e8a:	9532                	add	a0,a0,a2
1c000e8c:	9876                	add	a6,a6,t4
1c000e8e:	00c537b3          	sltu	a5,a0,a2
1c000e92:	97c2                	add	a5,a5,a6
1c000e94:	bd75                	j	1c000d50 <__adddf3+0xb6>
1c000e96:	7ff00693          	li	a3,2047
1c000e9a:	f8d708e3          	beq	a4,a3,1c000e2a <__adddf3+0x190>
1c000e9e:	41000833          	neg	a6,a6
1c000ea2:	c177c7b3          	p.bset	a5,a5,0,23
1c000ea6:	bf55                	j	1c000e5a <__adddf3+0x1c0>
1c000ea8:	02000313          	li	t1,32
1c000eac:	0107d6b3          	srl	a3,a5,a6
1c000eb0:	4881                	li	a7,0
1c000eb2:	00680863          	beq	a6,t1,1c000ec2 <__adddf3+0x228>
1c000eb6:	04000893          	li	a7,64
1c000eba:	41088833          	sub	a6,a7,a6
1c000ebe:	010798b3          	sll	a7,a5,a6
1c000ec2:	00a8e533          	or	a0,a7,a0
1c000ec6:	00a03533          	snez	a0,a0
1c000eca:	8d55                	or	a0,a0,a3
1c000ecc:	4801                	li	a6,0
1c000ece:	bf75                	j	1c000e8a <__adddf3+0x1f0>
1c000ed0:	8d5d                	or	a0,a0,a5
1c000ed2:	00a03533          	snez	a0,a0
1c000ed6:	bfdd                	j	1c000ecc <__adddf3+0x232>
1c000ed8:	001e0713          	addi	a4,t3,1
1c000edc:	e8b73833          	p.bclr	a6,a4,20,11
1c000ee0:	4685                	li	a3,1
1c000ee2:	0706c763          	blt	a3,a6,1c000f50 <__adddf3+0x2b6>
1c000ee6:	00a7e733          	or	a4,a5,a0
1c000eea:	040e1663          	bnez	t3,1c000f36 <__adddf3+0x29c>
1c000eee:	36070c63          	beqz	a4,1c001266 <__adddf3+0x5cc>
1c000ef2:	00cee6b3          	or	a3,t4,a2
1c000ef6:	4701                	li	a4,0
1c000ef8:	c285                	beqz	a3,1c000f18 <__adddf3+0x27e>
1c000efa:	962a                	add	a2,a2,a0
1c000efc:	00a63533          	sltu	a0,a2,a0
1c000f00:	01d78833          	add	a6,a5,t4
1c000f04:	00a807b3          	add	a5,a6,a0
1c000f08:	00879693          	slli	a3,a5,0x8
1c000f0c:	8532                	mv	a0,a2
1c000f0e:	0006d563          	bgez	a3,1c000f18 <__adddf3+0x27e>
1c000f12:	c177b7b3          	p.bclr	a5,a5,0,23
1c000f16:	4705                	li	a4,1
1c000f18:	f83536b3          	p.bclr	a3,a0,28,3
1c000f1c:	dc0689e3          	beqz	a3,1c000cee <__adddf3+0x54>
1c000f20:	f64536b3          	p.bclr	a3,a0,27,4
1c000f24:	dc46a5e3          	p.beqimm	a3,4,1c000cee <__adddf3+0x54>
1c000f28:	00450693          	addi	a3,a0,4
1c000f2c:	00a6b533          	sltu	a0,a3,a0
1c000f30:	97aa                	add	a5,a5,a0
1c000f32:	8536                	mv	a0,a3
1c000f34:	bb6d                	j	1c000cee <__adddf3+0x54>
1c000f36:	32070b63          	beqz	a4,1c00126c <__adddf3+0x5d2>
1c000f3a:	00cee833          	or	a6,t4,a2
1c000f3e:	e40807e3          	beqz	a6,1c000d8c <__adddf3+0xf2>
1c000f42:	004007b7          	lui	a5,0x400
1c000f46:	4501                	li	a0,0
1c000f48:	7ff00713          	li	a4,2047
1c000f4c:	4581                	li	a1,0
1c000f4e:	b345                	j	1c000cee <__adddf3+0x54>
1c000f50:	7ff00693          	li	a3,2047
1c000f54:	d8d70be3          	beq	a4,a3,1c000cea <__adddf3+0x50>
1c000f58:	962a                	add	a2,a2,a0
1c000f5a:	01d78833          	add	a6,a5,t4
1c000f5e:	00a637b3          	sltu	a5,a2,a0
1c000f62:	983e                	add	a6,a6,a5
1c000f64:	01f81513          	slli	a0,a6,0x1f
1c000f68:	8205                	srli	a2,a2,0x1
1c000f6a:	8d51                	or	a0,a0,a2
1c000f6c:	00185793          	srli	a5,a6,0x1
1c000f70:	b765                	j	1c000f18 <__adddf3+0x27e>
1c000f72:	0d005563          	blez	a6,1c00103c <__adddf3+0x3a2>
1c000f76:	e351                	bnez	a4,1c000ffa <__adddf3+0x360>
1c000f78:	00cee733          	or	a4,t4,a2
1c000f7c:	d4070ee3          	beqz	a4,1c000cd8 <__adddf3+0x3e>
1c000f80:	fff80693          	addi	a3,a6,-1
1c000f84:	e685                	bnez	a3,1c000fac <__adddf3+0x312>
1c000f86:	40c50633          	sub	a2,a0,a2
1c000f8a:	00c53533          	sltu	a0,a0,a2
1c000f8e:	41d78833          	sub	a6,a5,t4
1c000f92:	40a807b3          	sub	a5,a6,a0
1c000f96:	4705                	li	a4,1
1c000f98:	8532                	mv	a0,a2
1c000f9a:	00879893          	slli	a7,a5,0x8
1c000f9e:	f608dde3          	bgez	a7,1c000f18 <__adddf3+0x27e>
1c000fa2:	d177b333          	p.bclr	t1,a5,8,23
1c000fa6:	8f2a                	mv	t5,a0
1c000fa8:	8e3a                	mv	t3,a4
1c000faa:	a411                	j	1c0011ae <__adddf3+0x514>
1c000fac:	7ff00713          	li	a4,2047
1c000fb0:	dce80ae3          	beq	a6,a4,1c000d84 <__adddf3+0xea>
1c000fb4:	03800713          	li	a4,56
1c000fb8:	06d74d63          	blt	a4,a3,1c001032 <__adddf3+0x398>
1c000fbc:	477d                	li	a4,31
1c000fbe:	04d74663          	blt	a4,a3,1c00100a <__adddf3+0x370>
1c000fc2:	02000713          	li	a4,32
1c000fc6:	8f15                	sub	a4,a4,a3
1c000fc8:	00d658b3          	srl	a7,a2,a3
1c000fcc:	00ee9833          	sll	a6,t4,a4
1c000fd0:	00e61633          	sll	a2,a2,a4
1c000fd4:	01186833          	or	a6,a6,a7
1c000fd8:	00c03633          	snez	a2,a2
1c000fdc:	00c86833          	or	a6,a6,a2
1c000fe0:	00ded6b3          	srl	a3,t4,a3
1c000fe4:	41050833          	sub	a6,a0,a6
1c000fe8:	40d786b3          	sub	a3,a5,a3
1c000fec:	010537b3          	sltu	a5,a0,a6
1c000ff0:	40f687b3          	sub	a5,a3,a5
1c000ff4:	8542                	mv	a0,a6
1c000ff6:	8772                	mv	a4,t3
1c000ff8:	b74d                	j	1c000f9a <__adddf3+0x300>
1c000ffa:	7ff00713          	li	a4,2047
1c000ffe:	d8ee03e3          	beq	t3,a4,1c000d84 <__adddf3+0xea>
1c001002:	c17eceb3          	p.bset	t4,t4,0,23
1c001006:	86c2                	mv	a3,a6
1c001008:	b775                	j	1c000fb4 <__adddf3+0x31a>
1c00100a:	02000893          	li	a7,32
1c00100e:	00ded833          	srl	a6,t4,a3
1c001012:	4701                	li	a4,0
1c001014:	01168863          	beq	a3,a7,1c001024 <__adddf3+0x38a>
1c001018:	04000713          	li	a4,64
1c00101c:	40d706b3          	sub	a3,a4,a3
1c001020:	00de9733          	sll	a4,t4,a3
1c001024:	8e59                	or	a2,a2,a4
1c001026:	00c03633          	snez	a2,a2
1c00102a:	00c86833          	or	a6,a6,a2
1c00102e:	4681                	li	a3,0
1c001030:	bf55                	j	1c000fe4 <__adddf3+0x34a>
1c001032:	00cee833          	or	a6,t4,a2
1c001036:	01003833          	snez	a6,a6
1c00103a:	bfd5                	j	1c00102e <__adddf3+0x394>
1c00103c:	0c080663          	beqz	a6,1c001108 <__adddf3+0x46e>
1c001040:	080e1363          	bnez	t3,1c0010c6 <__adddf3+0x42c>
1c001044:	00a7e5b3          	or	a1,a5,a0
1c001048:	ed81                	bnez	a1,1c001060 <__adddf3+0x3c6>
1c00104a:	7ff00793          	li	a5,2047
1c00104e:	00f71663          	bne	a4,a5,1c00105a <__adddf3+0x3c0>
1c001052:	00cee533          	or	a0,t4,a2
1c001056:	22050363          	beqz	a0,1c00127c <__adddf3+0x5e2>
1c00105a:	87f6                	mv	a5,t4
1c00105c:	8532                	mv	a0,a2
1c00105e:	a8c9                	j	1c001130 <__adddf3+0x496>
1c001060:	01f83c63          	p.bneimm	a6,-1,1c001078 <__adddf3+0x3de>
1c001064:	40a60533          	sub	a0,a2,a0
1c001068:	40fe8833          	sub	a6,t4,a5
1c00106c:	00a63633          	sltu	a2,a2,a0
1c001070:	40c807b3          	sub	a5,a6,a2
1c001074:	85b6                	mv	a1,a3
1c001076:	b715                	j	1c000f9a <__adddf3+0x300>
1c001078:	7ff00593          	li	a1,2047
1c00107c:	fff84813          	not	a6,a6
1c001080:	fcb709e3          	beq	a4,a1,1c001052 <__adddf3+0x3b8>
1c001084:	03800593          	li	a1,56
1c001088:	0705cc63          	blt	a1,a6,1c001100 <__adddf3+0x466>
1c00108c:	45fd                	li	a1,31
1c00108e:	0505c563          	blt	a1,a6,1c0010d8 <__adddf3+0x43e>
1c001092:	02000893          	li	a7,32
1c001096:	410888b3          	sub	a7,a7,a6
1c00109a:	01055333          	srl	t1,a0,a6
1c00109e:	011795b3          	sll	a1,a5,a7
1c0010a2:	01151533          	sll	a0,a0,a7
1c0010a6:	0065e5b3          	or	a1,a1,t1
1c0010aa:	00a03533          	snez	a0,a0
1c0010ae:	8d4d                	or	a0,a0,a1
1c0010b0:	0107d833          	srl	a6,a5,a6
1c0010b4:	40a60533          	sub	a0,a2,a0
1c0010b8:	410e8833          	sub	a6,t4,a6
1c0010bc:	00a637b3          	sltu	a5,a2,a0
1c0010c0:	40f807b3          	sub	a5,a6,a5
1c0010c4:	bf45                	j	1c001074 <__adddf3+0x3da>
1c0010c6:	7ff00593          	li	a1,2047
1c0010ca:	f8b704e3          	beq	a4,a1,1c001052 <__adddf3+0x3b8>
1c0010ce:	41000833          	neg	a6,a6
1c0010d2:	c177c7b3          	p.bset	a5,a5,0,23
1c0010d6:	b77d                	j	1c001084 <__adddf3+0x3ea>
1c0010d8:	02000313          	li	t1,32
1c0010dc:	0107d5b3          	srl	a1,a5,a6
1c0010e0:	4881                	li	a7,0
1c0010e2:	00680863          	beq	a6,t1,1c0010f2 <__adddf3+0x458>
1c0010e6:	04000893          	li	a7,64
1c0010ea:	41088833          	sub	a6,a7,a6
1c0010ee:	010798b3          	sll	a7,a5,a6
1c0010f2:	00a8e533          	or	a0,a7,a0
1c0010f6:	00a03533          	snez	a0,a0
1c0010fa:	8d4d                	or	a0,a0,a1
1c0010fc:	4801                	li	a6,0
1c0010fe:	bf5d                	j	1c0010b4 <__adddf3+0x41a>
1c001100:	8d5d                	or	a0,a0,a5
1c001102:	00a03533          	snez	a0,a0
1c001106:	bfdd                	j	1c0010fc <__adddf3+0x462>
1c001108:	001e0713          	addi	a4,t3,1
1c00110c:	e8b73733          	p.bclr	a4,a4,20,11
1c001110:	4805                	li	a6,1
1c001112:	06e84963          	blt	a6,a4,1c001184 <__adddf3+0x4ea>
1c001116:	00a7e833          	or	a6,a5,a0
1c00111a:	00cee733          	or	a4,t4,a2
1c00111e:	040e1863          	bnez	t3,1c00116e <__adddf3+0x4d4>
1c001122:	00081963          	bnez	a6,1c001134 <__adddf3+0x49a>
1c001126:	14070e63          	beqz	a4,1c001282 <__adddf3+0x5e8>
1c00112a:	87f6                	mv	a5,t4
1c00112c:	8532                	mv	a0,a2
1c00112e:	4701                	li	a4,0
1c001130:	85b6                	mv	a1,a3
1c001132:	b3dd                	j	1c000f18 <__adddf3+0x27e>
1c001134:	cb1d                	beqz	a4,1c00116a <__adddf3+0x4d0>
1c001136:	40c50833          	sub	a6,a0,a2
1c00113a:	010538b3          	sltu	a7,a0,a6
1c00113e:	41d78733          	sub	a4,a5,t4
1c001142:	41170733          	sub	a4,a4,a7
1c001146:	00871893          	slli	a7,a4,0x8
1c00114a:	0008db63          	bgez	a7,1c001160 <__adddf3+0x4c6>
1c00114e:	40a60533          	sub	a0,a2,a0
1c001152:	40fe8833          	sub	a6,t4,a5
1c001156:	00a63633          	sltu	a2,a2,a0
1c00115a:	40c807b3          	sub	a5,a6,a2
1c00115e:	bfc1                	j	1c00112e <__adddf3+0x494>
1c001160:	00e86533          	or	a0,a6,a4
1c001164:	c94d                	beqz	a0,1c001216 <__adddf3+0x57c>
1c001166:	87ba                	mv	a5,a4
1c001168:	8542                	mv	a0,a6
1c00116a:	4701                	li	a4,0
1c00116c:	b375                	j	1c000f18 <__adddf3+0x27e>
1c00116e:	00081863          	bnez	a6,1c00117e <__adddf3+0x4e4>
1c001172:	10070c63          	beqz	a4,1c00128a <__adddf3+0x5f0>
1c001176:	87f6                	mv	a5,t4
1c001178:	8532                	mv	a0,a2
1c00117a:	85b6                	mv	a1,a3
1c00117c:	b901                	j	1c000d8c <__adddf3+0xf2>
1c00117e:	c00707e3          	beqz	a4,1c000d8c <__adddf3+0xf2>
1c001182:	b3c1                	j	1c000f42 <__adddf3+0x2a8>
1c001184:	40c50f33          	sub	t5,a0,a2
1c001188:	41d78333          	sub	t1,a5,t4
1c00118c:	01e53833          	sltu	a6,a0,t5
1c001190:	41030333          	sub	t1,t1,a6
1c001194:	00831713          	slli	a4,t1,0x8
1c001198:	06075c63          	bgez	a4,1c001210 <__adddf3+0x576>
1c00119c:	40a60f33          	sub	t5,a2,a0
1c0011a0:	40fe8833          	sub	a6,t4,a5
1c0011a4:	01e637b3          	sltu	a5,a2,t5
1c0011a8:	40f80333          	sub	t1,a6,a5
1c0011ac:	85b6                	mv	a1,a3
1c0011ae:	06030663          	beqz	t1,1c00121a <__adddf3+0x580>
1c0011b2:	100316b3          	p.fl1	a3,t1
1c0011b6:	47fd                	li	a5,31
1c0011b8:	40d786b3          	sub	a3,a5,a3
1c0011bc:	ff868713          	addi	a4,a3,-8
1c0011c0:	47fd                	li	a5,31
1c0011c2:	06e7c463          	blt	a5,a4,1c00122a <__adddf3+0x590>
1c0011c6:	02000793          	li	a5,32
1c0011ca:	8f99                	sub	a5,a5,a4
1c0011cc:	00e31333          	sll	t1,t1,a4
1c0011d0:	00ff57b3          	srl	a5,t5,a5
1c0011d4:	0067e7b3          	or	a5,a5,t1
1c0011d8:	00ef1533          	sll	a0,t5,a4
1c0011dc:	09c74063          	blt	a4,t3,1c00125c <__adddf3+0x5c2>
1c0011e0:	41c70733          	sub	a4,a4,t3
1c0011e4:	00170613          	addi	a2,a4,1 # 10001 <__L1Cl+0x1>
1c0011e8:	46fd                	li	a3,31
1c0011ea:	04c6c663          	blt	a3,a2,1c001236 <__adddf3+0x59c>
1c0011ee:	02000713          	li	a4,32
1c0011f2:	8f11                	sub	a4,a4,a2
1c0011f4:	00e796b3          	sll	a3,a5,a4
1c0011f8:	00c55833          	srl	a6,a0,a2
1c0011fc:	00e51533          	sll	a0,a0,a4
1c001200:	0106e6b3          	or	a3,a3,a6
1c001204:	00a03533          	snez	a0,a0
1c001208:	8d55                	or	a0,a0,a3
1c00120a:	00c7d7b3          	srl	a5,a5,a2
1c00120e:	bfb1                	j	1c00116a <__adddf3+0x4d0>
1c001210:	006f6533          	or	a0,t5,t1
1c001214:	fd49                	bnez	a0,1c0011ae <__adddf3+0x514>
1c001216:	4781                	li	a5,0
1c001218:	a0bd                	j	1c001286 <__adddf3+0x5ec>
1c00121a:	100f16b3          	p.fl1	a3,t5
1c00121e:	47fd                	li	a5,31
1c001220:	40d786b3          	sub	a3,a5,a3
1c001224:	02068693          	addi	a3,a3,32
1c001228:	bf51                	j	1c0011bc <__adddf3+0x522>
1c00122a:	fd868793          	addi	a5,a3,-40
1c00122e:	00ff17b3          	sll	a5,t5,a5
1c001232:	4501                	li	a0,0
1c001234:	b765                	j	1c0011dc <__adddf3+0x542>
1c001236:	1705                	addi	a4,a4,-31
1c001238:	02000813          	li	a6,32
1c00123c:	00e7d733          	srl	a4,a5,a4
1c001240:	4681                	li	a3,0
1c001242:	01060763          	beq	a2,a6,1c001250 <__adddf3+0x5b6>
1c001246:	04000693          	li	a3,64
1c00124a:	8e91                	sub	a3,a3,a2
1c00124c:	00d796b3          	sll	a3,a5,a3
1c001250:	8d55                	or	a0,a0,a3
1c001252:	00a03533          	snez	a0,a0
1c001256:	8d59                	or	a0,a0,a4
1c001258:	4781                	li	a5,0
1c00125a:	bf01                	j	1c00116a <__adddf3+0x4d0>
1c00125c:	40ee0733          	sub	a4,t3,a4
1c001260:	c177b7b3          	p.bclr	a5,a5,0,23
1c001264:	b955                	j	1c000f18 <__adddf3+0x27e>
1c001266:	87f6                	mv	a5,t4
1c001268:	8532                	mv	a0,a2
1c00126a:	b701                	j	1c00116a <__adddf3+0x4d0>
1c00126c:	87f6                	mv	a5,t4
1c00126e:	8532                	mv	a0,a2
1c001270:	be31                	j	1c000d8c <__adddf3+0xf2>
1c001272:	4781                	li	a5,0
1c001274:	4501                	li	a0,0
1c001276:	7ff00713          	li	a4,2047
1c00127a:	bc95                	j	1c000cee <__adddf3+0x54>
1c00127c:	4781                	li	a5,0
1c00127e:	85b6                	mv	a1,a3
1c001280:	b4bd                	j	1c000cee <__adddf3+0x54>
1c001282:	4781                	li	a5,0
1c001284:	4501                	li	a0,0
1c001286:	4701                	li	a4,0
1c001288:	b1d1                	j	1c000f4c <__adddf3+0x2b2>
1c00128a:	4501                	li	a0,0
1c00128c:	004007b7          	lui	a5,0x400
1c001290:	b965                	j	1c000f48 <__adddf3+0x2ae>
1c001292:	4781                	li	a5,0
1c001294:	4501                	li	a0,0
1c001296:	b4bd                	j	1c000d04 <__adddf3+0x6a>

1c001298 <__ledf2>:
1c001298:	87aa                	mv	a5,a0
1c00129a:	8eaa                	mv	t4,a0
1c00129c:	d5459833          	p.extractu	a6,a1,10,20
1c0012a0:	7ff00513          	li	a0,2047
1c0012a4:	e6059733          	p.extractu	a4,a1,19,0
1c0012a8:	e6069333          	p.extractu	t1,a3,19,0
1c0012ac:	d54698b3          	p.extractu	a7,a3,10,20
1c0012b0:	81fd                	srli	a1,a1,0x1f
1c0012b2:	8f32                	mv	t5,a2
1c0012b4:	82fd                	srli	a3,a3,0x1f
1c0012b6:	00a81863          	bne	a6,a0,1c0012c6 <__ledf2+0x2e>
1c0012ba:	00f76e33          	or	t3,a4,a5
1c0012be:	4509                	li	a0,2
1c0012c0:	060e0663          	beqz	t3,1c00132c <__ledf2+0x94>
1c0012c4:	8082                	ret
1c0012c6:	00a89763          	bne	a7,a0,1c0012d4 <__ledf2+0x3c>
1c0012ca:	00c36633          	or	a2,t1,a2
1c0012ce:	4509                	li	a0,2
1c0012d0:	c625                	beqz	a2,1c001338 <__ledf2+0xa0>
1c0012d2:	8082                	ret
1c0012d4:	04081e63          	bnez	a6,1c001330 <__ledf2+0x98>
1c0012d8:	00f76533          	or	a0,a4,a5
1c0012dc:	00153513          	seqz	a0,a0
1c0012e0:	00089563          	bnez	a7,1c0012ea <__ledf2+0x52>
1c0012e4:	00c36633          	or	a2,t1,a2
1c0012e8:	c221                	beqz	a2,1c001328 <__ledf2+0x90>
1c0012ea:	e511                	bnez	a0,1c0012f6 <__ledf2+0x5e>
1c0012ec:	00d58863          	beq	a1,a3,1c0012fc <__ledf2+0x64>
1c0012f0:	4505                	li	a0,1
1c0012f2:	e199                	bnez	a1,1c0012f8 <__ledf2+0x60>
1c0012f4:	8082                	ret
1c0012f6:	fefd                	bnez	a3,1c0012f4 <__ledf2+0x5c>
1c0012f8:	557d                	li	a0,-1
1c0012fa:	8082                	ret
1c0012fc:	ff08cae3          	blt	a7,a6,1c0012f0 <__ledf2+0x58>
1c001300:	01185663          	ble	a7,a6,1c00130c <__ledf2+0x74>
1c001304:	557d                	li	a0,-1
1c001306:	d5fd                	beqz	a1,1c0012f4 <__ledf2+0x5c>
1c001308:	4505                	li	a0,1
1c00130a:	8082                	ret
1c00130c:	fee362e3          	bltu	t1,a4,1c0012f0 <__ledf2+0x58>
1c001310:	00671863          	bne	a4,t1,1c001320 <__ledf2+0x88>
1c001314:	fddf6ee3          	bltu	t5,t4,1c0012f0 <__ledf2+0x58>
1c001318:	4501                	li	a0,0
1c00131a:	ffeee5e3          	bltu	t4,t5,1c001304 <__ledf2+0x6c>
1c00131e:	bfd9                	j	1c0012f4 <__ledf2+0x5c>
1c001320:	fe6762e3          	bltu	a4,t1,1c001304 <__ledf2+0x6c>
1c001324:	4501                	li	a0,0
1c001326:	8082                	ret
1c001328:	fd75                	bnez	a0,1c001324 <__ledf2+0x8c>
1c00132a:	b7d9                	j	1c0012f0 <__ledf2+0x58>
1c00132c:	f9088fe3          	beq	a7,a6,1c0012ca <__ledf2+0x32>
1c001330:	4501                	li	a0,0
1c001332:	fa0889e3          	beqz	a7,1c0012e4 <__ledf2+0x4c>
1c001336:	bf5d                	j	1c0012ec <__ledf2+0x54>
1c001338:	fa081ae3          	bnez	a6,1c0012ec <__ledf2+0x54>
1c00133c:	00f76533          	or	a0,a4,a5
1c001340:	00153513          	seqz	a0,a0
1c001344:	b75d                	j	1c0012ea <__ledf2+0x52>

1c001346 <__mulsf3>:
1c001346:	cf751633          	p.extractu	a2,a0,7,23
1c00134a:	ec051733          	p.extractu	a4,a0,22,0
1c00134e:	817d                	srli	a0,a0,0x1f
1c001350:	c225                	beqz	a2,1c0013b0 <__mulsf3+0x6a>
1c001352:	0ff00793          	li	a5,255
1c001356:	06f60b63          	beq	a2,a5,1c0013cc <__mulsf3+0x86>
1c00135a:	070e                	slli	a4,a4,0x3
1c00135c:	c1a74733          	p.bset	a4,a4,0,26
1c001360:	f8160613          	addi	a2,a2,-127 # ffff81 <__L2+0xf7ff81>
1c001364:	4301                	li	t1,0
1c001366:	cf7596b3          	p.extractu	a3,a1,7,23
1c00136a:	ec0597b3          	p.extractu	a5,a1,22,0
1c00136e:	81fd                	srli	a1,a1,0x1f
1c001370:	c6bd                	beqz	a3,1c0013de <__mulsf3+0x98>
1c001372:	0ff00813          	li	a6,255
1c001376:	09068363          	beq	a3,a6,1c0013fc <__mulsf3+0xb6>
1c00137a:	078e                	slli	a5,a5,0x3
1c00137c:	c1a7c7b3          	p.bset	a5,a5,0,26
1c001380:	f8168693          	addi	a3,a3,-127
1c001384:	4801                	li	a6,0
1c001386:	96b2                	add	a3,a3,a2
1c001388:	00231613          	slli	a2,t1,0x2
1c00138c:	01066633          	or	a2,a2,a6
1c001390:	167d                	addi	a2,a2,-1
1c001392:	4eb9                	li	t4,14
1c001394:	00b548b3          	xor	a7,a0,a1
1c001398:	00168e13          	addi	t3,a3,1
1c00139c:	06cee963          	bltu	t4,a2,1c00140e <__mulsf3+0xc8>
1c0013a0:	1c0076b7          	lui	a3,0x1c007
1c0013a4:	060a                	slli	a2,a2,0x2
1c0013a6:	09468693          	addi	a3,a3,148 # 1c007094 <__DTOR_END__+0x168>
1c0013aa:	20c6f603          	p.lw	a2,a2(a3)
1c0013ae:	8602                	jr	a2
1c0013b0:	c705                	beqz	a4,1c0013d8 <__mulsf3+0x92>
1c0013b2:	100716b3          	p.fl1	a3,a4
1c0013b6:	47fd                	li	a5,31
1c0013b8:	40d786b3          	sub	a3,a5,a3
1c0013bc:	ffb68793          	addi	a5,a3,-5
1c0013c0:	f8a00613          	li	a2,-118
1c0013c4:	00f71733          	sll	a4,a4,a5
1c0013c8:	8e15                	sub	a2,a2,a3
1c0013ca:	bf69                	j	1c001364 <__mulsf3+0x1e>
1c0013cc:	0ff00613          	li	a2,255
1c0013d0:	4309                	li	t1,2
1c0013d2:	db51                	beqz	a4,1c001366 <__mulsf3+0x20>
1c0013d4:	430d                	li	t1,3
1c0013d6:	bf41                	j	1c001366 <__mulsf3+0x20>
1c0013d8:	4601                	li	a2,0
1c0013da:	4305                	li	t1,1
1c0013dc:	b769                	j	1c001366 <__mulsf3+0x20>
1c0013de:	c78d                	beqz	a5,1c001408 <__mulsf3+0xc2>
1c0013e0:	10079833          	p.fl1	a6,a5
1c0013e4:	46fd                	li	a3,31
1c0013e6:	41068833          	sub	a6,a3,a6
1c0013ea:	ffb80693          	addi	a3,a6,-5
1c0013ee:	00d797b3          	sll	a5,a5,a3
1c0013f2:	f8a00693          	li	a3,-118
1c0013f6:	410686b3          	sub	a3,a3,a6
1c0013fa:	b769                	j	1c001384 <__mulsf3+0x3e>
1c0013fc:	0ff00693          	li	a3,255
1c001400:	4809                	li	a6,2
1c001402:	d3d1                	beqz	a5,1c001386 <__mulsf3+0x40>
1c001404:	480d                	li	a6,3
1c001406:	b741                	j	1c001386 <__mulsf3+0x40>
1c001408:	4681                	li	a3,0
1c00140a:	4805                	li	a6,1
1c00140c:	bfad                	j	1c001386 <__mulsf3+0x40>
1c00140e:	6641                	lui	a2,0x10
1c001410:	fff60313          	addi	t1,a2,-1 # ffff <__l1_heap_size+0x1f>
1c001414:	01075593          	srli	a1,a4,0x10
1c001418:	0107de93          	srli	t4,a5,0x10
1c00141c:	0067f7b3          	and	a5,a5,t1
1c001420:	02f58533          	mul	a0,a1,a5
1c001424:	00677733          	and	a4,a4,t1
1c001428:	02f70833          	mul	a6,a4,a5
1c00142c:	03d587b3          	mul	a5,a1,t4
1c001430:	85aa                	mv	a1,a0
1c001432:	42ee85b3          	p.mac	a1,t4,a4
1c001436:	01085713          	srli	a4,a6,0x10
1c00143a:	972e                	add	a4,a4,a1
1c00143c:	00a77363          	bleu	a0,a4,1c001442 <__mulsf3+0xfc>
1c001440:	97b2                	add	a5,a5,a2
1c001442:	00677633          	and	a2,a4,t1
1c001446:	0642                	slli	a2,a2,0x10
1c001448:	00687833          	and	a6,a6,t1
1c00144c:	9642                	add	a2,a2,a6
1c00144e:	00661593          	slli	a1,a2,0x6
1c001452:	8341                	srli	a4,a4,0x10
1c001454:	97ba                	add	a5,a5,a4
1c001456:	00b035b3          	snez	a1,a1
1c00145a:	8269                	srli	a2,a2,0x1a
1c00145c:	8e4d                	or	a2,a2,a1
1c00145e:	079a                	slli	a5,a5,0x6
1c001460:	8fd1                	or	a5,a5,a2
1c001462:	00479713          	slli	a4,a5,0x4
1c001466:	06075763          	bgez	a4,1c0014d4 <__mulsf3+0x18e>
1c00146a:	0017d713          	srli	a4,a5,0x1
1c00146e:	fc17b7b3          	p.bclr	a5,a5,30,1
1c001472:	8fd9                	or	a5,a5,a4
1c001474:	07fe0693          	addi	a3,t3,127
1c001478:	06d05063          	blez	a3,1c0014d8 <__mulsf3+0x192>
1c00147c:	f837b733          	p.bclr	a4,a5,28,3
1c001480:	c711                	beqz	a4,1c00148c <__mulsf3+0x146>
1c001482:	f647b733          	p.bclr	a4,a5,27,4
1c001486:	00472363          	p.beqimm	a4,4,1c00148c <__mulsf3+0x146>
1c00148a:	0791                	addi	a5,a5,4
1c00148c:	00479713          	slli	a4,a5,0x4
1c001490:	00075663          	bgez	a4,1c00149c <__mulsf3+0x156>
1c001494:	c1b7b7b3          	p.bclr	a5,a5,0,27
1c001498:	080e0693          	addi	a3,t3,128
1c00149c:	0fe00713          	li	a4,254
1c0014a0:	08d74063          	blt	a4,a3,1c001520 <__mulsf3+0x1da>
1c0014a4:	0037d713          	srli	a4,a5,0x3
1c0014a8:	a821                	j	1c0014c0 <__mulsf3+0x17a>
1c0014aa:	88aa                	mv	a7,a0
1c0014ac:	87ba                	mv	a5,a4
1c0014ae:	881a                	mv	a6,t1
1c0014b0:	06282863          	p.beqimm	a6,2,1c001520 <__mulsf3+0x1da>
1c0014b4:	06382063          	p.beqimm	a6,3,1c001514 <__mulsf3+0x1ce>
1c0014b8:	4701                	li	a4,0
1c0014ba:	4681                	li	a3,0
1c0014bc:	fa183ce3          	p.bneimm	a6,1,1c001474 <__mulsf3+0x12e>
1c0014c0:	4501                	li	a0,0
1c0014c2:	ec072533          	p.insert	a0,a4,22,0
1c0014c6:	cf76a533          	p.insert	a0,a3,7,23
1c0014ca:	c1f8a533          	p.insert	a0,a7,0,31
1c0014ce:	8082                	ret
1c0014d0:	88ae                	mv	a7,a1
1c0014d2:	bff9                	j	1c0014b0 <__mulsf3+0x16a>
1c0014d4:	8e36                	mv	t3,a3
1c0014d6:	bf79                	j	1c001474 <__mulsf3+0x12e>
1c0014d8:	4705                	li	a4,1
1c0014da:	8f15                	sub	a4,a4,a3
1c0014dc:	46ed                	li	a3,27
1c0014de:	04e6c563          	blt	a3,a4,1c001528 <__mulsf3+0x1e2>
1c0014e2:	09ee0e13          	addi	t3,t3,158
1c0014e6:	00e7d733          	srl	a4,a5,a4
1c0014ea:	01c797b3          	sll	a5,a5,t3
1c0014ee:	00f037b3          	snez	a5,a5
1c0014f2:	8fd9                	or	a5,a5,a4
1c0014f4:	f837b733          	p.bclr	a4,a5,28,3
1c0014f8:	c711                	beqz	a4,1c001504 <__mulsf3+0x1be>
1c0014fa:	f647b733          	p.bclr	a4,a5,27,4
1c0014fe:	00472363          	p.beqimm	a4,4,1c001504 <__mulsf3+0x1be>
1c001502:	0791                	addi	a5,a5,4
1c001504:	00579713          	slli	a4,a5,0x5
1c001508:	02074263          	bltz	a4,1c00152c <__mulsf3+0x1e6>
1c00150c:	0037d713          	srli	a4,a5,0x3
1c001510:	4681                	li	a3,0
1c001512:	b77d                	j	1c0014c0 <__mulsf3+0x17a>
1c001514:	00400737          	lui	a4,0x400
1c001518:	0ff00693          	li	a3,255
1c00151c:	4881                	li	a7,0
1c00151e:	b74d                	j	1c0014c0 <__mulsf3+0x17a>
1c001520:	4701                	li	a4,0
1c001522:	0ff00693          	li	a3,255
1c001526:	bf69                	j	1c0014c0 <__mulsf3+0x17a>
1c001528:	4701                	li	a4,0
1c00152a:	b7dd                	j	1c001510 <__mulsf3+0x1ca>
1c00152c:	4701                	li	a4,0
1c00152e:	4685                	li	a3,1
1c001530:	bf41                	j	1c0014c0 <__mulsf3+0x17a>

1c001532 <__extendsfdf2>:
1c001532:	cf7516b3          	p.extractu	a3,a0,7,23
1c001536:	00168793          	addi	a5,a3,1
1c00153a:	ee87b7b3          	p.bclr	a5,a5,23,8
1c00153e:	4605                	li	a2,1
1c001540:	ec051733          	p.extractu	a4,a0,22,0
1c001544:	817d                	srli	a0,a0,0x1f
1c001546:	02f65163          	ble	a5,a2,1c001568 <__extendsfdf2+0x36>
1c00154a:	00375793          	srli	a5,a4,0x3
1c00154e:	38068693          	addi	a3,a3,896
1c001552:	0776                	slli	a4,a4,0x1d
1c001554:	4601                	li	a2,0
1c001556:	e607a633          	p.insert	a2,a5,19,0
1c00155a:	d546a633          	p.insert	a2,a3,10,20
1c00155e:	c1f52633          	p.insert	a2,a0,0,31
1c001562:	85b2                	mv	a1,a2
1c001564:	853a                	mv	a0,a4
1c001566:	8082                	ret
1c001568:	ee85                	bnez	a3,1c0015a0 <__extendsfdf2+0x6e>
1c00156a:	c729                	beqz	a4,1c0015b4 <__extendsfdf2+0x82>
1c00156c:	47fd                	li	a5,31
1c00156e:	10071633          	p.fl1	a2,a4
1c001572:	40c78633          	sub	a2,a5,a2
1c001576:	47a9                	li	a5,10
1c001578:	00c7ce63          	blt	a5,a2,1c001594 <__extendsfdf2+0x62>
1c00157c:	47ad                	li	a5,11
1c00157e:	8f91                	sub	a5,a5,a2
1c001580:	01560693          	addi	a3,a2,21
1c001584:	00f757b3          	srl	a5,a4,a5
1c001588:	00d71733          	sll	a4,a4,a3
1c00158c:	38900693          	li	a3,905
1c001590:	8e91                	sub	a3,a3,a2
1c001592:	b7c9                	j	1c001554 <__extendsfdf2+0x22>
1c001594:	ff560793          	addi	a5,a2,-11
1c001598:	00f717b3          	sll	a5,a4,a5
1c00159c:	4701                	li	a4,0
1c00159e:	b7fd                	j	1c00158c <__extendsfdf2+0x5a>
1c0015a0:	4781                	li	a5,0
1c0015a2:	c711                	beqz	a4,1c0015ae <__extendsfdf2+0x7c>
1c0015a4:	00375793          	srli	a5,a4,0x3
1c0015a8:	c137c7b3          	p.bset	a5,a5,0,19
1c0015ac:	0776                	slli	a4,a4,0x1d
1c0015ae:	7ff00693          	li	a3,2047
1c0015b2:	b74d                	j	1c001554 <__extendsfdf2+0x22>
1c0015b4:	4781                	li	a5,0
1c0015b6:	4681                	li	a3,0
1c0015b8:	bf71                	j	1c001554 <__extendsfdf2+0x22>

1c0015ba <pi_cluster_task>:
1c0015ba:	1101                	addi	sp,sp,-32
1c0015bc:	ce22                	sw	s0,28(sp)
1c0015be:	1000                	addi	s0,sp,32
1c0015c0:	fea42623          	sw	a0,-20(s0)
1c0015c4:	feb42423          	sw	a1,-24(s0)
1c0015c8:	fec42223          	sw	a2,-28(s0)
1c0015cc:	fec42783          	lw	a5,-20(s0)
1c0015d0:	fe842703          	lw	a4,-24(s0)
1c0015d4:	c398                	sw	a4,0(a5)
1c0015d6:	fec42783          	lw	a5,-20(s0)
1c0015da:	fe442703          	lw	a4,-28(s0)
1c0015de:	c3d8                	sw	a4,4(a5)
1c0015e0:	fec42783          	lw	a5,-20(s0)
1c0015e4:	0007a423          	sw	zero,8(a5) # 400008 <__L2+0x380008>
1c0015e8:	fec42783          	lw	a5,-20(s0)
1c0015ec:	0007a623          	sw	zero,12(a5)
1c0015f0:	fec42783          	lw	a5,-20(s0)
1c0015f4:	0007a823          	sw	zero,16(a5)
1c0015f8:	fec42783          	lw	a5,-20(s0)
1c0015fc:	0007aa23          	sw	zero,20(a5)
1c001600:	fec42783          	lw	a5,-20(s0)
1c001604:	853e                	mv	a0,a5
1c001606:	4472                	lw	s0,28(sp)
1c001608:	6105                	addi	sp,sp,32
1c00160a:	8082                	ret

1c00160c <core_id>:
1c00160c:	1101                	addi	sp,sp,-32
1c00160e:	ce22                	sw	s0,28(sp)
1c001610:	1000                	addi	s0,sp,32
1c001612:	014027f3          	csrr	a5,uhartid
1c001616:	fef42623          	sw	a5,-20(s0)
1c00161a:	fec42783          	lw	a5,-20(s0)
1c00161e:	f457b7b3          	p.bclr	a5,a5,26,5
1c001622:	853e                	mv	a0,a5
1c001624:	4472                	lw	s0,28(sp)
1c001626:	6105                	addi	sp,sp,32
1c001628:	8082                	ret

1c00162a <cluster_id>:
1c00162a:	1101                	addi	sp,sp,-32
1c00162c:	ce22                	sw	s0,28(sp)
1c00162e:	1000                	addi	s0,sp,32
1c001630:	014027f3          	csrr	a5,uhartid
1c001634:	fef42623          	sw	a5,-20(s0)
1c001638:	fec42783          	lw	a5,-20(s0)
1c00163c:	8795                	srai	a5,a5,0x5
1c00163e:	f267b7b3          	p.bclr	a5,a5,25,6
1c001642:	853e                	mv	a0,a5
1c001644:	4472                	lw	s0,28(sp)
1c001646:	6105                	addi	sp,sp,32
1c001648:	8082                	ret

1c00164a <hal_core_id>:
1c00164a:	1141                	addi	sp,sp,-16
1c00164c:	c606                	sw	ra,12(sp)
1c00164e:	c422                	sw	s0,8(sp)
1c001650:	0800                	addi	s0,sp,16
1c001652:	3f6d                	jal	1c00160c <core_id>
1c001654:	87aa                	mv	a5,a0
1c001656:	853e                	mv	a0,a5
1c001658:	40b2                	lw	ra,12(sp)
1c00165a:	4422                	lw	s0,8(sp)
1c00165c:	0141                	addi	sp,sp,16
1c00165e:	8082                	ret

1c001660 <hal_cluster_id>:
1c001660:	1141                	addi	sp,sp,-16
1c001662:	c606                	sw	ra,12(sp)
1c001664:	c422                	sw	s0,8(sp)
1c001666:	0800                	addi	s0,sp,16
1c001668:	37c9                	jal	1c00162a <cluster_id>
1c00166a:	87aa                	mv	a5,a0
1c00166c:	853e                	mv	a0,a5
1c00166e:	40b2                	lw	ra,12(sp)
1c001670:	4422                	lw	s0,8(sp)
1c001672:	0141                	addi	sp,sp,16
1c001674:	8082                	ret

1c001676 <cpu_perf_conf_events>:
1c001676:	1101                	addi	sp,sp,-32
1c001678:	ce22                	sw	s0,28(sp)
1c00167a:	1000                	addi	s0,sp,32
1c00167c:	fea42623          	sw	a0,-20(s0)
1c001680:	fec42783          	lw	a5,-20(s0)
1c001684:	7a079073          	csrw	pcer,a5
1c001688:	fef42623          	sw	a5,-20(s0)
1c00168c:	0001                	nop
1c00168e:	4472                	lw	s0,28(sp)
1c001690:	6105                	addi	sp,sp,32
1c001692:	8082                	ret

1c001694 <cpu_perf_conf>:
1c001694:	1101                	addi	sp,sp,-32
1c001696:	ce22                	sw	s0,28(sp)
1c001698:	1000                	addi	s0,sp,32
1c00169a:	fea42623          	sw	a0,-20(s0)
1c00169e:	fec42783          	lw	a5,-20(s0)
1c0016a2:	7a179073          	csrw	pcmr,a5
1c0016a6:	0001                	nop
1c0016a8:	4472                	lw	s0,28(sp)
1c0016aa:	6105                	addi	sp,sp,32
1c0016ac:	8082                	ret

1c0016ae <cpu_perf_setall>:
1c0016ae:	1101                	addi	sp,sp,-32
1c0016b0:	ce22                	sw	s0,28(sp)
1c0016b2:	1000                	addi	s0,sp,32
1c0016b4:	fea42623          	sw	a0,-20(s0)
1c0016b8:	fec42783          	lw	a5,-20(s0)
1c0016bc:	79f79073          	csrw	pccr31,a5
1c0016c0:	0001                	nop
1c0016c2:	4472                	lw	s0,28(sp)
1c0016c4:	6105                	addi	sp,sp,32
1c0016c6:	8082                	ret

1c0016c8 <cpu_perf_get>:
1c0016c8:	7179                	addi	sp,sp,-48
1c0016ca:	d622                	sw	s0,44(sp)
1c0016cc:	1800                	addi	s0,sp,48
1c0016ce:	fca42e23          	sw	a0,-36(s0)
1c0016d2:	fe042623          	sw	zero,-20(s0)
1c0016d6:	fdc42783          	lw	a5,-36(s0)
1c0016da:	14f7a863          	p.beqimm	a5,15,1c00182a <cpu_perf_get+0x162>
1c0016de:	473d                	li	a4,15
1c0016e0:	04f76963          	bltu	a4,a5,1c001732 <cpu_perf_get+0x6a>
1c0016e4:	0e77ab63          	p.beqimm	a5,7,1c0017da <cpu_perf_get+0x112>
1c0016e8:	471d                	li	a4,7
1c0016ea:	02f76363          	bltu	a4,a5,1c001710 <cpu_perf_get+0x48>
1c0016ee:	0c37a263          	p.beqimm	a5,3,1c0017b2 <cpu_perf_get+0xea>
1c0016f2:	470d                	li	a4,3
1c0016f4:	00f76863          	bltu	a4,a5,1c001704 <cpu_perf_get+0x3c>
1c0016f8:	0a17a363          	p.beqimm	a5,1,1c00179e <cpu_perf_get+0xd6>
1c0016fc:	4705                	li	a4,1
1c0016fe:	0af76563          	bltu	a4,a5,1c0017a8 <cpu_perf_get+0xe0>
1c001702:	a849                	j	1c001794 <cpu_perf_get+0xcc>
1c001704:	0c57a163          	p.beqimm	a5,5,1c0017c6 <cpu_perf_get+0xfe>
1c001708:	4715                	li	a4,5
1c00170a:	0cf76363          	bltu	a4,a5,1c0017d0 <cpu_perf_get+0x108>
1c00170e:	a07d                	j	1c0017bc <cpu_perf_get+0xf4>
1c001710:	0eb7a963          	p.beqimm	a5,11,1c001802 <cpu_perf_get+0x13a>
1c001714:	472d                	li	a4,11
1c001716:	00f76863          	bltu	a4,a5,1c001726 <cpu_perf_get+0x5e>
1c00171a:	0c97aa63          	p.beqimm	a5,9,1c0017ee <cpu_perf_get+0x126>
1c00171e:	4725                	li	a4,9
1c001720:	0cf76c63          	bltu	a4,a5,1c0017f8 <cpu_perf_get+0x130>
1c001724:	a0c1                	j	1c0017e4 <cpu_perf_get+0x11c>
1c001726:	0ed7a863          	p.beqimm	a5,13,1c001816 <cpu_perf_get+0x14e>
1c00172a:	4735                	li	a4,13
1c00172c:	0ef76a63          	bltu	a4,a5,1c001820 <cpu_perf_get+0x158>
1c001730:	a8f1                	j	1c00180c <cpu_perf_get+0x144>
1c001732:	475d                	li	a4,23
1c001734:	14e78363          	beq	a5,a4,1c00187a <cpu_perf_get+0x1b2>
1c001738:	475d                	li	a4,23
1c00173a:	02f76663          	bltu	a4,a5,1c001766 <cpu_perf_get+0x9e>
1c00173e:	474d                	li	a4,19
1c001740:	10e78963          	beq	a5,a4,1c001852 <cpu_perf_get+0x18a>
1c001744:	474d                	li	a4,19
1c001746:	00f76963          	bltu	a4,a5,1c001758 <cpu_perf_get+0x90>
1c00174a:	4745                	li	a4,17
1c00174c:	0ee78963          	beq	a5,a4,1c00183e <cpu_perf_get+0x176>
1c001750:	4745                	li	a4,17
1c001752:	0ef76b63          	bltu	a4,a5,1c001848 <cpu_perf_get+0x180>
1c001756:	a8f9                	j	1c001834 <cpu_perf_get+0x16c>
1c001758:	4755                	li	a4,21
1c00175a:	10e78663          	beq	a5,a4,1c001866 <cpu_perf_get+0x19e>
1c00175e:	4755                	li	a4,21
1c001760:	10f76863          	bltu	a4,a5,1c001870 <cpu_perf_get+0x1a8>
1c001764:	a8e5                	j	1c00185c <cpu_perf_get+0x194>
1c001766:	476d                	li	a4,27
1c001768:	12e78d63          	beq	a5,a4,1c0018a2 <cpu_perf_get+0x1da>
1c00176c:	476d                	li	a4,27
1c00176e:	00f76963          	bltu	a4,a5,1c001780 <cpu_perf_get+0xb8>
1c001772:	4765                	li	a4,25
1c001774:	10e78d63          	beq	a5,a4,1c00188e <cpu_perf_get+0x1c6>
1c001778:	4765                	li	a4,25
1c00177a:	10f76f63          	bltu	a4,a5,1c001898 <cpu_perf_get+0x1d0>
1c00177e:	a219                	j	1c001884 <cpu_perf_get+0x1bc>
1c001780:	4775                	li	a4,29
1c001782:	12e78a63          	beq	a5,a4,1c0018b6 <cpu_perf_get+0x1ee>
1c001786:	4775                	li	a4,29
1c001788:	12e7e263          	bltu	a5,a4,1c0018ac <cpu_perf_get+0x1e4>
1c00178c:	4779                	li	a4,30
1c00178e:	12e78963          	beq	a5,a4,1c0018c0 <cpu_perf_get+0x1f8>
1c001792:	aa25                	j	1c0018ca <cpu_perf_get+0x202>
1c001794:	780027f3          	csrr	a5,pccr0
1c001798:	fef42623          	sw	a5,-20(s0)
1c00179c:	a23d                	j	1c0018ca <cpu_perf_get+0x202>
1c00179e:	781027f3          	csrr	a5,pccr1
1c0017a2:	fef42623          	sw	a5,-20(s0)
1c0017a6:	a215                	j	1c0018ca <cpu_perf_get+0x202>
1c0017a8:	782027f3          	csrr	a5,pccr2
1c0017ac:	fef42623          	sw	a5,-20(s0)
1c0017b0:	aa29                	j	1c0018ca <cpu_perf_get+0x202>
1c0017b2:	783027f3          	csrr	a5,pccr3
1c0017b6:	fef42623          	sw	a5,-20(s0)
1c0017ba:	aa01                	j	1c0018ca <cpu_perf_get+0x202>
1c0017bc:	784027f3          	csrr	a5,pccr4
1c0017c0:	fef42623          	sw	a5,-20(s0)
1c0017c4:	a219                	j	1c0018ca <cpu_perf_get+0x202>
1c0017c6:	785027f3          	csrr	a5,pccr5
1c0017ca:	fef42623          	sw	a5,-20(s0)
1c0017ce:	a8f5                	j	1c0018ca <cpu_perf_get+0x202>
1c0017d0:	786027f3          	csrr	a5,pccr6
1c0017d4:	fef42623          	sw	a5,-20(s0)
1c0017d8:	a8cd                	j	1c0018ca <cpu_perf_get+0x202>
1c0017da:	787027f3          	csrr	a5,pccr7
1c0017de:	fef42623          	sw	a5,-20(s0)
1c0017e2:	a0e5                	j	1c0018ca <cpu_perf_get+0x202>
1c0017e4:	788027f3          	csrr	a5,pccr8
1c0017e8:	fef42623          	sw	a5,-20(s0)
1c0017ec:	a8f9                	j	1c0018ca <cpu_perf_get+0x202>
1c0017ee:	789027f3          	csrr	a5,pccr9
1c0017f2:	fef42623          	sw	a5,-20(s0)
1c0017f6:	a8d1                	j	1c0018ca <cpu_perf_get+0x202>
1c0017f8:	78a027f3          	csrr	a5,pccr10
1c0017fc:	fef42623          	sw	a5,-20(s0)
1c001800:	a0e9                	j	1c0018ca <cpu_perf_get+0x202>
1c001802:	78b027f3          	csrr	a5,pccr11
1c001806:	fef42623          	sw	a5,-20(s0)
1c00180a:	a0c1                	j	1c0018ca <cpu_perf_get+0x202>
1c00180c:	78c027f3          	csrr	a5,pccr12
1c001810:	fef42623          	sw	a5,-20(s0)
1c001814:	a85d                	j	1c0018ca <cpu_perf_get+0x202>
1c001816:	78d027f3          	csrr	a5,pccr13
1c00181a:	fef42623          	sw	a5,-20(s0)
1c00181e:	a075                	j	1c0018ca <cpu_perf_get+0x202>
1c001820:	78e027f3          	csrr	a5,pccr14
1c001824:	fef42623          	sw	a5,-20(s0)
1c001828:	a04d                	j	1c0018ca <cpu_perf_get+0x202>
1c00182a:	78f027f3          	csrr	a5,pccr15
1c00182e:	fef42623          	sw	a5,-20(s0)
1c001832:	a861                	j	1c0018ca <cpu_perf_get+0x202>
1c001834:	790027f3          	csrr	a5,pccr16
1c001838:	fef42623          	sw	a5,-20(s0)
1c00183c:	a079                	j	1c0018ca <cpu_perf_get+0x202>
1c00183e:	791027f3          	csrr	a5,pccr17
1c001842:	fef42623          	sw	a5,-20(s0)
1c001846:	a051                	j	1c0018ca <cpu_perf_get+0x202>
1c001848:	792027f3          	csrr	a5,pccr18
1c00184c:	fef42623          	sw	a5,-20(s0)
1c001850:	a8ad                	j	1c0018ca <cpu_perf_get+0x202>
1c001852:	793027f3          	csrr	a5,pccr19
1c001856:	fef42623          	sw	a5,-20(s0)
1c00185a:	a885                	j	1c0018ca <cpu_perf_get+0x202>
1c00185c:	794027f3          	csrr	a5,pccr20
1c001860:	fef42623          	sw	a5,-20(s0)
1c001864:	a09d                	j	1c0018ca <cpu_perf_get+0x202>
1c001866:	795027f3          	csrr	a5,pccr21
1c00186a:	fef42623          	sw	a5,-20(s0)
1c00186e:	a8b1                	j	1c0018ca <cpu_perf_get+0x202>
1c001870:	796027f3          	csrr	a5,pccr22
1c001874:	fef42623          	sw	a5,-20(s0)
1c001878:	a889                	j	1c0018ca <cpu_perf_get+0x202>
1c00187a:	797027f3          	csrr	a5,pccr23
1c00187e:	fef42623          	sw	a5,-20(s0)
1c001882:	a0a1                	j	1c0018ca <cpu_perf_get+0x202>
1c001884:	798027f3          	csrr	a5,pccr24
1c001888:	fef42623          	sw	a5,-20(s0)
1c00188c:	a83d                	j	1c0018ca <cpu_perf_get+0x202>
1c00188e:	799027f3          	csrr	a5,pccr25
1c001892:	fef42623          	sw	a5,-20(s0)
1c001896:	a815                	j	1c0018ca <cpu_perf_get+0x202>
1c001898:	79a027f3          	csrr	a5,pccr26
1c00189c:	fef42623          	sw	a5,-20(s0)
1c0018a0:	a02d                	j	1c0018ca <cpu_perf_get+0x202>
1c0018a2:	79b027f3          	csrr	a5,pccr27
1c0018a6:	fef42623          	sw	a5,-20(s0)
1c0018aa:	a005                	j	1c0018ca <cpu_perf_get+0x202>
1c0018ac:	79c027f3          	csrr	a5,pccr28
1c0018b0:	fef42623          	sw	a5,-20(s0)
1c0018b4:	a819                	j	1c0018ca <cpu_perf_get+0x202>
1c0018b6:	79d027f3          	csrr	a5,pccr29
1c0018ba:	fef42623          	sw	a5,-20(s0)
1c0018be:	a031                	j	1c0018ca <cpu_perf_get+0x202>
1c0018c0:	79e027f3          	csrr	a5,pccr30
1c0018c4:	fef42623          	sw	a5,-20(s0)
1c0018c8:	0001                	nop
1c0018ca:	fec42783          	lw	a5,-20(s0)
1c0018ce:	853e                	mv	a0,a5
1c0018d0:	5432                	lw	s0,44(sp)
1c0018d2:	6145                	addi	sp,sp,48
1c0018d4:	8082                	ret

1c0018d6 <eu_bar_addr>:
1c0018d6:	1101                	addi	sp,sp,-32
1c0018d8:	ce22                	sw	s0,28(sp)
1c0018da:	1000                	addi	s0,sp,32
1c0018dc:	fea42623          	sw	a0,-20(s0)
1c0018e0:	fec42703          	lw	a4,-20(s0)
1c0018e4:	67c1                	lui	a5,0x10
1c0018e6:	21078793          	addi	a5,a5,528 # 10210 <__L1Cl+0x210>
1c0018ea:	97ba                	add	a5,a5,a4
1c0018ec:	0796                	slli	a5,a5,0x5
1c0018ee:	853e                	mv	a0,a5
1c0018f0:	4472                	lw	s0,28(sp)
1c0018f2:	6105                	addi	sp,sp,32
1c0018f4:	8082                	ret

1c0018f6 <eu_bar_trig_wait_clr>:
1c0018f6:	7179                	addi	sp,sp,-48
1c0018f8:	d622                	sw	s0,44(sp)
1c0018fa:	1800                	addi	s0,sp,48
1c0018fc:	fca42e23          	sw	a0,-36(s0)
1c001900:	fdc42703          	lw	a4,-36(s0)
1c001904:	01c76783          	p.elw	a5,28(a4) # 40001c <__L2+0x38001c>
1c001908:	fef42623          	sw	a5,-20(s0)
1c00190c:	fec42783          	lw	a5,-20(s0)
1c001910:	853e                	mv	a0,a5
1c001912:	5432                	lw	s0,44(sp)
1c001914:	6145                	addi	sp,sp,48
1c001916:	8082                	ret

1c001918 <eu_bar_setup_mask>:
1c001918:	1101                	addi	sp,sp,-32
1c00191a:	ce22                	sw	s0,28(sp)
1c00191c:	1000                	addi	s0,sp,32
1c00191e:	fea42623          	sw	a0,-20(s0)
1c001922:	feb42423          	sw	a1,-24(s0)
1c001926:	fec42223          	sw	a2,-28(s0)
1c00192a:	fe842783          	lw	a5,-24(s0)
1c00192e:	fec42703          	lw	a4,-20(s0)
1c001932:	00f72023          	sw	a5,0(a4)
1c001936:	fe442783          	lw	a5,-28(s0)
1c00193a:	fec42703          	lw	a4,-20(s0)
1c00193e:	00f72623          	sw	a5,12(a4)
1c001942:	0001                	nop
1c001944:	4472                	lw	s0,28(sp)
1c001946:	6105                	addi	sp,sp,32
1c001948:	8082                	ret

1c00194a <eu_bar_setup>:
1c00194a:	1101                	addi	sp,sp,-32
1c00194c:	ce06                	sw	ra,28(sp)
1c00194e:	cc22                	sw	s0,24(sp)
1c001950:	1000                	addi	s0,sp,32
1c001952:	fea42623          	sw	a0,-20(s0)
1c001956:	feb42423          	sw	a1,-24(s0)
1c00195a:	fe842603          	lw	a2,-24(s0)
1c00195e:	fe842583          	lw	a1,-24(s0)
1c001962:	fec42503          	lw	a0,-20(s0)
1c001966:	3f4d                	jal	1c001918 <eu_bar_setup_mask>
1c001968:	0001                	nop
1c00196a:	40f2                	lw	ra,28(sp)
1c00196c:	4462                	lw	s0,24(sp)
1c00196e:	6105                	addi	sp,sp,32
1c001970:	8082                	ret

1c001972 <eu_dispatch_push>:
1c001972:	1101                	addi	sp,sp,-32
1c001974:	ce22                	sw	s0,28(sp)
1c001976:	1000                	addi	s0,sp,32
1c001978:	fea42623          	sw	a0,-20(s0)
1c00197c:	fec42783          	lw	a5,-20(s0)
1c001980:	00204737          	lui	a4,0x204
1c001984:	08f72023          	sw	a5,128(a4) # 204080 <__L2+0x184080>
1c001988:	0001                	nop
1c00198a:	4472                	lw	s0,28(sp)
1c00198c:	6105                	addi	sp,sp,32
1c00198e:	8082                	ret

1c001990 <eu_dispatch_team_config>:
1c001990:	1101                	addi	sp,sp,-32
1c001992:	ce22                	sw	s0,28(sp)
1c001994:	1000                	addi	s0,sp,32
1c001996:	fea42623          	sw	a0,-20(s0)
1c00199a:	fec42783          	lw	a5,-20(s0)
1c00199e:	00204737          	lui	a4,0x204
1c0019a2:	08f72223          	sw	a5,132(a4) # 204084 <__L2+0x184084>
1c0019a6:	0001                	nop
1c0019a8:	4472                	lw	s0,28(sp)
1c0019aa:	6105                	addi	sp,sp,32
1c0019ac:	8082                	ret

1c0019ae <timer_cfg_lo_set>:
1c0019ae:	1101                	addi	sp,sp,-32
1c0019b0:	ce22                	sw	s0,28(sp)
1c0019b2:	1000                	addi	s0,sp,32
1c0019b4:	fea42623          	sw	a0,-20(s0)
1c0019b8:	feb42423          	sw	a1,-24(s0)
1c0019bc:	fe842783          	lw	a5,-24(s0)
1c0019c0:	fec42703          	lw	a4,-20(s0)
1c0019c4:	00f72023          	sw	a5,0(a4)
1c0019c8:	0001                	nop
1c0019ca:	4472                	lw	s0,28(sp)
1c0019cc:	6105                	addi	sp,sp,32
1c0019ce:	8082                	ret

1c0019d0 <timer_cnt_lo_get>:
1c0019d0:	1101                	addi	sp,sp,-32
1c0019d2:	ce22                	sw	s0,28(sp)
1c0019d4:	1000                	addi	s0,sp,32
1c0019d6:	fea42623          	sw	a0,-20(s0)
1c0019da:	fec42783          	lw	a5,-20(s0)
1c0019de:	0087a783          	lw	a5,8(a5)
1c0019e2:	853e                	mv	a0,a5
1c0019e4:	4472                	lw	s0,28(sp)
1c0019e6:	6105                	addi	sp,sp,32
1c0019e8:	8082                	ret

1c0019ea <timer_start_lo_set>:
1c0019ea:	1101                	addi	sp,sp,-32
1c0019ec:	ce22                	sw	s0,28(sp)
1c0019ee:	1000                	addi	s0,sp,32
1c0019f0:	fea42623          	sw	a0,-20(s0)
1c0019f4:	feb42423          	sw	a1,-24(s0)
1c0019f8:	fe842783          	lw	a5,-24(s0)
1c0019fc:	fec42703          	lw	a4,-20(s0)
1c001a00:	00f72c23          	sw	a5,24(a4)
1c001a04:	0001                	nop
1c001a06:	4472                	lw	s0,28(sp)
1c001a08:	6105                	addi	sp,sp,32
1c001a0a:	8082                	ret

1c001a0c <timer_reset_lo_set>:
1c001a0c:	1101                	addi	sp,sp,-32
1c001a0e:	ce22                	sw	s0,28(sp)
1c001a10:	1000                	addi	s0,sp,32
1c001a12:	fea42623          	sw	a0,-20(s0)
1c001a16:	feb42423          	sw	a1,-24(s0)
1c001a1a:	fe842783          	lw	a5,-24(s0)
1c001a1e:	fec42703          	lw	a4,-20(s0)
1c001a22:	02f72023          	sw	a5,32(a4)
1c001a26:	0001                	nop
1c001a28:	4472                	lw	s0,28(sp)
1c001a2a:	6105                	addi	sp,sp,32
1c001a2c:	8082                	ret

1c001a2e <timer_base_fc>:
1c001a2e:	1101                	addi	sp,sp,-32
1c001a30:	ce22                	sw	s0,28(sp)
1c001a32:	1000                	addi	s0,sp,32
1c001a34:	fea42623          	sw	a0,-20(s0)
1c001a38:	feb42423          	sw	a1,-24(s0)
1c001a3c:	fec42783          	lw	a5,-20(s0)
1c001a40:	00b79713          	slli	a4,a5,0xb
1c001a44:	002007b7          	lui	a5,0x200
1c001a48:	40078793          	addi	a5,a5,1024 # 200400 <__L2+0x180400>
1c001a4c:	973e                	add	a4,a4,a5
1c001a4e:	fe842783          	lw	a5,-24(s0)
1c001a52:	078a                	slli	a5,a5,0x2
1c001a54:	97ba                	add	a5,a5,a4
1c001a56:	853e                	mv	a0,a5
1c001a58:	4472                	lw	s0,28(sp)
1c001a5a:	6105                	addi	sp,sp,32
1c001a5c:	8082                	ret

1c001a5e <timer_base_cl>:
1c001a5e:	1101                	addi	sp,sp,-32
1c001a60:	ce22                	sw	s0,28(sp)
1c001a62:	1000                	addi	s0,sp,32
1c001a64:	fea42623          	sw	a0,-20(s0)
1c001a68:	feb42423          	sw	a1,-24(s0)
1c001a6c:	fec42223          	sw	a2,-28(s0)
1c001a70:	fe842783          	lw	a5,-24(s0)
1c001a74:	00b79713          	slli	a4,a5,0xb
1c001a78:	102007b7          	lui	a5,0x10200
1c001a7c:	40078793          	addi	a5,a5,1024 # 10200400 <__l1_end+0x2003e0>
1c001a80:	973e                	add	a4,a4,a5
1c001a82:	fe442783          	lw	a5,-28(s0)
1c001a86:	078a                	slli	a5,a5,0x2
1c001a88:	97ba                	add	a5,a5,a4
1c001a8a:	853e                	mv	a0,a5
1c001a8c:	4472                	lw	s0,28(sp)
1c001a8e:	6105                	addi	sp,sp,32
1c001a90:	8082                	ret

1c001a92 <timer_conf_set>:
1c001a92:	1101                	addi	sp,sp,-32
1c001a94:	ce06                	sw	ra,28(sp)
1c001a96:	cc22                	sw	s0,24(sp)
1c001a98:	1000                	addi	s0,sp,32
1c001a9a:	fea42623          	sw	a0,-20(s0)
1c001a9e:	feb42423          	sw	a1,-24(s0)
1c001aa2:	fe842583          	lw	a1,-24(s0)
1c001aa6:	fec42503          	lw	a0,-20(s0)
1c001aaa:	3711                	jal	1c0019ae <timer_cfg_lo_set>
1c001aac:	0001                	nop
1c001aae:	40f2                	lw	ra,28(sp)
1c001ab0:	4462                	lw	s0,24(sp)
1c001ab2:	6105                	addi	sp,sp,32
1c001ab4:	8082                	ret

1c001ab6 <timer_count_get>:
1c001ab6:	1101                	addi	sp,sp,-32
1c001ab8:	ce06                	sw	ra,28(sp)
1c001aba:	cc22                	sw	s0,24(sp)
1c001abc:	1000                	addi	s0,sp,32
1c001abe:	fea42623          	sw	a0,-20(s0)
1c001ac2:	fec42503          	lw	a0,-20(s0)
1c001ac6:	3729                	jal	1c0019d0 <timer_cnt_lo_get>
1c001ac8:	87aa                	mv	a5,a0
1c001aca:	853e                	mv	a0,a5
1c001acc:	40f2                	lw	ra,28(sp)
1c001ace:	4462                	lw	s0,24(sp)
1c001ad0:	6105                	addi	sp,sp,32
1c001ad2:	8082                	ret

1c001ad4 <timer_reset>:
1c001ad4:	1101                	addi	sp,sp,-32
1c001ad6:	ce06                	sw	ra,28(sp)
1c001ad8:	cc22                	sw	s0,24(sp)
1c001ada:	1000                	addi	s0,sp,32
1c001adc:	fea42623          	sw	a0,-20(s0)
1c001ae0:	4585                	li	a1,1
1c001ae2:	fec42503          	lw	a0,-20(s0)
1c001ae6:	371d                	jal	1c001a0c <timer_reset_lo_set>
1c001ae8:	0001                	nop
1c001aea:	40f2                	lw	ra,28(sp)
1c001aec:	4462                	lw	s0,24(sp)
1c001aee:	6105                	addi	sp,sp,32
1c001af0:	8082                	ret

1c001af2 <timer_start>:
1c001af2:	1101                	addi	sp,sp,-32
1c001af4:	ce06                	sw	ra,28(sp)
1c001af6:	cc22                	sw	s0,24(sp)
1c001af8:	1000                	addi	s0,sp,32
1c001afa:	fea42623          	sw	a0,-20(s0)
1c001afe:	4585                	li	a1,1
1c001b00:	fec42503          	lw	a0,-20(s0)
1c001b04:	35dd                	jal	1c0019ea <timer_start_lo_set>
1c001b06:	0001                	nop
1c001b08:	40f2                	lw	ra,28(sp)
1c001b0a:	4462                	lw	s0,24(sp)
1c001b0c:	6105                	addi	sp,sp,32
1c001b0e:	8082                	ret

1c001b10 <pi_core_id>:
1c001b10:	1141                	addi	sp,sp,-16
1c001b12:	c606                	sw	ra,12(sp)
1c001b14:	c422                	sw	s0,8(sp)
1c001b16:	0800                	addi	s0,sp,16
1c001b18:	2685                	jal	1c001e78 <rt_core_id>
1c001b1a:	87aa                	mv	a5,a0
1c001b1c:	853e                	mv	a0,a5
1c001b1e:	40b2                	lw	ra,12(sp)
1c001b20:	4422                	lw	s0,8(sp)
1c001b22:	0141                	addi	sp,sp,16
1c001b24:	8082                	ret

1c001b26 <pi_cluster_id>:
1c001b26:	1141                	addi	sp,sp,-16
1c001b28:	c606                	sw	ra,12(sp)
1c001b2a:	c422                	sw	s0,8(sp)
1c001b2c:	0800                	addi	s0,sp,16
1c001b2e:	2e0d                	jal	1c001e60 <rt_cluster_id>
1c001b30:	87aa                	mv	a5,a0
1c001b32:	853e                	mv	a0,a5
1c001b34:	40b2                	lw	ra,12(sp)
1c001b36:	4422                	lw	s0,8(sp)
1c001b38:	0141                	addi	sp,sp,16
1c001b3a:	8082                	ret

1c001b3c <__rt_team_barrier_config>:
1c001b3c:	1101                	addi	sp,sp,-32
1c001b3e:	ce06                	sw	ra,28(sp)
1c001b40:	cc22                	sw	s0,24(sp)
1c001b42:	1000                	addi	s0,sp,32
1c001b44:	fea42623          	sw	a0,-20(s0)
1c001b48:	4501                	li	a0,0
1c001b4a:	3371                	jal	1c0018d6 <eu_bar_addr>
1c001b4c:	87aa                	mv	a5,a0
1c001b4e:	fec42583          	lw	a1,-20(s0)
1c001b52:	853e                	mv	a0,a5
1c001b54:	3bdd                	jal	1c00194a <eu_bar_setup>
1c001b56:	0001                	nop
1c001b58:	40f2                	lw	ra,28(sp)
1c001b5a:	4462                	lw	s0,24(sp)
1c001b5c:	6105                	addi	sp,sp,32
1c001b5e:	8082                	ret

1c001b60 <__rt_team_config>:
1c001b60:	7179                	addi	sp,sp,-48
1c001b62:	d606                	sw	ra,44(sp)
1c001b64:	d422                	sw	s0,40(sp)
1c001b66:	1800                	addi	s0,sp,48
1c001b68:	fca42e23          	sw	a0,-36(s0)
1c001b6c:	4705                	li	a4,1
1c001b6e:	fdc42783          	lw	a5,-36(s0)
1c001b72:	00f717b3          	sll	a5,a4,a5
1c001b76:	17fd                	addi	a5,a5,-1
1c001b78:	fef42623          	sw	a5,-20(s0)
1c001b7c:	fec42503          	lw	a0,-20(s0)
1c001b80:	3d01                	jal	1c001990 <eu_dispatch_team_config>
1c001b82:	fec42503          	lw	a0,-20(s0)
1c001b86:	3f5d                	jal	1c001b3c <__rt_team_barrier_config>
1c001b88:	0001                	nop
1c001b8a:	50b2                	lw	ra,44(sp)
1c001b8c:	5422                	lw	s0,40(sp)
1c001b8e:	6145                	addi	sp,sp,48
1c001b90:	8082                	ret

1c001b92 <pi_cl_team_fork>:
1c001b92:	1101                	addi	sp,sp,-32
1c001b94:	ce06                	sw	ra,28(sp)
1c001b96:	cc22                	sw	s0,24(sp)
1c001b98:	1000                	addi	s0,sp,32
1c001b9a:	fea42623          	sw	a0,-20(s0)
1c001b9e:	feb42423          	sw	a1,-24(s0)
1c001ba2:	fec42223          	sw	a2,-28(s0)
1c001ba6:	fe442603          	lw	a2,-28(s0)
1c001baa:	fe842583          	lw	a1,-24(s0)
1c001bae:	fec42503          	lw	a0,-20(s0)
1c001bb2:	2031                	jal	1c001bbe <rt_team_fork>
1c001bb4:	0001                	nop
1c001bb6:	40f2                	lw	ra,28(sp)
1c001bb8:	4462                	lw	s0,24(sp)
1c001bba:	6105                	addi	sp,sp,32
1c001bbc:	8082                	ret

1c001bbe <rt_team_fork>:
1c001bbe:	1101                	addi	sp,sp,-32
1c001bc0:	ce06                	sw	ra,28(sp)
1c001bc2:	cc22                	sw	s0,24(sp)
1c001bc4:	1000                	addi	s0,sp,32
1c001bc6:	fea42623          	sw	a0,-20(s0)
1c001bca:	feb42423          	sw	a1,-24(s0)
1c001bce:	fec42223          	sw	a2,-28(s0)
1c001bd2:	fec42783          	lw	a5,-20(s0)
1c001bd6:	c781                	beqz	a5,1c001bde <rt_team_fork+0x20>
1c001bd8:	fec42503          	lw	a0,-20(s0)
1c001bdc:	3751                	jal	1c001b60 <__rt_team_config>
1c001bde:	fe842783          	lw	a5,-24(s0)
1c001be2:	853e                	mv	a0,a5
1c001be4:	3379                	jal	1c001972 <eu_dispatch_push>
1c001be6:	fe442783          	lw	a5,-28(s0)
1c001bea:	853e                	mv	a0,a5
1c001bec:	3359                	jal	1c001972 <eu_dispatch_push>
1c001bee:	fe842783          	lw	a5,-24(s0)
1c001bf2:	fe442503          	lw	a0,-28(s0)
1c001bf6:	9782                	jalr	a5
1c001bf8:	2031                	jal	1c001c04 <__rt_team_barrier>
1c001bfa:	0001                	nop
1c001bfc:	40f2                	lw	ra,28(sp)
1c001bfe:	4462                	lw	s0,24(sp)
1c001c00:	6105                	addi	sp,sp,32
1c001c02:	8082                	ret

1c001c04 <__rt_team_barrier>:
1c001c04:	1141                	addi	sp,sp,-16
1c001c06:	c606                	sw	ra,12(sp)
1c001c08:	c422                	sw	s0,8(sp)
1c001c0a:	0800                	addi	s0,sp,16
1c001c0c:	4501                	li	a0,0
1c001c0e:	31e1                	jal	1c0018d6 <eu_bar_addr>
1c001c10:	87aa                	mv	a5,a0
1c001c12:	853e                	mv	a0,a5
1c001c14:	31cd                	jal	1c0018f6 <eu_bar_trig_wait_clr>
1c001c16:	0001                	nop
1c001c18:	40b2                	lw	ra,12(sp)
1c001c1a:	4422                	lw	s0,8(sp)
1c001c1c:	0141                	addi	sp,sp,16
1c001c1e:	8082                	ret

1c001c20 <pi_perf_conf>:
1c001c20:	1101                	addi	sp,sp,-32
1c001c22:	ce06                	sw	ra,28(sp)
1c001c24:	cc22                	sw	s0,24(sp)
1c001c26:	1000                	addi	s0,sp,32
1c001c28:	fea42623          	sw	a0,-20(s0)
1c001c2c:	fec42503          	lw	a0,-20(s0)
1c001c30:	3499                	jal	1c001676 <cpu_perf_conf_events>
1c001c32:	0001                	nop
1c001c34:	40f2                	lw	ra,28(sp)
1c001c36:	4462                	lw	s0,24(sp)
1c001c38:	6105                	addi	sp,sp,32
1c001c3a:	8082                	ret

1c001c3c <pi_perf_cl_reset>:
1c001c3c:	1141                	addi	sp,sp,-16
1c001c3e:	c606                	sw	ra,12(sp)
1c001c40:	c422                	sw	s0,8(sp)
1c001c42:	0800                	addi	s0,sp,16
1c001c44:	4601                	li	a2,0
1c001c46:	4581                	li	a1,0
1c001c48:	4501                	li	a0,0
1c001c4a:	3d11                	jal	1c001a5e <timer_base_cl>
1c001c4c:	87aa                	mv	a5,a0
1c001c4e:	853e                	mv	a0,a5
1c001c50:	3551                	jal	1c001ad4 <timer_reset>
1c001c52:	4501                	li	a0,0
1c001c54:	3ca9                	jal	1c0016ae <cpu_perf_setall>
1c001c56:	0001                	nop
1c001c58:	40b2                	lw	ra,12(sp)
1c001c5a:	4422                	lw	s0,8(sp)
1c001c5c:	0141                	addi	sp,sp,16
1c001c5e:	8082                	ret

1c001c60 <pi_perf_fc_reset>:
1c001c60:	1141                	addi	sp,sp,-16
1c001c62:	c606                	sw	ra,12(sp)
1c001c64:	c422                	sw	s0,8(sp)
1c001c66:	0800                	addi	s0,sp,16
1c001c68:	4581                	li	a1,0
1c001c6a:	4501                	li	a0,0
1c001c6c:	33c9                	jal	1c001a2e <timer_base_fc>
1c001c6e:	87aa                	mv	a5,a0
1c001c70:	853e                	mv	a0,a5
1c001c72:	358d                	jal	1c001ad4 <timer_reset>
1c001c74:	4501                	li	a0,0
1c001c76:	3c25                	jal	1c0016ae <cpu_perf_setall>
1c001c78:	0001                	nop
1c001c7a:	40b2                	lw	ra,12(sp)
1c001c7c:	4422                	lw	s0,8(sp)
1c001c7e:	0141                	addi	sp,sp,16
1c001c80:	8082                	ret

1c001c82 <pi_perf_reset>:
1c001c82:	1141                	addi	sp,sp,-16
1c001c84:	c606                	sw	ra,12(sp)
1c001c86:	c422                	sw	s0,8(sp)
1c001c88:	0800                	addi	s0,sp,16
1c001c8a:	4785                	li	a5,1
1c001c8c:	cb89                	beqz	a5,1c001c9e <pi_perf_reset+0x1c>
1c001c8e:	3ac9                	jal	1c001660 <hal_cluster_id>
1c001c90:	87aa                	mv	a5,a0
1c001c92:	1781                	addi	a5,a5,-32
1c001c94:	0017b793          	seqz	a5,a5
1c001c98:	0ff7f793          	andi	a5,a5,255
1c001c9c:	a011                	j	1c001ca0 <pi_perf_reset+0x1e>
1c001c9e:	4781                	li	a5,0
1c001ca0:	c399                	beqz	a5,1c001ca6 <pi_perf_reset+0x24>
1c001ca2:	3f7d                	jal	1c001c60 <pi_perf_fc_reset>
1c001ca4:	a011                	j	1c001ca8 <pi_perf_reset+0x26>
1c001ca6:	3f59                	jal	1c001c3c <pi_perf_cl_reset>
1c001ca8:	0001                	nop
1c001caa:	40b2                	lw	ra,12(sp)
1c001cac:	4422                	lw	s0,8(sp)
1c001cae:	0141                	addi	sp,sp,16
1c001cb0:	8082                	ret

1c001cb2 <pi_perf_cl_start>:
1c001cb2:	1141                	addi	sp,sp,-16
1c001cb4:	c606                	sw	ra,12(sp)
1c001cb6:	c422                	sw	s0,8(sp)
1c001cb8:	0800                	addi	s0,sp,16
1c001cba:	4601                	li	a2,0
1c001cbc:	4581                	li	a1,0
1c001cbe:	4501                	li	a0,0
1c001cc0:	3b79                	jal	1c001a5e <timer_base_cl>
1c001cc2:	87aa                	mv	a5,a0
1c001cc4:	853e                	mv	a0,a5
1c001cc6:	3535                	jal	1c001af2 <timer_start>
1c001cc8:	450d                	li	a0,3
1c001cca:	32e9                	jal	1c001694 <cpu_perf_conf>
1c001ccc:	0001                	nop
1c001cce:	40b2                	lw	ra,12(sp)
1c001cd0:	4422                	lw	s0,8(sp)
1c001cd2:	0141                	addi	sp,sp,16
1c001cd4:	8082                	ret

1c001cd6 <pi_perf_fc_start>:
1c001cd6:	1141                	addi	sp,sp,-16
1c001cd8:	c606                	sw	ra,12(sp)
1c001cda:	c422                	sw	s0,8(sp)
1c001cdc:	0800                	addi	s0,sp,16
1c001cde:	4581                	li	a1,0
1c001ce0:	4501                	li	a0,0
1c001ce2:	33b1                	jal	1c001a2e <timer_base_fc>
1c001ce4:	87aa                	mv	a5,a0
1c001ce6:	853e                	mv	a0,a5
1c001ce8:	3529                	jal	1c001af2 <timer_start>
1c001cea:	450d                	li	a0,3
1c001cec:	3265                	jal	1c001694 <cpu_perf_conf>
1c001cee:	0001                	nop
1c001cf0:	40b2                	lw	ra,12(sp)
1c001cf2:	4422                	lw	s0,8(sp)
1c001cf4:	0141                	addi	sp,sp,16
1c001cf6:	8082                	ret

1c001cf8 <pi_perf_start>:
1c001cf8:	1141                	addi	sp,sp,-16
1c001cfa:	c606                	sw	ra,12(sp)
1c001cfc:	c422                	sw	s0,8(sp)
1c001cfe:	0800                	addi	s0,sp,16
1c001d00:	4785                	li	a5,1
1c001d02:	cb89                	beqz	a5,1c001d14 <pi_perf_start+0x1c>
1c001d04:	3ab1                	jal	1c001660 <hal_cluster_id>
1c001d06:	87aa                	mv	a5,a0
1c001d08:	1781                	addi	a5,a5,-32
1c001d0a:	0017b793          	seqz	a5,a5
1c001d0e:	0ff7f793          	andi	a5,a5,255
1c001d12:	a011                	j	1c001d16 <pi_perf_start+0x1e>
1c001d14:	4781                	li	a5,0
1c001d16:	c399                	beqz	a5,1c001d1c <pi_perf_start+0x24>
1c001d18:	3f7d                	jal	1c001cd6 <pi_perf_fc_start>
1c001d1a:	a011                	j	1c001d1e <pi_perf_start+0x26>
1c001d1c:	3f59                	jal	1c001cb2 <pi_perf_cl_start>
1c001d1e:	0001                	nop
1c001d20:	40b2                	lw	ra,12(sp)
1c001d22:	4422                	lw	s0,8(sp)
1c001d24:	0141                	addi	sp,sp,16
1c001d26:	8082                	ret

1c001d28 <pi_perf_cl_stop>:
1c001d28:	1141                	addi	sp,sp,-16
1c001d2a:	c606                	sw	ra,12(sp)
1c001d2c:	c422                	sw	s0,8(sp)
1c001d2e:	0800                	addi	s0,sp,16
1c001d30:	4601                	li	a2,0
1c001d32:	4581                	li	a1,0
1c001d34:	4501                	li	a0,0
1c001d36:	3325                	jal	1c001a5e <timer_base_cl>
1c001d38:	87aa                	mv	a5,a0
1c001d3a:	4581                	li	a1,0
1c001d3c:	853e                	mv	a0,a5
1c001d3e:	3b91                	jal	1c001a92 <timer_conf_set>
1c001d40:	4501                	li	a0,0
1c001d42:	3a89                	jal	1c001694 <cpu_perf_conf>
1c001d44:	0001                	nop
1c001d46:	40b2                	lw	ra,12(sp)
1c001d48:	4422                	lw	s0,8(sp)
1c001d4a:	0141                	addi	sp,sp,16
1c001d4c:	8082                	ret

1c001d4e <pi_perf_fc_stop>:
1c001d4e:	1141                	addi	sp,sp,-16
1c001d50:	c606                	sw	ra,12(sp)
1c001d52:	c422                	sw	s0,8(sp)
1c001d54:	0800                	addi	s0,sp,16
1c001d56:	4581                	li	a1,0
1c001d58:	4501                	li	a0,0
1c001d5a:	39d1                	jal	1c001a2e <timer_base_fc>
1c001d5c:	87aa                	mv	a5,a0
1c001d5e:	4581                	li	a1,0
1c001d60:	853e                	mv	a0,a5
1c001d62:	3b05                	jal	1c001a92 <timer_conf_set>
1c001d64:	4501                	li	a0,0
1c001d66:	323d                	jal	1c001694 <cpu_perf_conf>
1c001d68:	0001                	nop
1c001d6a:	40b2                	lw	ra,12(sp)
1c001d6c:	4422                	lw	s0,8(sp)
1c001d6e:	0141                	addi	sp,sp,16
1c001d70:	8082                	ret

1c001d72 <pi_perf_stop>:
1c001d72:	1141                	addi	sp,sp,-16
1c001d74:	c606                	sw	ra,12(sp)
1c001d76:	c422                	sw	s0,8(sp)
1c001d78:	0800                	addi	s0,sp,16
1c001d7a:	4785                	li	a5,1
1c001d7c:	cb91                	beqz	a5,1c001d90 <pi_perf_stop+0x1e>
1c001d7e:	8e3ff0ef          	jal	ra,1c001660 <hal_cluster_id>
1c001d82:	87aa                	mv	a5,a0
1c001d84:	1781                	addi	a5,a5,-32
1c001d86:	0017b793          	seqz	a5,a5
1c001d8a:	0ff7f793          	andi	a5,a5,255
1c001d8e:	a011                	j	1c001d92 <pi_perf_stop+0x20>
1c001d90:	4781                	li	a5,0
1c001d92:	c399                	beqz	a5,1c001d98 <pi_perf_stop+0x26>
1c001d94:	3f6d                	jal	1c001d4e <pi_perf_fc_stop>
1c001d96:	a011                	j	1c001d9a <pi_perf_stop+0x28>
1c001d98:	3f41                	jal	1c001d28 <pi_perf_cl_stop>
1c001d9a:	0001                	nop
1c001d9c:	40b2                	lw	ra,12(sp)
1c001d9e:	4422                	lw	s0,8(sp)
1c001da0:	0141                	addi	sp,sp,16
1c001da2:	8082                	ret

1c001da4 <pi_perf_cl_read>:
1c001da4:	1101                	addi	sp,sp,-32
1c001da6:	ce06                	sw	ra,28(sp)
1c001da8:	cc22                	sw	s0,24(sp)
1c001daa:	1000                	addi	s0,sp,32
1c001dac:	fea42623          	sw	a0,-20(s0)
1c001db0:	fec42703          	lw	a4,-20(s0)
1c001db4:	47c1                	li	a5,16
1c001db6:	00f71b63          	bne	a4,a5,1c001dcc <pi_perf_cl_read+0x28>
1c001dba:	4601                	li	a2,0
1c001dbc:	4581                	li	a1,0
1c001dbe:	4501                	li	a0,0
1c001dc0:	3979                	jal	1c001a5e <timer_base_cl>
1c001dc2:	87aa                	mv	a5,a0
1c001dc4:	853e                	mv	a0,a5
1c001dc6:	39c5                	jal	1c001ab6 <timer_count_get>
1c001dc8:	87aa                	mv	a5,a0
1c001dca:	a039                	j	1c001dd8 <pi_perf_cl_read+0x34>
1c001dcc:	fec42783          	lw	a5,-20(s0)
1c001dd0:	853e                	mv	a0,a5
1c001dd2:	8f7ff0ef          	jal	ra,1c0016c8 <cpu_perf_get>
1c001dd6:	87aa                	mv	a5,a0
1c001dd8:	853e                	mv	a0,a5
1c001dda:	40f2                	lw	ra,28(sp)
1c001ddc:	4462                	lw	s0,24(sp)
1c001dde:	6105                	addi	sp,sp,32
1c001de0:	8082                	ret

1c001de2 <pi_perf_fc_read>:
1c001de2:	1101                	addi	sp,sp,-32
1c001de4:	ce06                	sw	ra,28(sp)
1c001de6:	cc22                	sw	s0,24(sp)
1c001de8:	1000                	addi	s0,sp,32
1c001dea:	fea42623          	sw	a0,-20(s0)
1c001dee:	fec42703          	lw	a4,-20(s0)
1c001df2:	47c1                	li	a5,16
1c001df4:	00f71a63          	bne	a4,a5,1c001e08 <pi_perf_fc_read+0x26>
1c001df8:	4581                	li	a1,0
1c001dfa:	4501                	li	a0,0
1c001dfc:	390d                	jal	1c001a2e <timer_base_fc>
1c001dfe:	87aa                	mv	a5,a0
1c001e00:	853e                	mv	a0,a5
1c001e02:	3955                	jal	1c001ab6 <timer_count_get>
1c001e04:	87aa                	mv	a5,a0
1c001e06:	a039                	j	1c001e14 <pi_perf_fc_read+0x32>
1c001e08:	fec42783          	lw	a5,-20(s0)
1c001e0c:	853e                	mv	a0,a5
1c001e0e:	8bbff0ef          	jal	ra,1c0016c8 <cpu_perf_get>
1c001e12:	87aa                	mv	a5,a0
1c001e14:	853e                	mv	a0,a5
1c001e16:	40f2                	lw	ra,28(sp)
1c001e18:	4462                	lw	s0,24(sp)
1c001e1a:	6105                	addi	sp,sp,32
1c001e1c:	8082                	ret

1c001e1e <pi_perf_read>:
1c001e1e:	1101                	addi	sp,sp,-32
1c001e20:	ce06                	sw	ra,28(sp)
1c001e22:	cc22                	sw	s0,24(sp)
1c001e24:	1000                	addi	s0,sp,32
1c001e26:	fea42623          	sw	a0,-20(s0)
1c001e2a:	4785                	li	a5,1
1c001e2c:	cb91                	beqz	a5,1c001e40 <pi_perf_read+0x22>
1c001e2e:	833ff0ef          	jal	ra,1c001660 <hal_cluster_id>
1c001e32:	87aa                	mv	a5,a0
1c001e34:	1781                	addi	a5,a5,-32
1c001e36:	0017b793          	seqz	a5,a5
1c001e3a:	0ff7f793          	andi	a5,a5,255
1c001e3e:	a011                	j	1c001e42 <pi_perf_read+0x24>
1c001e40:	4781                	li	a5,0
1c001e42:	c791                	beqz	a5,1c001e4e <pi_perf_read+0x30>
1c001e44:	fec42503          	lw	a0,-20(s0)
1c001e48:	3f69                	jal	1c001de2 <pi_perf_fc_read>
1c001e4a:	87aa                	mv	a5,a0
1c001e4c:	a029                	j	1c001e56 <pi_perf_read+0x38>
1c001e4e:	fec42503          	lw	a0,-20(s0)
1c001e52:	3f89                	jal	1c001da4 <pi_perf_cl_read>
1c001e54:	87aa                	mv	a5,a0
1c001e56:	853e                	mv	a0,a5
1c001e58:	40f2                	lw	ra,28(sp)
1c001e5a:	4462                	lw	s0,24(sp)
1c001e5c:	6105                	addi	sp,sp,32
1c001e5e:	8082                	ret

1c001e60 <rt_cluster_id>:
1c001e60:	1141                	addi	sp,sp,-16
1c001e62:	c606                	sw	ra,12(sp)
1c001e64:	c422                	sw	s0,8(sp)
1c001e66:	0800                	addi	s0,sp,16
1c001e68:	ff8ff0ef          	jal	ra,1c001660 <hal_cluster_id>
1c001e6c:	87aa                	mv	a5,a0
1c001e6e:	853e                	mv	a0,a5
1c001e70:	40b2                	lw	ra,12(sp)
1c001e72:	4422                	lw	s0,8(sp)
1c001e74:	0141                	addi	sp,sp,16
1c001e76:	8082                	ret

1c001e78 <rt_core_id>:
1c001e78:	1141                	addi	sp,sp,-16
1c001e7a:	c606                	sw	ra,12(sp)
1c001e7c:	c422                	sw	s0,8(sp)
1c001e7e:	0800                	addi	s0,sp,16
1c001e80:	fcaff0ef          	jal	ra,1c00164a <hal_core_id>
1c001e84:	87aa                	mv	a5,a0
1c001e86:	853e                	mv	a0,a5
1c001e88:	40b2                	lw	ra,12(sp)
1c001e8a:	4422                	lw	s0,8(sp)
1c001e8c:	0141                	addi	sp,sp,16
1c001e8e:	8082                	ret

1c001e90 <pmsis_kickoff>:
1c001e90:	1101                	addi	sp,sp,-32
1c001e92:	ce06                	sw	ra,28(sp)
1c001e94:	cc22                	sw	s0,24(sp)
1c001e96:	1000                	addi	s0,sp,32
1c001e98:	fea42623          	sw	a0,-20(s0)
1c001e9c:	fec42783          	lw	a5,-20(s0)
1c001ea0:	9782                	jalr	a5
1c001ea2:	57fd                	li	a5,-1
1c001ea4:	853e                	mv	a0,a5
1c001ea6:	40f2                	lw	ra,28(sp)
1c001ea8:	4462                	lw	s0,24(sp)
1c001eaa:	6105                	addi	sp,sp,32
1c001eac:	8082                	ret

1c001eae <pmsis_exit>:
1c001eae:	1101                	addi	sp,sp,-32
1c001eb0:	ce06                	sw	ra,28(sp)
1c001eb2:	cc22                	sw	s0,24(sp)
1c001eb4:	1000                	addi	s0,sp,32
1c001eb6:	fea42623          	sw	a0,-20(s0)
1c001eba:	fec42503          	lw	a0,-20(s0)
1c001ebe:	647030ef          	jal	ra,1c005d04 <exit>

1c001ec2 <cluster_helloworld>:
1c001ec2:	7179                	addi	sp,sp,-48
1c001ec4:	d606                	sw	ra,44(sp)
1c001ec6:	d422                	sw	s0,40(sp)
1c001ec8:	1800                	addi	s0,sp,48
1c001eca:	fca42e23          	sw	a0,-36(s0)
1c001ece:	3189                	jal	1c001b10 <pi_core_id>
1c001ed0:	fea42623          	sw	a0,-20(s0)
1c001ed4:	3989                	jal	1c001b26 <pi_cluster_id>
1c001ed6:	fea42423          	sw	a0,-24(s0)
1c001eda:	1c0107b7          	lui	a5,0x1c010
1c001ede:	d187a783          	lw	a5,-744(a5) # 1c00fd18 <f_img>
1c001ee2:	853e                	mv	a0,a5
1c001ee4:	22f9                	jal	1c0020b2 <predict>
1c001ee6:	87aa                	mv	a5,a0
1c001ee8:	0ff7f793          	andi	a5,a5,255
1c001eec:	fef401a3          	sb	a5,-29(s0)
1c001ef0:	fe042223          	sw	zero,-28(s0)
1c001ef4:	1c0107b7          	lui	a5,0x1c010
1c001ef8:	fec78513          	addi	a0,a5,-20 # 1c00ffec <priv_data>
1c001efc:	2e39                	jal	1c00221a <amp_aes_init>
1c001efe:	1c0107b7          	lui	a5,0x1c010
1c001f02:	fec78513          	addi	a0,a5,-20 # 1c00ffec <priv_data>
1c001f06:	2301                	jal	1c002406 <amp_aes_update_nonce>
1c001f08:	fea42223          	sw	a0,-28(s0)
1c001f0c:	fe340713          	addi	a4,s0,-29
1c001f10:	1c0107b7          	lui	a5,0x1c010
1c001f14:	fec78593          	addi	a1,a5,-20 # 1c00ffec <priv_data>
1c001f18:	853a                	mv	a0,a4
1c001f1a:	2b35                	jal	1c002456 <amp_aes_encrypts>
1c001f1c:	fea42223          	sw	a0,-28(s0)
1c001f20:	4789                	li	a5,2
1c001f22:	fef42223          	sw	a5,-28(s0)
1c001f26:	fe344783          	lbu	a5,-29(s0)
1c001f2a:	86be                	mv	a3,a5
1c001f2c:	fec42603          	lw	a2,-20(s0)
1c001f30:	fe842583          	lw	a1,-24(s0)
1c001f34:	1c0077b7          	lui	a5,0x1c007
1c001f38:	f3078513          	addi	a0,a5,-208 # 1c006f30 <__DTOR_END__+0x4>
1c001f3c:	6d3030ef          	jal	ra,1c005e0e <printf>
1c001f40:	fe442583          	lw	a1,-28(s0)
1c001f44:	1c0077b7          	lui	a5,0x1c007
1c001f48:	f4478513          	addi	a0,a5,-188 # 1c006f44 <__DTOR_END__+0x18>
1c001f4c:	6c3030ef          	jal	ra,1c005e0e <printf>
1c001f50:	0001                	nop
1c001f52:	50b2                	lw	ra,44(sp)
1c001f54:	5422                	lw	s0,40(sp)
1c001f56:	6145                	addi	sp,sp,48
1c001f58:	8082                	ret

1c001f5a <cluster_delegate>:
1c001f5a:	1101                	addi	sp,sp,-32
1c001f5c:	ce06                	sw	ra,28(sp)
1c001f5e:	cc22                	sw	s0,24(sp)
1c001f60:	1000                	addi	s0,sp,32
1c001f62:	fea42623          	sw	a0,-20(s0)
1c001f66:	1c0077b7          	lui	a5,0x1c007
1c001f6a:	f5478513          	addi	a0,a5,-172 # 1c006f54 <__DTOR_END__+0x28>
1c001f6e:	529030ef          	jal	ra,1c005c96 <puts>
1c001f72:	fec42603          	lw	a2,-20(s0)
1c001f76:	1c0027b7          	lui	a5,0x1c002
1c001f7a:	ec278593          	addi	a1,a5,-318 # 1c001ec2 <cluster_helloworld>
1c001f7e:	4505                	li	a0,1
1c001f80:	3909                	jal	1c001b92 <pi_cl_team_fork>
1c001f82:	1c0077b7          	lui	a5,0x1c007
1c001f86:	f7078513          	addi	a0,a5,-144 # 1c006f70 <__DTOR_END__+0x44>
1c001f8a:	50d030ef          	jal	ra,1c005c96 <puts>
1c001f8e:	0001                	nop
1c001f90:	40f2                	lw	ra,28(sp)
1c001f92:	4462                	lw	s0,24(sp)
1c001f94:	6105                	addi	sp,sp,32
1c001f96:	8082                	ret

1c001f98 <helloworld>:
1c001f98:	7119                	addi	sp,sp,-128
1c001f9a:	de86                	sw	ra,124(sp)
1c001f9c:	dca2                	sw	s0,120(sp)
1c001f9e:	0100                	addi	s0,sp,128
1c001fa0:	1c0077b7          	lui	a5,0x1c007
1c001fa4:	f8c78513          	addi	a0,a5,-116 # 1c006f8c <__DTOR_END__+0x60>
1c001fa8:	4ef030ef          	jal	ra,1c005c96 <puts>
1c001fac:	fe042623          	sw	zero,-20(s0)
1c001fb0:	3685                	jal	1c001b10 <pi_core_id>
1c001fb2:	fea42423          	sw	a0,-24(s0)
1c001fb6:	3e85                	jal	1c001b26 <pi_cluster_id>
1c001fb8:	fea42223          	sw	a0,-28(s0)
1c001fbc:	fe842603          	lw	a2,-24(s0)
1c001fc0:	fe442583          	lw	a1,-28(s0)
1c001fc4:	1c0077b7          	lui	a5,0x1c007
1c001fc8:	fa878513          	addi	a0,a5,-88 # 1c006fa8 <__DTOR_END__+0x7c>
1c001fcc:	643030ef          	jal	ra,1c005e0e <printf>
1c001fd0:	fb040793          	addi	a5,s0,-80
1c001fd4:	853e                	mv	a0,a5
1c001fd6:	569020ef          	jal	ra,1c004d3e <pi_cluster_conf_init>
1c001fda:	fa042a23          	sw	zero,-76(s0)
1c001fde:	fb040713          	addi	a4,s0,-80
1c001fe2:	fd040793          	addi	a5,s0,-48
1c001fe6:	85ba                	mv	a1,a4
1c001fe8:	853e                	mv	a0,a5
1c001fea:	1cb010ef          	jal	ra,1c0039b4 <pi_open_from_conf>
1c001fee:	67c1                	lui	a5,0x10
1c001ff0:	00178513          	addi	a0,a5,1 # 10001 <__L1Cl+0x1>
1c001ff4:	3135                	jal	1c001c20 <pi_perf_conf>
1c001ff6:	3171                	jal	1c001c82 <pi_perf_reset>
1c001ff8:	3301                	jal	1c001cf8 <pi_perf_start>
1c001ffa:	fd040793          	addi	a5,s0,-48
1c001ffe:	853e                	mv	a0,a5
1c002000:	545020ef          	jal	ra,1c004d44 <pi_cluster_open>
1c002004:	87aa                	mv	a5,a0
1c002006:	cb89                	beqz	a5,1c002018 <helloworld+0x80>
1c002008:	1c0077b7          	lui	a5,0x1c007
1c00200c:	fc078513          	addi	a0,a5,-64 # 1c006fc0 <__DTOR_END__+0x94>
1c002010:	487030ef          	jal	ra,1c005c96 <puts>
1c002014:	557d                	li	a0,-1
1c002016:	3d61                	jal	1c001eae <pmsis_exit>
1c002018:	3ba9                	jal	1c001d72 <pi_perf_stop>
1c00201a:	4501                	li	a0,0
1c00201c:	3509                	jal	1c001e1e <pi_perf_read>
1c00201e:	fea42023          	sw	a0,-32(s0)
1c002022:	4541                	li	a0,16
1c002024:	3bed                	jal	1c001e1e <pi_perf_read>
1c002026:	fca42e23          	sw	a0,-36(s0)
1c00202a:	fdc42603          	lw	a2,-36(s0)
1c00202e:	fe042583          	lw	a1,-32(s0)
1c002032:	1c0077b7          	lui	a5,0x1c007
1c002036:	fd878513          	addi	a0,a5,-40 # 1c006fd8 <__DTOR_END__+0xac>
1c00203a:	5d5030ef          	jal	ra,1c005e0e <printf>
1c00203e:	f8440713          	addi	a4,s0,-124
1c002042:	4601                	li	a2,0
1c002044:	1c0027b7          	lui	a5,0x1c002
1c002048:	f5a78593          	addi	a1,a5,-166 # 1c001f5a <cluster_delegate>
1c00204c:	853a                	mv	a0,a4
1c00204e:	d6cff0ef          	jal	ra,1c0015ba <pi_cluster_task>
1c002052:	872a                	mv	a4,a0
1c002054:	fd040793          	addi	a5,s0,-48
1c002058:	85ba                	mv	a1,a4
1c00205a:	853e                	mv	a0,a5
1c00205c:	0be030ef          	jal	ra,1c00511a <pi_cluster_send_task_to_cl>
1c002060:	fd040793          	addi	a5,s0,-48
1c002064:	853e                	mv	a0,a5
1c002066:	5b5020ef          	jal	ra,1c004e1a <pi_cluster_close>
1c00206a:	1c0077b7          	lui	a5,0x1c007
1c00206e:	ffc78513          	addi	a0,a5,-4 # 1c006ffc <__DTOR_END__+0xd0>
1c002072:	425030ef          	jal	ra,1c005c96 <puts>
1c002076:	fec42783          	lw	a5,-20(s0)
1c00207a:	853e                	mv	a0,a5
1c00207c:	3d0d                	jal	1c001eae <pmsis_exit>
1c00207e:	0001                	nop
1c002080:	50f6                	lw	ra,124(sp)
1c002082:	5466                	lw	s0,120(sp)
1c002084:	6109                	addi	sp,sp,128
1c002086:	8082                	ret

1c002088 <main>:
1c002088:	1141                	addi	sp,sp,-16
1c00208a:	c606                	sw	ra,12(sp)
1c00208c:	c422                	sw	s0,8(sp)
1c00208e:	0800                	addi	s0,sp,16
1c002090:	1c0077b7          	lui	a5,0x1c007
1c002094:	00c78513          	addi	a0,a5,12 # 1c00700c <__DTOR_END__+0xe0>
1c002098:	3ff030ef          	jal	ra,1c005c96 <puts>
1c00209c:	1c0027b7          	lui	a5,0x1c002
1c0020a0:	f9878513          	addi	a0,a5,-104 # 1c001f98 <helloworld>
1c0020a4:	33f5                	jal	1c001e90 <pmsis_kickoff>
1c0020a6:	87aa                	mv	a5,a0
1c0020a8:	853e                	mv	a0,a5
1c0020aa:	40b2                	lw	ra,12(sp)
1c0020ac:	4422                	lw	s0,8(sp)
1c0020ae:	0141                	addi	sp,sp,16
1c0020b0:	8082                	ret

1c0020b2 <predict>:
1c0020b2:	715d                	addi	sp,sp,-80
1c0020b4:	c686                	sw	ra,76(sp)
1c0020b6:	c4a2                	sw	s0,72(sp)
1c0020b8:	0880                	addi	s0,sp,80
1c0020ba:	faa42e23          	sw	a0,-68(s0)
1c0020be:	1c0077b7          	lui	a5,0x1c007
1c0020c2:	03078793          	addi	a5,a5,48 # 1c007030 <__DTOR_END__+0x104>
1c0020c6:	0047a803          	lw	a6,4(a5)
1c0020ca:	439c                	lw	a5,0(a5)
1c0020cc:	fef42423          	sw	a5,-24(s0)
1c0020d0:	ff042623          	sw	a6,-20(s0)
1c0020d4:	57fd                	li	a5,-1
1c0020d6:	fef42223          	sw	a5,-28(s0)
1c0020da:	fe042023          	sw	zero,-32(s0)
1c0020de:	47a9                	li	a5,10
1c0020e0:	fcf42623          	sw	a5,-52(s0)
1c0020e4:	aa31                	j	1c002200 <predict+0x14e>
1c0020e6:	fc042823          	sw	zero,-48(s0)
1c0020ea:	fc042a23          	sw	zero,-44(s0)
1c0020ee:	fc042e23          	sw	zero,-36(s0)
1c0020f2:	31000793          	li	a5,784
1c0020f6:	fcf42423          	sw	a5,-56(s0)
1c0020fa:	a0ad                	j	1c002164 <predict+0xb2>
1c0020fc:	1c0087b7          	lui	a5,0x1c008
1c002100:	fe042683          	lw	a3,-32(s0)
1c002104:	31000713          	li	a4,784
1c002108:	02e686b3          	mul	a3,a3,a4
1c00210c:	fdc42703          	lw	a4,-36(s0)
1c002110:	9736                	add	a4,a4,a3
1c002112:	070a                	slli	a4,a4,0x2
1c002114:	16878793          	addi	a5,a5,360 # 1c008168 <coefficients>
1c002118:	97ba                	add	a5,a5,a4
1c00211a:	4394                	lw	a3,0(a5)
1c00211c:	fdc42783          	lw	a5,-36(s0)
1c002120:	078a                	slli	a5,a5,0x2
1c002122:	fbc42703          	lw	a4,-68(s0)
1c002126:	97ba                	add	a5,a5,a4
1c002128:	439c                	lw	a5,0(a5)
1c00212a:	85be                	mv	a1,a5
1c00212c:	8536                	mv	a0,a3
1c00212e:	a18ff0ef          	jal	ra,1c001346 <__mulsf3>
1c002132:	87aa                	mv	a5,a0
1c002134:	853e                	mv	a0,a5
1c002136:	bfcff0ef          	jal	ra,1c001532 <__extendsfdf2>
1c00213a:	87aa                	mv	a5,a0
1c00213c:	882e                	mv	a6,a1
1c00213e:	863e                	mv	a2,a5
1c002140:	86c2                	mv	a3,a6
1c002142:	fd042503          	lw	a0,-48(s0)
1c002146:	fd442583          	lw	a1,-44(s0)
1c00214a:	b51fe0ef          	jal	ra,1c000c9a <__adddf3>
1c00214e:	87aa                	mv	a5,a0
1c002150:	882e                	mv	a6,a1
1c002152:	fcf42823          	sw	a5,-48(s0)
1c002156:	fd042a23          	sw	a6,-44(s0)
1c00215a:	fdc42783          	lw	a5,-36(s0)
1c00215e:	0785                	addi	a5,a5,1
1c002160:	fcf42e23          	sw	a5,-36(s0)
1c002164:	fdc42703          	lw	a4,-36(s0)
1c002168:	fc842783          	lw	a5,-56(s0)
1c00216c:	f8f748e3          	blt	a4,a5,1c0020fc <predict+0x4a>
1c002170:	1c0107b7          	lui	a5,0x1c010
1c002174:	fe042703          	lw	a4,-32(s0)
1c002178:	070a                	slli	a4,a4,0x2
1c00217a:	be878793          	addi	a5,a5,-1048 # 1c00fbe8 <intercepts>
1c00217e:	97ba                	add	a5,a5,a4
1c002180:	439c                	lw	a5,0(a5)
1c002182:	853e                	mv	a0,a5
1c002184:	baeff0ef          	jal	ra,1c001532 <__extendsfdf2>
1c002188:	87aa                	mv	a5,a0
1c00218a:	882e                	mv	a6,a1
1c00218c:	fd042603          	lw	a2,-48(s0)
1c002190:	fd442683          	lw	a3,-44(s0)
1c002194:	853e                	mv	a0,a5
1c002196:	85c2                	mv	a1,a6
1c002198:	b03fe0ef          	jal	ra,1c000c9a <__adddf3>
1c00219c:	87aa                	mv	a5,a0
1c00219e:	882e                	mv	a6,a1
1c0021a0:	863e                	mv	a2,a5
1c0021a2:	86c2                	mv	a3,a6
1c0021a4:	fe842503          	lw	a0,-24(s0)
1c0021a8:	fec42583          	lw	a1,-20(s0)
1c0021ac:	8ecff0ef          	jal	ra,1c001298 <__ledf2>
1c0021b0:	87aa                	mv	a5,a0
1c0021b2:	0407d263          	bgez	a5,1c0021f6 <predict+0x144>
1c0021b6:	1c0107b7          	lui	a5,0x1c010
1c0021ba:	fe042703          	lw	a4,-32(s0)
1c0021be:	070a                	slli	a4,a4,0x2
1c0021c0:	be878793          	addi	a5,a5,-1048 # 1c00fbe8 <intercepts>
1c0021c4:	97ba                	add	a5,a5,a4
1c0021c6:	439c                	lw	a5,0(a5)
1c0021c8:	853e                	mv	a0,a5
1c0021ca:	b68ff0ef          	jal	ra,1c001532 <__extendsfdf2>
1c0021ce:	87aa                	mv	a5,a0
1c0021d0:	882e                	mv	a6,a1
1c0021d2:	863e                	mv	a2,a5
1c0021d4:	86c2                	mv	a3,a6
1c0021d6:	fd042503          	lw	a0,-48(s0)
1c0021da:	fd442583          	lw	a1,-44(s0)
1c0021de:	abdfe0ef          	jal	ra,1c000c9a <__adddf3>
1c0021e2:	87aa                	mv	a5,a0
1c0021e4:	882e                	mv	a6,a1
1c0021e6:	fef42423          	sw	a5,-24(s0)
1c0021ea:	ff042623          	sw	a6,-20(s0)
1c0021ee:	fe042783          	lw	a5,-32(s0)
1c0021f2:	fef42223          	sw	a5,-28(s0)
1c0021f6:	fe042783          	lw	a5,-32(s0)
1c0021fa:	0785                	addi	a5,a5,1
1c0021fc:	fef42023          	sw	a5,-32(s0)
1c002200:	fe042703          	lw	a4,-32(s0)
1c002204:	fcc42783          	lw	a5,-52(s0)
1c002208:	ecf74fe3          	blt	a4,a5,1c0020e6 <predict+0x34>
1c00220c:	fe442783          	lw	a5,-28(s0)
1c002210:	853e                	mv	a0,a5
1c002212:	40b6                	lw	ra,76(sp)
1c002214:	4426                	lw	s0,72(sp)
1c002216:	6161                	addi	sp,sp,80
1c002218:	8082                	ret

1c00221a <amp_aes_init>:
1c00221a:	7129                	addi	sp,sp,-320
1c00221c:	12112e23          	sw	ra,316(sp)
1c002220:	12812c23          	sw	s0,312(sp)
1c002224:	0280                	addi	s0,sp,320
1c002226:	eca42623          	sw	a0,-308(s0)
1c00222a:	ecc42783          	lw	a5,-308(s0)
1c00222e:	e399                	bnez	a5,1c002234 <amp_aes_init+0x1a>
1c002230:	57fd                	li	a5,-1
1c002232:	a2d9                	j	1c0023f8 <amp_aes_init+0x1de>
1c002234:	4785                	li	a5,1
1c002236:	fef42623          	sw	a5,-20(s0)
1c00223a:	eec40793          	addi	a5,s0,-276
1c00223e:	10000713          	li	a4,256
1c002242:	863a                	mv	a2,a4
1c002244:	4581                	li	a1,0
1c002246:	853e                	mv	a0,a5
1c002248:	0ab030ef          	jal	ra,1c005af2 <memset>
1c00224c:	07f00793          	li	a5,127
1c002250:	eef40623          	sb	a5,-276(s0)
1c002254:	04000793          	li	a5,64
1c002258:	eef406a3          	sb	a5,-275(s0)
1c00225c:	f8000793          	li	a5,-128
1c002260:	eef40723          	sb	a5,-274(s0)
1c002264:	04600793          	li	a5,70
1c002268:	eef407a3          	sb	a5,-273(s0)
1c00226c:	f9300793          	li	a5,-109
1c002270:	eef40823          	sb	a5,-272(s0)
1c002274:	05500793          	li	a5,85
1c002278:	eef408a3          	sb	a5,-271(s0)
1c00227c:	02e00793          	li	a5,46
1c002280:	eef40923          	sb	a5,-270(s0)
1c002284:	03100793          	li	a5,49
1c002288:	eef409a3          	sb	a5,-269(s0)
1c00228c:	07500793          	li	a5,117
1c002290:	eef40a23          	sb	a5,-268(s0)
1c002294:	02300793          	li	a5,35
1c002298:	eef40aa3          	sb	a5,-267(s0)
1c00229c:	57f5                	li	a5,-3
1c00229e:	eef40b23          	sb	a5,-266(s0)
1c0022a2:	fa600793          	li	a5,-90
1c0022a6:	eef40ba3          	sb	a5,-265(s0)
1c0022aa:	f9300793          	li	a5,-109
1c0022ae:	eef40c23          	sb	a5,-264(s0)
1c0022b2:	05a00793          	li	a5,90
1c0022b6:	eef40ca3          	sb	a5,-263(s0)
1c0022ba:	05b00793          	li	a5,91
1c0022be:	eef40d23          	sb	a5,-262(s0)
1c0022c2:	fc800793          	li	a5,-56
1c0022c6:	eef40da3          	sb	a5,-261(s0)
1c0022ca:	47d1                	li	a5,20
1c0022cc:	eef40e23          	sb	a5,-260(s0)
1c0022d0:	03500793          	li	a5,53
1c0022d4:	eef40ea3          	sb	a5,-259(s0)
1c0022d8:	03b00793          	li	a5,59
1c0022dc:	eef40f23          	sb	a5,-258(s0)
1c0022e0:	47fd                	li	a5,31
1c0022e2:	eef40fa3          	sb	a5,-257(s0)
1c0022e6:	fbb00793          	li	a5,-69
1c0022ea:	f0f40023          	sb	a5,-256(s0)
1c0022ee:	07d00793          	li	a5,125
1c0022f2:	f0f400a3          	sb	a5,-255(s0)
1c0022f6:	03300793          	li	a5,51
1c0022fa:	f0f40123          	sb	a5,-254(s0)
1c0022fe:	04900793          	li	a5,73
1c002302:	f0f401a3          	sb	a5,-253(s0)
1c002306:	06400793          	li	a5,100
1c00230a:	f0f40223          	sb	a5,-252(s0)
1c00230e:	fac00793          	li	a5,-84
1c002312:	f0f402a3          	sb	a5,-251(s0)
1c002316:	04d00793          	li	a5,77
1c00231a:	f0f40323          	sb	a5,-250(s0)
1c00231e:	47f5                	li	a5,29
1c002320:	f0f403a3          	sb	a5,-249(s0)
1c002324:	47c9                	li	a5,18
1c002326:	f0f40423          	sb	a5,-248(s0)
1c00232a:	fdd00793          	li	a5,-35
1c00232e:	f0f404a3          	sb	a5,-247(s0)
1c002332:	fcc00793          	li	a5,-52
1c002336:	f0f40523          	sb	a5,-246(s0)
1c00233a:	fce00793          	li	a5,-50
1c00233e:	f0f405a3          	sb	a5,-245(s0)
1c002342:	eec40793          	addi	a5,s0,-276
1c002346:	4701                	li	a4,0
1c002348:	4681                	li	a3,0
1c00234a:	10000613          	li	a2,256
1c00234e:	85be                	mv	a1,a5
1c002350:	1c0107b7          	lui	a5,0x1c010
1c002354:	02078513          	addi	a0,a5,32 # 1c010020 <ctx>
1c002358:	3eb000ef          	jal	ra,1c002f42 <tc_ctr_prng_init>
1c00235c:	fea42623          	sw	a0,-20(s0)
1c002360:	fec42783          	lw	a5,-20(s0)
1c002364:	0017a463          	p.beqimm	a5,1,1c00236c <amp_aes_init+0x152>
1c002368:	57f9                	li	a5,-2
1c00236a:	a079                	j	1c0023f8 <amp_aes_init+0x1de>
1c00236c:	02b00793          	li	a5,43
1c002370:	ecf40e23          	sb	a5,-292(s0)
1c002374:	07e00793          	li	a5,126
1c002378:	ecf40ea3          	sb	a5,-291(s0)
1c00237c:	47d5                	li	a5,21
1c00237e:	ecf40f23          	sb	a5,-290(s0)
1c002382:	47d9                	li	a5,22
1c002384:	ecf40fa3          	sb	a5,-289(s0)
1c002388:	02800793          	li	a5,40
1c00238c:	eef40023          	sb	a5,-288(s0)
1c002390:	fae00793          	li	a5,-82
1c002394:	eef400a3          	sb	a5,-287(s0)
1c002398:	fd200793          	li	a5,-46
1c00239c:	eef40123          	sb	a5,-286(s0)
1c0023a0:	fa600793          	li	a5,-90
1c0023a4:	eef401a3          	sb	a5,-285(s0)
1c0023a8:	fab00793          	li	a5,-85
1c0023ac:	eef40223          	sb	a5,-284(s0)
1c0023b0:	57dd                	li	a5,-9
1c0023b2:	eef402a3          	sb	a5,-283(s0)
1c0023b6:	47d5                	li	a5,21
1c0023b8:	eef40323          	sb	a5,-282(s0)
1c0023bc:	f8800793          	li	a5,-120
1c0023c0:	eef403a3          	sb	a5,-281(s0)
1c0023c4:	47a5                	li	a5,9
1c0023c6:	eef40423          	sb	a5,-280(s0)
1c0023ca:	fcf00793          	li	a5,-49
1c0023ce:	eef404a3          	sb	a5,-279(s0)
1c0023d2:	04f00793          	li	a5,79
1c0023d6:	eef40523          	sb	a5,-278(s0)
1c0023da:	03c00793          	li	a5,60
1c0023de:	eef405a3          	sb	a5,-277(s0)
1c0023e2:	ecc42783          	lw	a5,-308(s0)
1c0023e6:	07b5                	addi	a5,a5,13
1c0023e8:	edc40713          	addi	a4,s0,-292
1c0023ec:	4641                	li	a2,16
1c0023ee:	85ba                	mv	a1,a4
1c0023f0:	853e                	mv	a0,a5
1c0023f2:	710030ef          	jal	ra,1c005b02 <memcpy>
1c0023f6:	4781                	li	a5,0
1c0023f8:	853e                	mv	a0,a5
1c0023fa:	13c12083          	lw	ra,316(sp)
1c0023fe:	13812403          	lw	s0,312(sp)
1c002402:	6131                	addi	sp,sp,320
1c002404:	8082                	ret

1c002406 <amp_aes_update_nonce>:
1c002406:	7179                	addi	sp,sp,-48
1c002408:	d606                	sw	ra,44(sp)
1c00240a:	d422                	sw	s0,40(sp)
1c00240c:	1800                	addi	s0,sp,48
1c00240e:	fca42e23          	sw	a0,-36(s0)
1c002412:	fdc42783          	lw	a5,-36(s0)
1c002416:	e399                	bnez	a5,1c00241c <amp_aes_update_nonce+0x16>
1c002418:	57fd                	li	a5,-1
1c00241a:	a80d                	j	1c00244c <amp_aes_update_nonce+0x46>
1c00241c:	4785                	li	a5,1
1c00241e:	fef42623          	sw	a5,-20(s0)
1c002422:	fdc42783          	lw	a5,-36(s0)
1c002426:	4735                	li	a4,13
1c002428:	86be                	mv	a3,a5
1c00242a:	4601                	li	a2,0
1c00242c:	4581                	li	a1,0
1c00242e:	1c0107b7          	lui	a5,0x1c010
1c002432:	02078513          	addi	a0,a5,32 # 1c010020 <ctx>
1c002436:	479000ef          	jal	ra,1c0030ae <tc_ctr_prng_generate>
1c00243a:	fea42623          	sw	a0,-20(s0)
1c00243e:	fec42783          	lw	a5,-20(s0)
1c002442:	0017a463          	p.beqimm	a5,1,1c00244a <amp_aes_update_nonce+0x44>
1c002446:	57f9                	li	a5,-2
1c002448:	a011                	j	1c00244c <amp_aes_update_nonce+0x46>
1c00244a:	4781                	li	a5,0
1c00244c:	853e                	mv	a0,a5
1c00244e:	50b2                	lw	ra,44(sp)
1c002450:	5422                	lw	s0,40(sp)
1c002452:	6145                	addi	sp,sp,48
1c002454:	8082                	ret

1c002456 <amp_aes_encrypts>:
1c002456:	7179                	addi	sp,sp,-48
1c002458:	d606                	sw	ra,44(sp)
1c00245a:	d422                	sw	s0,40(sp)
1c00245c:	1800                	addi	s0,sp,48
1c00245e:	fca42e23          	sw	a0,-36(s0)
1c002462:	fcb42c23          	sw	a1,-40(s0)
1c002466:	fd842783          	lw	a5,-40(s0)
1c00246a:	e399                	bnez	a5,1c002470 <amp_aes_encrypts+0x1a>
1c00246c:	57fd                	li	a5,-1
1c00246e:	a845                	j	1c00251e <amp_aes_encrypts+0xc8>
1c002470:	4785                	li	a5,1
1c002472:	fef407a3          	sb	a5,-17(s0)
1c002476:	fef44783          	lbu	a5,-17(s0)
1c00247a:	07c1                	addi	a5,a5,16
1c00247c:	fef40723          	sb	a5,-18(s0)
1c002480:	4785                	li	a5,1
1c002482:	fef42423          	sw	a5,-24(s0)
1c002486:	fd842783          	lw	a5,-40(s0)
1c00248a:	07b5                	addi	a5,a5,13
1c00248c:	85be                	mv	a1,a5
1c00248e:	1c0107b7          	lui	a5,0x1c010
1c002492:	0f478513          	addi	a0,a5,244 # 1c0100f4 <s>
1c002496:	207d                	jal	1c002544 <tc_aes128_set_encrypt_key>
1c002498:	fea42423          	sw	a0,-24(s0)
1c00249c:	fe842783          	lw	a5,-24(s0)
1c0024a0:	0017a463          	p.beqimm	a5,1,1c0024a8 <amp_aes_encrypts+0x52>
1c0024a4:	57f9                	li	a5,-2
1c0024a6:	a8a5                	j	1c00251e <amp_aes_encrypts+0xc8>
1c0024a8:	fd842783          	lw	a5,-40(s0)
1c0024ac:	4741                	li	a4,16
1c0024ae:	46b5                	li	a3,13
1c0024b0:	863e                	mv	a2,a5
1c0024b2:	1c0107b7          	lui	a5,0x1c010
1c0024b6:	0f478593          	addi	a1,a5,244 # 1c0100f4 <s>
1c0024ba:	1c0107b7          	lui	a5,0x1c010
1c0024be:	0e878513          	addi	a0,a5,232 # 1c0100e8 <c>
1c0024c2:	5a9000ef          	jal	ra,1c00326a <tc_ccm_config>
1c0024c6:	fea42423          	sw	a0,-24(s0)
1c0024ca:	fe842783          	lw	a5,-24(s0)
1c0024ce:	0017a463          	p.beqimm	a5,1,1c0024d6 <amp_aes_encrypts+0x80>
1c0024d2:	57f5                	li	a5,-3
1c0024d4:	a0a9                	j	1c00251e <amp_aes_encrypts+0xc8>
1c0024d6:	fd842783          	lw	a5,-40(s0)
1c0024da:	01d78513          	addi	a0,a5,29
1c0024de:	fee44583          	lbu	a1,-18(s0)
1c0024e2:	fef44703          	lbu	a4,-17(s0)
1c0024e6:	1c0107b7          	lui	a5,0x1c010
1c0024ea:	0e878813          	addi	a6,a5,232 # 1c0100e8 <c>
1c0024ee:	87ba                	mv	a5,a4
1c0024f0:	fdc42703          	lw	a4,-36(s0)
1c0024f4:	4681                	li	a3,0
1c0024f6:	4601                	li	a2,0
1c0024f8:	038010ef          	jal	ra,1c003530 <tc_ccm_generation_encryption>
1c0024fc:	fea42423          	sw	a0,-24(s0)
1c002500:	fe842783          	lw	a5,-24(s0)
1c002504:	0017ac63          	p.beqimm	a5,1,1c00251c <amp_aes_encrypts+0xc6>
1c002508:	fe842583          	lw	a1,-24(s0)
1c00250c:	1c0077b7          	lui	a5,0x1c007
1c002510:	03878513          	addi	a0,a5,56 # 1c007038 <__DTOR_END__+0x10c>
1c002514:	0fb030ef          	jal	ra,1c005e0e <printf>
1c002518:	57f1                	li	a5,-4
1c00251a:	a011                	j	1c00251e <amp_aes_encrypts+0xc8>
1c00251c:	4781                	li	a5,0
1c00251e:	853e                	mv	a0,a5
1c002520:	50b2                	lw	ra,44(sp)
1c002522:	5422                	lw	s0,40(sp)
1c002524:	6145                	addi	sp,sp,48
1c002526:	8082                	ret

1c002528 <rotword>:
1c002528:	1101                	addi	sp,sp,-32
1c00252a:	ce22                	sw	s0,28(sp)
1c00252c:	1000                	addi	s0,sp,32
1c00252e:	fea42623          	sw	a0,-20(s0)
1c002532:	fec42703          	lw	a4,-20(s0)
1c002536:	47e1                	li	a5,24
1c002538:	08f757b3          	p.ror	a5,a4,a5
1c00253c:	853e                	mv	a0,a5
1c00253e:	4472                	lw	s0,28(sp)
1c002540:	6105                	addi	sp,sp,32
1c002542:	8082                	ret

1c002544 <tc_aes128_set_encrypt_key>:
1c002544:	711d                	addi	sp,sp,-96
1c002546:	ce86                	sw	ra,92(sp)
1c002548:	cca2                	sw	s0,88(sp)
1c00254a:	caa6                	sw	s1,84(sp)
1c00254c:	1080                	addi	s0,sp,96
1c00254e:	faa42623          	sw	a0,-84(s0)
1c002552:	fab42423          	sw	a1,-88(s0)
1c002556:	1c0077b7          	lui	a5,0x1c007
1c00255a:	fbc40713          	addi	a4,s0,-68
1c00255e:	06878793          	addi	a5,a5,104 # 1c007068 <__DTOR_END__+0x13c>
1c002562:	02c00693          	li	a3,44
1c002566:	8636                	mv	a2,a3
1c002568:	85be                	mv	a1,a5
1c00256a:	853a                	mv	a0,a4
1c00256c:	596030ef          	jal	ra,1c005b02 <memcpy>
1c002570:	fac42783          	lw	a5,-84(s0)
1c002574:	e399                	bnez	a5,1c00257a <tc_aes128_set_encrypt_key+0x36>
1c002576:	4781                	li	a5,0
1c002578:	aab5                	j	1c0026f4 <tc_aes128_set_encrypt_key+0x1b0>
1c00257a:	fa842783          	lw	a5,-88(s0)
1c00257e:	e399                	bnez	a5,1c002584 <tc_aes128_set_encrypt_key+0x40>
1c002580:	4781                	li	a5,0
1c002582:	aa8d                	j	1c0026f4 <tc_aes128_set_encrypt_key+0x1b0>
1c002584:	fe042623          	sw	zero,-20(s0)
1c002588:	a885                	j	1c0025f8 <tc_aes128_set_encrypt_key+0xb4>
1c00258a:	fec42783          	lw	a5,-20(s0)
1c00258e:	078a                	slli	a5,a5,0x2
1c002590:	fa842703          	lw	a4,-88(s0)
1c002594:	97ba                	add	a5,a5,a4
1c002596:	0007c783          	lbu	a5,0(a5)
1c00259a:	01879713          	slli	a4,a5,0x18
1c00259e:	fec42783          	lw	a5,-20(s0)
1c0025a2:	078a                	slli	a5,a5,0x2
1c0025a4:	0785                	addi	a5,a5,1
1c0025a6:	fa842683          	lw	a3,-88(s0)
1c0025aa:	97b6                	add	a5,a5,a3
1c0025ac:	0007c783          	lbu	a5,0(a5)
1c0025b0:	07c2                	slli	a5,a5,0x10
1c0025b2:	8f5d                	or	a4,a4,a5
1c0025b4:	fec42783          	lw	a5,-20(s0)
1c0025b8:	078a                	slli	a5,a5,0x2
1c0025ba:	0789                	addi	a5,a5,2
1c0025bc:	fa842683          	lw	a3,-88(s0)
1c0025c0:	97b6                	add	a5,a5,a3
1c0025c2:	0007c783          	lbu	a5,0(a5)
1c0025c6:	07a2                	slli	a5,a5,0x8
1c0025c8:	8fd9                	or	a5,a5,a4
1c0025ca:	fec42703          	lw	a4,-20(s0)
1c0025ce:	070a                	slli	a4,a4,0x2
1c0025d0:	070d                	addi	a4,a4,3
1c0025d2:	fa842683          	lw	a3,-88(s0)
1c0025d6:	9736                	add	a4,a4,a3
1c0025d8:	00074703          	lbu	a4,0(a4)
1c0025dc:	8fd9                	or	a5,a5,a4
1c0025de:	86be                	mv	a3,a5
1c0025e0:	fac42703          	lw	a4,-84(s0)
1c0025e4:	fec42783          	lw	a5,-20(s0)
1c0025e8:	078a                	slli	a5,a5,0x2
1c0025ea:	97ba                	add	a5,a5,a4
1c0025ec:	c394                	sw	a3,0(a5)
1c0025ee:	fec42783          	lw	a5,-20(s0)
1c0025f2:	0785                	addi	a5,a5,1
1c0025f4:	fef42623          	sw	a5,-20(s0)
1c0025f8:	fec42703          	lw	a4,-20(s0)
1c0025fc:	478d                	li	a5,3
1c0025fe:	f8e7f6e3          	bleu	a4,a5,1c00258a <tc_aes128_set_encrypt_key+0x46>
1c002602:	a0d5                	j	1c0026e6 <tc_aes128_set_encrypt_key+0x1a2>
1c002604:	fec42783          	lw	a5,-20(s0)
1c002608:	17fd                	addi	a5,a5,-1
1c00260a:	fac42703          	lw	a4,-84(s0)
1c00260e:	078a                	slli	a5,a5,0x2
1c002610:	97ba                	add	a5,a5,a4
1c002612:	439c                	lw	a5,0(a5)
1c002614:	fef42423          	sw	a5,-24(s0)
1c002618:	fec42783          	lw	a5,-20(s0)
1c00261c:	fa27b7b3          	p.bclr	a5,a5,29,2
1c002620:	efc1                	bnez	a5,1c0026b8 <tc_aes128_set_encrypt_key+0x174>
1c002622:	fe842503          	lw	a0,-24(s0)
1c002626:	3709                	jal	1c002528 <rotword>
1c002628:	87aa                	mv	a5,a0
1c00262a:	83e1                	srli	a5,a5,0x18
1c00262c:	ee87b733          	p.bclr	a4,a5,23,8
1c002630:	1c0077b7          	lui	a5,0x1c007
1c002634:	1d078793          	addi	a5,a5,464 # 1c0071d0 <sbox>
1c002638:	97ba                	add	a5,a5,a4
1c00263a:	0007c783          	lbu	a5,0(a5)
1c00263e:	01879493          	slli	s1,a5,0x18
1c002642:	fe842503          	lw	a0,-24(s0)
1c002646:	35cd                	jal	1c002528 <rotword>
1c002648:	87aa                	mv	a5,a0
1c00264a:	83c1                	srli	a5,a5,0x10
1c00264c:	ee87b733          	p.bclr	a4,a5,23,8
1c002650:	1c0077b7          	lui	a5,0x1c007
1c002654:	1d078793          	addi	a5,a5,464 # 1c0071d0 <sbox>
1c002658:	97ba                	add	a5,a5,a4
1c00265a:	0007c783          	lbu	a5,0(a5)
1c00265e:	07c2                	slli	a5,a5,0x10
1c002660:	8cdd                	or	s1,s1,a5
1c002662:	fe842503          	lw	a0,-24(s0)
1c002666:	35c9                	jal	1c002528 <rotword>
1c002668:	87aa                	mv	a5,a0
1c00266a:	83a1                	srli	a5,a5,0x8
1c00266c:	ee87b733          	p.bclr	a4,a5,23,8
1c002670:	1c0077b7          	lui	a5,0x1c007
1c002674:	1d078793          	addi	a5,a5,464 # 1c0071d0 <sbox>
1c002678:	97ba                	add	a5,a5,a4
1c00267a:	0007c783          	lbu	a5,0(a5)
1c00267e:	07a2                	slli	a5,a5,0x8
1c002680:	8cdd                	or	s1,s1,a5
1c002682:	fe842503          	lw	a0,-24(s0)
1c002686:	354d                	jal	1c002528 <rotword>
1c002688:	87aa                	mv	a5,a0
1c00268a:	ee87b733          	p.bclr	a4,a5,23,8
1c00268e:	1c0077b7          	lui	a5,0x1c007
1c002692:	1d078793          	addi	a5,a5,464 # 1c0071d0 <sbox>
1c002696:	97ba                	add	a5,a5,a4
1c002698:	0007c783          	lbu	a5,0(a5)
1c00269c:	8fc5                	or	a5,a5,s1
1c00269e:	873e                	mv	a4,a5
1c0026a0:	fec42783          	lw	a5,-20(s0)
1c0026a4:	8389                	srli	a5,a5,0x2
1c0026a6:	078a                	slli	a5,a5,0x2
1c0026a8:	ff040693          	addi	a3,s0,-16
1c0026ac:	97b6                	add	a5,a5,a3
1c0026ae:	fcc7a783          	lw	a5,-52(a5)
1c0026b2:	8fb9                	xor	a5,a5,a4
1c0026b4:	fef42423          	sw	a5,-24(s0)
1c0026b8:	fec42783          	lw	a5,-20(s0)
1c0026bc:	17f1                	addi	a5,a5,-4
1c0026be:	fac42703          	lw	a4,-84(s0)
1c0026c2:	078a                	slli	a5,a5,0x2
1c0026c4:	97ba                	add	a5,a5,a4
1c0026c6:	4398                	lw	a4,0(a5)
1c0026c8:	fe842783          	lw	a5,-24(s0)
1c0026cc:	8f3d                	xor	a4,a4,a5
1c0026ce:	fac42683          	lw	a3,-84(s0)
1c0026d2:	fec42783          	lw	a5,-20(s0)
1c0026d6:	078a                	slli	a5,a5,0x2
1c0026d8:	97b6                	add	a5,a5,a3
1c0026da:	c398                	sw	a4,0(a5)
1c0026dc:	fec42783          	lw	a5,-20(s0)
1c0026e0:	0785                	addi	a5,a5,1
1c0026e2:	fef42623          	sw	a5,-20(s0)
1c0026e6:	fec42703          	lw	a4,-20(s0)
1c0026ea:	02b00793          	li	a5,43
1c0026ee:	f0e7fbe3          	bleu	a4,a5,1c002604 <tc_aes128_set_encrypt_key+0xc0>
1c0026f2:	4785                	li	a5,1
1c0026f4:	853e                	mv	a0,a5
1c0026f6:	40f6                	lw	ra,92(sp)
1c0026f8:	4466                	lw	s0,88(sp)
1c0026fa:	44d6                	lw	s1,84(sp)
1c0026fc:	6125                	addi	sp,sp,96
1c0026fe:	8082                	ret

1c002700 <add_round_key>:
1c002700:	1101                	addi	sp,sp,-32
1c002702:	ce22                	sw	s0,28(sp)
1c002704:	1000                	addi	s0,sp,32
1c002706:	fea42623          	sw	a0,-20(s0)
1c00270a:	feb42423          	sw	a1,-24(s0)
1c00270e:	fec42783          	lw	a5,-20(s0)
1c002712:	0007c703          	lbu	a4,0(a5)
1c002716:	fe842783          	lw	a5,-24(s0)
1c00271a:	439c                	lw	a5,0(a5)
1c00271c:	83e1                	srli	a5,a5,0x18
1c00271e:	0ff7f793          	andi	a5,a5,255
1c002722:	8fb9                	xor	a5,a5,a4
1c002724:	0ff7f713          	andi	a4,a5,255
1c002728:	fec42783          	lw	a5,-20(s0)
1c00272c:	00e78023          	sb	a4,0(a5)
1c002730:	fec42783          	lw	a5,-20(s0)
1c002734:	0785                	addi	a5,a5,1
1c002736:	0007c683          	lbu	a3,0(a5)
1c00273a:	fe842783          	lw	a5,-24(s0)
1c00273e:	439c                	lw	a5,0(a5)
1c002740:	83c1                	srli	a5,a5,0x10
1c002742:	0ff7f713          	andi	a4,a5,255
1c002746:	fec42783          	lw	a5,-20(s0)
1c00274a:	0785                	addi	a5,a5,1
1c00274c:	8f35                	xor	a4,a4,a3
1c00274e:	0ff77713          	andi	a4,a4,255
1c002752:	00e78023          	sb	a4,0(a5)
1c002756:	fec42783          	lw	a5,-20(s0)
1c00275a:	0789                	addi	a5,a5,2
1c00275c:	0007c683          	lbu	a3,0(a5)
1c002760:	fe842783          	lw	a5,-24(s0)
1c002764:	439c                	lw	a5,0(a5)
1c002766:	83a1                	srli	a5,a5,0x8
1c002768:	0ff7f713          	andi	a4,a5,255
1c00276c:	fec42783          	lw	a5,-20(s0)
1c002770:	0789                	addi	a5,a5,2
1c002772:	8f35                	xor	a4,a4,a3
1c002774:	0ff77713          	andi	a4,a4,255
1c002778:	00e78023          	sb	a4,0(a5)
1c00277c:	fec42783          	lw	a5,-20(s0)
1c002780:	078d                	addi	a5,a5,3
1c002782:	0007c683          	lbu	a3,0(a5)
1c002786:	fe842783          	lw	a5,-24(s0)
1c00278a:	439c                	lw	a5,0(a5)
1c00278c:	0ff7f713          	andi	a4,a5,255
1c002790:	fec42783          	lw	a5,-20(s0)
1c002794:	078d                	addi	a5,a5,3
1c002796:	8f35                	xor	a4,a4,a3
1c002798:	0ff77713          	andi	a4,a4,255
1c00279c:	00e78023          	sb	a4,0(a5)
1c0027a0:	fec42783          	lw	a5,-20(s0)
1c0027a4:	0791                	addi	a5,a5,4
1c0027a6:	0007c683          	lbu	a3,0(a5)
1c0027aa:	fe842783          	lw	a5,-24(s0)
1c0027ae:	0791                	addi	a5,a5,4
1c0027b0:	439c                	lw	a5,0(a5)
1c0027b2:	83e1                	srli	a5,a5,0x18
1c0027b4:	0ff7f713          	andi	a4,a5,255
1c0027b8:	fec42783          	lw	a5,-20(s0)
1c0027bc:	0791                	addi	a5,a5,4
1c0027be:	8f35                	xor	a4,a4,a3
1c0027c0:	0ff77713          	andi	a4,a4,255
1c0027c4:	00e78023          	sb	a4,0(a5)
1c0027c8:	fec42783          	lw	a5,-20(s0)
1c0027cc:	0795                	addi	a5,a5,5
1c0027ce:	0007c683          	lbu	a3,0(a5)
1c0027d2:	fe842783          	lw	a5,-24(s0)
1c0027d6:	0791                	addi	a5,a5,4
1c0027d8:	439c                	lw	a5,0(a5)
1c0027da:	83c1                	srli	a5,a5,0x10
1c0027dc:	0ff7f713          	andi	a4,a5,255
1c0027e0:	fec42783          	lw	a5,-20(s0)
1c0027e4:	0795                	addi	a5,a5,5
1c0027e6:	8f35                	xor	a4,a4,a3
1c0027e8:	0ff77713          	andi	a4,a4,255
1c0027ec:	00e78023          	sb	a4,0(a5)
1c0027f0:	fec42783          	lw	a5,-20(s0)
1c0027f4:	0799                	addi	a5,a5,6
1c0027f6:	0007c683          	lbu	a3,0(a5)
1c0027fa:	fe842783          	lw	a5,-24(s0)
1c0027fe:	0791                	addi	a5,a5,4
1c002800:	439c                	lw	a5,0(a5)
1c002802:	83a1                	srli	a5,a5,0x8
1c002804:	0ff7f713          	andi	a4,a5,255
1c002808:	fec42783          	lw	a5,-20(s0)
1c00280c:	0799                	addi	a5,a5,6
1c00280e:	8f35                	xor	a4,a4,a3
1c002810:	0ff77713          	andi	a4,a4,255
1c002814:	00e78023          	sb	a4,0(a5)
1c002818:	fec42783          	lw	a5,-20(s0)
1c00281c:	079d                	addi	a5,a5,7
1c00281e:	0007c683          	lbu	a3,0(a5)
1c002822:	fe842783          	lw	a5,-24(s0)
1c002826:	0791                	addi	a5,a5,4
1c002828:	439c                	lw	a5,0(a5)
1c00282a:	0ff7f713          	andi	a4,a5,255
1c00282e:	fec42783          	lw	a5,-20(s0)
1c002832:	079d                	addi	a5,a5,7
1c002834:	8f35                	xor	a4,a4,a3
1c002836:	0ff77713          	andi	a4,a4,255
1c00283a:	00e78023          	sb	a4,0(a5)
1c00283e:	fec42783          	lw	a5,-20(s0)
1c002842:	07a1                	addi	a5,a5,8
1c002844:	0007c683          	lbu	a3,0(a5)
1c002848:	fe842783          	lw	a5,-24(s0)
1c00284c:	07a1                	addi	a5,a5,8
1c00284e:	439c                	lw	a5,0(a5)
1c002850:	83e1                	srli	a5,a5,0x18
1c002852:	0ff7f713          	andi	a4,a5,255
1c002856:	fec42783          	lw	a5,-20(s0)
1c00285a:	07a1                	addi	a5,a5,8
1c00285c:	8f35                	xor	a4,a4,a3
1c00285e:	0ff77713          	andi	a4,a4,255
1c002862:	00e78023          	sb	a4,0(a5)
1c002866:	fec42783          	lw	a5,-20(s0)
1c00286a:	07a5                	addi	a5,a5,9
1c00286c:	0007c683          	lbu	a3,0(a5)
1c002870:	fe842783          	lw	a5,-24(s0)
1c002874:	07a1                	addi	a5,a5,8
1c002876:	439c                	lw	a5,0(a5)
1c002878:	83c1                	srli	a5,a5,0x10
1c00287a:	0ff7f713          	andi	a4,a5,255
1c00287e:	fec42783          	lw	a5,-20(s0)
1c002882:	07a5                	addi	a5,a5,9
1c002884:	8f35                	xor	a4,a4,a3
1c002886:	0ff77713          	andi	a4,a4,255
1c00288a:	00e78023          	sb	a4,0(a5)
1c00288e:	fec42783          	lw	a5,-20(s0)
1c002892:	07a9                	addi	a5,a5,10
1c002894:	0007c683          	lbu	a3,0(a5)
1c002898:	fe842783          	lw	a5,-24(s0)
1c00289c:	07a1                	addi	a5,a5,8
1c00289e:	439c                	lw	a5,0(a5)
1c0028a0:	83a1                	srli	a5,a5,0x8
1c0028a2:	0ff7f713          	andi	a4,a5,255
1c0028a6:	fec42783          	lw	a5,-20(s0)
1c0028aa:	07a9                	addi	a5,a5,10
1c0028ac:	8f35                	xor	a4,a4,a3
1c0028ae:	0ff77713          	andi	a4,a4,255
1c0028b2:	00e78023          	sb	a4,0(a5)
1c0028b6:	fec42783          	lw	a5,-20(s0)
1c0028ba:	07ad                	addi	a5,a5,11
1c0028bc:	0007c683          	lbu	a3,0(a5)
1c0028c0:	fe842783          	lw	a5,-24(s0)
1c0028c4:	07a1                	addi	a5,a5,8
1c0028c6:	439c                	lw	a5,0(a5)
1c0028c8:	0ff7f713          	andi	a4,a5,255
1c0028cc:	fec42783          	lw	a5,-20(s0)
1c0028d0:	07ad                	addi	a5,a5,11
1c0028d2:	8f35                	xor	a4,a4,a3
1c0028d4:	0ff77713          	andi	a4,a4,255
1c0028d8:	00e78023          	sb	a4,0(a5)
1c0028dc:	fec42783          	lw	a5,-20(s0)
1c0028e0:	07b1                	addi	a5,a5,12
1c0028e2:	0007c683          	lbu	a3,0(a5)
1c0028e6:	fe842783          	lw	a5,-24(s0)
1c0028ea:	07b1                	addi	a5,a5,12
1c0028ec:	439c                	lw	a5,0(a5)
1c0028ee:	83e1                	srli	a5,a5,0x18
1c0028f0:	0ff7f713          	andi	a4,a5,255
1c0028f4:	fec42783          	lw	a5,-20(s0)
1c0028f8:	07b1                	addi	a5,a5,12
1c0028fa:	8f35                	xor	a4,a4,a3
1c0028fc:	0ff77713          	andi	a4,a4,255
1c002900:	00e78023          	sb	a4,0(a5)
1c002904:	fec42783          	lw	a5,-20(s0)
1c002908:	07b5                	addi	a5,a5,13
1c00290a:	0007c683          	lbu	a3,0(a5)
1c00290e:	fe842783          	lw	a5,-24(s0)
1c002912:	07b1                	addi	a5,a5,12
1c002914:	439c                	lw	a5,0(a5)
1c002916:	83c1                	srli	a5,a5,0x10
1c002918:	0ff7f713          	andi	a4,a5,255
1c00291c:	fec42783          	lw	a5,-20(s0)
1c002920:	07b5                	addi	a5,a5,13
1c002922:	8f35                	xor	a4,a4,a3
1c002924:	0ff77713          	andi	a4,a4,255
1c002928:	00e78023          	sb	a4,0(a5)
1c00292c:	fec42783          	lw	a5,-20(s0)
1c002930:	07b9                	addi	a5,a5,14
1c002932:	0007c683          	lbu	a3,0(a5)
1c002936:	fe842783          	lw	a5,-24(s0)
1c00293a:	07b1                	addi	a5,a5,12
1c00293c:	439c                	lw	a5,0(a5)
1c00293e:	83a1                	srli	a5,a5,0x8
1c002940:	0ff7f713          	andi	a4,a5,255
1c002944:	fec42783          	lw	a5,-20(s0)
1c002948:	07b9                	addi	a5,a5,14
1c00294a:	8f35                	xor	a4,a4,a3
1c00294c:	0ff77713          	andi	a4,a4,255
1c002950:	00e78023          	sb	a4,0(a5)
1c002954:	fec42783          	lw	a5,-20(s0)
1c002958:	07bd                	addi	a5,a5,15
1c00295a:	0007c683          	lbu	a3,0(a5)
1c00295e:	fe842783          	lw	a5,-24(s0)
1c002962:	07b1                	addi	a5,a5,12
1c002964:	439c                	lw	a5,0(a5)
1c002966:	0ff7f713          	andi	a4,a5,255
1c00296a:	fec42783          	lw	a5,-20(s0)
1c00296e:	07bd                	addi	a5,a5,15
1c002970:	8f35                	xor	a4,a4,a3
1c002972:	0ff77713          	andi	a4,a4,255
1c002976:	00e78023          	sb	a4,0(a5)
1c00297a:	0001                	nop
1c00297c:	4472                	lw	s0,28(sp)
1c00297e:	6105                	addi	sp,sp,32
1c002980:	8082                	ret

1c002982 <sub_bytes>:
1c002982:	7179                	addi	sp,sp,-48
1c002984:	d622                	sw	s0,44(sp)
1c002986:	1800                	addi	s0,sp,48
1c002988:	fca42e23          	sw	a0,-36(s0)
1c00298c:	fe042623          	sw	zero,-20(s0)
1c002990:	a825                	j	1c0029c8 <sub_bytes+0x46>
1c002992:	fdc42703          	lw	a4,-36(s0)
1c002996:	fec42783          	lw	a5,-20(s0)
1c00299a:	97ba                	add	a5,a5,a4
1c00299c:	0007c783          	lbu	a5,0(a5)
1c0029a0:	86be                	mv	a3,a5
1c0029a2:	fdc42703          	lw	a4,-36(s0)
1c0029a6:	fec42783          	lw	a5,-20(s0)
1c0029aa:	97ba                	add	a5,a5,a4
1c0029ac:	1c007737          	lui	a4,0x1c007
1c0029b0:	1d070713          	addi	a4,a4,464 # 1c0071d0 <sbox>
1c0029b4:	9736                	add	a4,a4,a3
1c0029b6:	00074703          	lbu	a4,0(a4)
1c0029ba:	00e78023          	sb	a4,0(a5)
1c0029be:	fec42783          	lw	a5,-20(s0)
1c0029c2:	0785                	addi	a5,a5,1
1c0029c4:	fef42623          	sw	a5,-20(s0)
1c0029c8:	fec42703          	lw	a4,-20(s0)
1c0029cc:	47bd                	li	a5,15
1c0029ce:	fce7f2e3          	bleu	a4,a5,1c002992 <sub_bytes+0x10>
1c0029d2:	0001                	nop
1c0029d4:	5432                	lw	s0,44(sp)
1c0029d6:	6145                	addi	sp,sp,48
1c0029d8:	8082                	ret

1c0029da <mult_row_column>:
1c0029da:	1101                	addi	sp,sp,-32
1c0029dc:	ce06                	sw	ra,28(sp)
1c0029de:	cc22                	sw	s0,24(sp)
1c0029e0:	ca26                	sw	s1,20(sp)
1c0029e2:	1000                	addi	s0,sp,32
1c0029e4:	fea42623          	sw	a0,-20(s0)
1c0029e8:	feb42423          	sw	a1,-24(s0)
1c0029ec:	fe842783          	lw	a5,-24(s0)
1c0029f0:	0007c783          	lbu	a5,0(a5)
1c0029f4:	853e                	mv	a0,a5
1c0029f6:	5c5000ef          	jal	ra,1c0037ba <_double_byte>
1c0029fa:	87aa                	mv	a5,a0
1c0029fc:	84be                	mv	s1,a5
1c0029fe:	fe842783          	lw	a5,-24(s0)
1c002a02:	0785                	addi	a5,a5,1
1c002a04:	0007c783          	lbu	a5,0(a5)
1c002a08:	853e                	mv	a0,a5
1c002a0a:	5b1000ef          	jal	ra,1c0037ba <_double_byte>
1c002a0e:	87aa                	mv	a5,a0
1c002a10:	873e                	mv	a4,a5
1c002a12:	fe842783          	lw	a5,-24(s0)
1c002a16:	0785                	addi	a5,a5,1
1c002a18:	0007c783          	lbu	a5,0(a5)
1c002a1c:	8fb9                	xor	a5,a5,a4
1c002a1e:	0ff7f793          	andi	a5,a5,255
1c002a22:	8fa5                	xor	a5,a5,s1
1c002a24:	0ff7f713          	andi	a4,a5,255
1c002a28:	fe842783          	lw	a5,-24(s0)
1c002a2c:	0789                	addi	a5,a5,2
1c002a2e:	0007c783          	lbu	a5,0(a5)
1c002a32:	8fb9                	xor	a5,a5,a4
1c002a34:	0ff7f713          	andi	a4,a5,255
1c002a38:	fe842783          	lw	a5,-24(s0)
1c002a3c:	078d                	addi	a5,a5,3
1c002a3e:	0007c783          	lbu	a5,0(a5)
1c002a42:	8fb9                	xor	a5,a5,a4
1c002a44:	0ff7f713          	andi	a4,a5,255
1c002a48:	fec42783          	lw	a5,-20(s0)
1c002a4c:	00e78023          	sb	a4,0(a5)
1c002a50:	fe842783          	lw	a5,-24(s0)
1c002a54:	0007c483          	lbu	s1,0(a5)
1c002a58:	fe842783          	lw	a5,-24(s0)
1c002a5c:	0785                	addi	a5,a5,1
1c002a5e:	0007c783          	lbu	a5,0(a5)
1c002a62:	853e                	mv	a0,a5
1c002a64:	557000ef          	jal	ra,1c0037ba <_double_byte>
1c002a68:	87aa                	mv	a5,a0
1c002a6a:	8fa5                	xor	a5,a5,s1
1c002a6c:	0ff7f493          	andi	s1,a5,255
1c002a70:	fe842783          	lw	a5,-24(s0)
1c002a74:	0789                	addi	a5,a5,2
1c002a76:	0007c783          	lbu	a5,0(a5)
1c002a7a:	853e                	mv	a0,a5
1c002a7c:	53f000ef          	jal	ra,1c0037ba <_double_byte>
1c002a80:	87aa                	mv	a5,a0
1c002a82:	873e                	mv	a4,a5
1c002a84:	fe842783          	lw	a5,-24(s0)
1c002a88:	0789                	addi	a5,a5,2
1c002a8a:	0007c783          	lbu	a5,0(a5)
1c002a8e:	8fb9                	xor	a5,a5,a4
1c002a90:	0ff7f793          	andi	a5,a5,255
1c002a94:	8fa5                	xor	a5,a5,s1
1c002a96:	0ff7f693          	andi	a3,a5,255
1c002a9a:	fe842783          	lw	a5,-24(s0)
1c002a9e:	078d                	addi	a5,a5,3
1c002aa0:	0007c703          	lbu	a4,0(a5)
1c002aa4:	fec42783          	lw	a5,-20(s0)
1c002aa8:	0785                	addi	a5,a5,1
1c002aaa:	8f35                	xor	a4,a4,a3
1c002aac:	0ff77713          	andi	a4,a4,255
1c002ab0:	00e78023          	sb	a4,0(a5)
1c002ab4:	fe842783          	lw	a5,-24(s0)
1c002ab8:	0007c703          	lbu	a4,0(a5)
1c002abc:	fe842783          	lw	a5,-24(s0)
1c002ac0:	0785                	addi	a5,a5,1
1c002ac2:	0007c783          	lbu	a5,0(a5)
1c002ac6:	8fb9                	xor	a5,a5,a4
1c002ac8:	0ff7f493          	andi	s1,a5,255
1c002acc:	fe842783          	lw	a5,-24(s0)
1c002ad0:	0789                	addi	a5,a5,2
1c002ad2:	0007c783          	lbu	a5,0(a5)
1c002ad6:	853e                	mv	a0,a5
1c002ad8:	4e3000ef          	jal	ra,1c0037ba <_double_byte>
1c002adc:	87aa                	mv	a5,a0
1c002ade:	8fa5                	xor	a5,a5,s1
1c002ae0:	0ff7f493          	andi	s1,a5,255
1c002ae4:	fe842783          	lw	a5,-24(s0)
1c002ae8:	078d                	addi	a5,a5,3
1c002aea:	0007c783          	lbu	a5,0(a5)
1c002aee:	853e                	mv	a0,a5
1c002af0:	4cb000ef          	jal	ra,1c0037ba <_double_byte>
1c002af4:	87aa                	mv	a5,a0
1c002af6:	873e                	mv	a4,a5
1c002af8:	fe842783          	lw	a5,-24(s0)
1c002afc:	078d                	addi	a5,a5,3
1c002afe:	0007c783          	lbu	a5,0(a5)
1c002b02:	8fb9                	xor	a5,a5,a4
1c002b04:	0ff7f713          	andi	a4,a5,255
1c002b08:	fec42783          	lw	a5,-20(s0)
1c002b0c:	0789                	addi	a5,a5,2
1c002b0e:	8f25                	xor	a4,a4,s1
1c002b10:	0ff77713          	andi	a4,a4,255
1c002b14:	00e78023          	sb	a4,0(a5)
1c002b18:	fe842783          	lw	a5,-24(s0)
1c002b1c:	0007c783          	lbu	a5,0(a5)
1c002b20:	853e                	mv	a0,a5
1c002b22:	499000ef          	jal	ra,1c0037ba <_double_byte>
1c002b26:	87aa                	mv	a5,a0
1c002b28:	873e                	mv	a4,a5
1c002b2a:	fe842783          	lw	a5,-24(s0)
1c002b2e:	0007c783          	lbu	a5,0(a5)
1c002b32:	8fb9                	xor	a5,a5,a4
1c002b34:	0ff7f713          	andi	a4,a5,255
1c002b38:	fe842783          	lw	a5,-24(s0)
1c002b3c:	0785                	addi	a5,a5,1
1c002b3e:	0007c783          	lbu	a5,0(a5)
1c002b42:	8fb9                	xor	a5,a5,a4
1c002b44:	0ff7f713          	andi	a4,a5,255
1c002b48:	fe842783          	lw	a5,-24(s0)
1c002b4c:	0789                	addi	a5,a5,2
1c002b4e:	0007c783          	lbu	a5,0(a5)
1c002b52:	8fb9                	xor	a5,a5,a4
1c002b54:	0ff7f493          	andi	s1,a5,255
1c002b58:	fe842783          	lw	a5,-24(s0)
1c002b5c:	078d                	addi	a5,a5,3
1c002b5e:	0007c783          	lbu	a5,0(a5)
1c002b62:	853e                	mv	a0,a5
1c002b64:	457000ef          	jal	ra,1c0037ba <_double_byte>
1c002b68:	87aa                	mv	a5,a0
1c002b6a:	873e                	mv	a4,a5
1c002b6c:	fec42783          	lw	a5,-20(s0)
1c002b70:	078d                	addi	a5,a5,3
1c002b72:	8f25                	xor	a4,a4,s1
1c002b74:	0ff77713          	andi	a4,a4,255
1c002b78:	00e78023          	sb	a4,0(a5)
1c002b7c:	0001                	nop
1c002b7e:	40f2                	lw	ra,28(sp)
1c002b80:	4462                	lw	s0,24(sp)
1c002b82:	44d2                	lw	s1,20(sp)
1c002b84:	6105                	addi	sp,sp,32
1c002b86:	8082                	ret

1c002b88 <mix_columns>:
1c002b88:	7179                	addi	sp,sp,-48
1c002b8a:	d606                	sw	ra,44(sp)
1c002b8c:	d422                	sw	s0,40(sp)
1c002b8e:	1800                	addi	s0,sp,48
1c002b90:	fca42e23          	sw	a0,-36(s0)
1c002b94:	fe040793          	addi	a5,s0,-32
1c002b98:	fdc42583          	lw	a1,-36(s0)
1c002b9c:	853e                	mv	a0,a5
1c002b9e:	3d35                	jal	1c0029da <mult_row_column>
1c002ba0:	fdc42783          	lw	a5,-36(s0)
1c002ba4:	00478713          	addi	a4,a5,4
1c002ba8:	fe040793          	addi	a5,s0,-32
1c002bac:	0791                	addi	a5,a5,4
1c002bae:	85ba                	mv	a1,a4
1c002bb0:	853e                	mv	a0,a5
1c002bb2:	3525                	jal	1c0029da <mult_row_column>
1c002bb4:	fdc42783          	lw	a5,-36(s0)
1c002bb8:	00878713          	addi	a4,a5,8
1c002bbc:	fe040793          	addi	a5,s0,-32
1c002bc0:	07a1                	addi	a5,a5,8
1c002bc2:	85ba                	mv	a1,a4
1c002bc4:	853e                	mv	a0,a5
1c002bc6:	3d11                	jal	1c0029da <mult_row_column>
1c002bc8:	fdc42783          	lw	a5,-36(s0)
1c002bcc:	00c78713          	addi	a4,a5,12
1c002bd0:	fe040793          	addi	a5,s0,-32
1c002bd4:	07b1                	addi	a5,a5,12
1c002bd6:	85ba                	mv	a1,a4
1c002bd8:	853e                	mv	a0,a5
1c002bda:	3501                	jal	1c0029da <mult_row_column>
1c002bdc:	fe040793          	addi	a5,s0,-32
1c002be0:	46c1                	li	a3,16
1c002be2:	863e                	mv	a2,a5
1c002be4:	45c1                	li	a1,16
1c002be6:	fdc42503          	lw	a0,-36(s0)
1c002bea:	359000ef          	jal	ra,1c003742 <_copy>
1c002bee:	0001                	nop
1c002bf0:	50b2                	lw	ra,44(sp)
1c002bf2:	5422                	lw	s0,40(sp)
1c002bf4:	6145                	addi	sp,sp,48
1c002bf6:	8082                	ret

1c002bf8 <shift_rows>:
1c002bf8:	7179                	addi	sp,sp,-48
1c002bfa:	d606                	sw	ra,44(sp)
1c002bfc:	d422                	sw	s0,40(sp)
1c002bfe:	1800                	addi	s0,sp,48
1c002c00:	fca42e23          	sw	a0,-36(s0)
1c002c04:	fdc42783          	lw	a5,-36(s0)
1c002c08:	0007c783          	lbu	a5,0(a5)
1c002c0c:	fef40023          	sb	a5,-32(s0)
1c002c10:	fdc42783          	lw	a5,-36(s0)
1c002c14:	0057c783          	lbu	a5,5(a5)
1c002c18:	fef400a3          	sb	a5,-31(s0)
1c002c1c:	fdc42783          	lw	a5,-36(s0)
1c002c20:	00a7c783          	lbu	a5,10(a5)
1c002c24:	fef40123          	sb	a5,-30(s0)
1c002c28:	fdc42783          	lw	a5,-36(s0)
1c002c2c:	00f7c783          	lbu	a5,15(a5)
1c002c30:	fef401a3          	sb	a5,-29(s0)
1c002c34:	fdc42783          	lw	a5,-36(s0)
1c002c38:	0047c783          	lbu	a5,4(a5)
1c002c3c:	fef40223          	sb	a5,-28(s0)
1c002c40:	fdc42783          	lw	a5,-36(s0)
1c002c44:	0097c783          	lbu	a5,9(a5)
1c002c48:	fef402a3          	sb	a5,-27(s0)
1c002c4c:	fdc42783          	lw	a5,-36(s0)
1c002c50:	00e7c783          	lbu	a5,14(a5)
1c002c54:	fef40323          	sb	a5,-26(s0)
1c002c58:	fdc42783          	lw	a5,-36(s0)
1c002c5c:	0037c783          	lbu	a5,3(a5)
1c002c60:	fef403a3          	sb	a5,-25(s0)
1c002c64:	fdc42783          	lw	a5,-36(s0)
1c002c68:	0087c783          	lbu	a5,8(a5)
1c002c6c:	fef40423          	sb	a5,-24(s0)
1c002c70:	fdc42783          	lw	a5,-36(s0)
1c002c74:	00d7c783          	lbu	a5,13(a5)
1c002c78:	fef404a3          	sb	a5,-23(s0)
1c002c7c:	fdc42783          	lw	a5,-36(s0)
1c002c80:	0027c783          	lbu	a5,2(a5)
1c002c84:	fef40523          	sb	a5,-22(s0)
1c002c88:	fdc42783          	lw	a5,-36(s0)
1c002c8c:	0077c783          	lbu	a5,7(a5)
1c002c90:	fef405a3          	sb	a5,-21(s0)
1c002c94:	fdc42783          	lw	a5,-36(s0)
1c002c98:	00c7c783          	lbu	a5,12(a5)
1c002c9c:	fef40623          	sb	a5,-20(s0)
1c002ca0:	fdc42783          	lw	a5,-36(s0)
1c002ca4:	0017c783          	lbu	a5,1(a5)
1c002ca8:	fef406a3          	sb	a5,-19(s0)
1c002cac:	fdc42783          	lw	a5,-36(s0)
1c002cb0:	0067c783          	lbu	a5,6(a5)
1c002cb4:	fef40723          	sb	a5,-18(s0)
1c002cb8:	fdc42783          	lw	a5,-36(s0)
1c002cbc:	00b7c783          	lbu	a5,11(a5)
1c002cc0:	fef407a3          	sb	a5,-17(s0)
1c002cc4:	fe040793          	addi	a5,s0,-32
1c002cc8:	46c1                	li	a3,16
1c002cca:	863e                	mv	a2,a5
1c002ccc:	45c1                	li	a1,16
1c002cce:	fdc42503          	lw	a0,-36(s0)
1c002cd2:	271000ef          	jal	ra,1c003742 <_copy>
1c002cd6:	0001                	nop
1c002cd8:	50b2                	lw	ra,44(sp)
1c002cda:	5422                	lw	s0,40(sp)
1c002cdc:	6145                	addi	sp,sp,48
1c002cde:	8082                	ret

1c002ce0 <tc_aes_encrypt>:
1c002ce0:	7139                	addi	sp,sp,-64
1c002ce2:	de06                	sw	ra,60(sp)
1c002ce4:	dc22                	sw	s0,56(sp)
1c002ce6:	0080                	addi	s0,sp,64
1c002ce8:	fca42623          	sw	a0,-52(s0)
1c002cec:	fcb42423          	sw	a1,-56(s0)
1c002cf0:	fcc42223          	sw	a2,-60(s0)
1c002cf4:	fcc42783          	lw	a5,-52(s0)
1c002cf8:	e399                	bnez	a5,1c002cfe <tc_aes_encrypt+0x1e>
1c002cfa:	4781                	li	a5,0
1c002cfc:	a8c1                	j	1c002dcc <tc_aes_encrypt+0xec>
1c002cfe:	fc842783          	lw	a5,-56(s0)
1c002d02:	e399                	bnez	a5,1c002d08 <tc_aes_encrypt+0x28>
1c002d04:	4781                	li	a5,0
1c002d06:	a0d9                	j	1c002dcc <tc_aes_encrypt+0xec>
1c002d08:	fc442783          	lw	a5,-60(s0)
1c002d0c:	e399                	bnez	a5,1c002d12 <tc_aes_encrypt+0x32>
1c002d0e:	4781                	li	a5,0
1c002d10:	a875                	j	1c002dcc <tc_aes_encrypt+0xec>
1c002d12:	fdc40793          	addi	a5,s0,-36
1c002d16:	46c1                	li	a3,16
1c002d18:	fc842603          	lw	a2,-56(s0)
1c002d1c:	45c1                	li	a1,16
1c002d1e:	853e                	mv	a0,a5
1c002d20:	223000ef          	jal	ra,1c003742 <_copy>
1c002d24:	fc442703          	lw	a4,-60(s0)
1c002d28:	fdc40793          	addi	a5,s0,-36
1c002d2c:	85ba                	mv	a1,a4
1c002d2e:	853e                	mv	a0,a5
1c002d30:	9d1ff0ef          	jal	ra,1c002700 <add_round_key>
1c002d34:	fe042623          	sw	zero,-20(s0)
1c002d38:	a83d                	j	1c002d76 <tc_aes_encrypt+0x96>
1c002d3a:	fdc40793          	addi	a5,s0,-36
1c002d3e:	853e                	mv	a0,a5
1c002d40:	3189                	jal	1c002982 <sub_bytes>
1c002d42:	fdc40793          	addi	a5,s0,-36
1c002d46:	853e                	mv	a0,a5
1c002d48:	3d45                	jal	1c002bf8 <shift_rows>
1c002d4a:	fdc40793          	addi	a5,s0,-36
1c002d4e:	853e                	mv	a0,a5
1c002d50:	3d25                	jal	1c002b88 <mix_columns>
1c002d52:	fc442703          	lw	a4,-60(s0)
1c002d56:	fec42783          	lw	a5,-20(s0)
1c002d5a:	0785                	addi	a5,a5,1
1c002d5c:	0792                	slli	a5,a5,0x4
1c002d5e:	973e                	add	a4,a4,a5
1c002d60:	fdc40793          	addi	a5,s0,-36
1c002d64:	85ba                	mv	a1,a4
1c002d66:	853e                	mv	a0,a5
1c002d68:	999ff0ef          	jal	ra,1c002700 <add_round_key>
1c002d6c:	fec42783          	lw	a5,-20(s0)
1c002d70:	0785                	addi	a5,a5,1
1c002d72:	fef42623          	sw	a5,-20(s0)
1c002d76:	fec42703          	lw	a4,-20(s0)
1c002d7a:	47a1                	li	a5,8
1c002d7c:	fae7ffe3          	bleu	a4,a5,1c002d3a <tc_aes_encrypt+0x5a>
1c002d80:	fdc40793          	addi	a5,s0,-36
1c002d84:	853e                	mv	a0,a5
1c002d86:	3ef5                	jal	1c002982 <sub_bytes>
1c002d88:	fdc40793          	addi	a5,s0,-36
1c002d8c:	853e                	mv	a0,a5
1c002d8e:	35ad                	jal	1c002bf8 <shift_rows>
1c002d90:	fc442703          	lw	a4,-60(s0)
1c002d94:	fec42783          	lw	a5,-20(s0)
1c002d98:	0785                	addi	a5,a5,1
1c002d9a:	0792                	slli	a5,a5,0x4
1c002d9c:	973e                	add	a4,a4,a5
1c002d9e:	fdc40793          	addi	a5,s0,-36
1c002da2:	85ba                	mv	a1,a4
1c002da4:	853e                	mv	a0,a5
1c002da6:	95bff0ef          	jal	ra,1c002700 <add_round_key>
1c002daa:	fdc40793          	addi	a5,s0,-36
1c002dae:	46c1                	li	a3,16
1c002db0:	863e                	mv	a2,a5
1c002db2:	45c1                	li	a1,16
1c002db4:	fcc42503          	lw	a0,-52(s0)
1c002db8:	18b000ef          	jal	ra,1c003742 <_copy>
1c002dbc:	fdc40793          	addi	a5,s0,-36
1c002dc0:	4641                	li	a2,16
1c002dc2:	4581                	li	a1,0
1c002dc4:	853e                	mv	a0,a5
1c002dc6:	1c3000ef          	jal	ra,1c003788 <_set>
1c002dca:	4785                	li	a5,1
1c002dcc:	853e                	mv	a0,a5
1c002dce:	50f2                	lw	ra,60(sp)
1c002dd0:	5462                	lw	s0,56(sp)
1c002dd2:	6121                	addi	sp,sp,64
1c002dd4:	8082                	ret

1c002dd6 <arrInc>:
1c002dd6:	7179                	addi	sp,sp,-48
1c002dd8:	d622                	sw	s0,44(sp)
1c002dda:	1800                	addi	s0,sp,48
1c002ddc:	fca42e23          	sw	a0,-36(s0)
1c002de0:	fcb42c23          	sw	a1,-40(s0)
1c002de4:	fdc42783          	lw	a5,-36(s0)
1c002de8:	c3a1                	beqz	a5,1c002e28 <arrInc+0x52>
1c002dea:	fd842783          	lw	a5,-40(s0)
1c002dee:	fef42623          	sw	a5,-20(s0)
1c002df2:	a035                	j	1c002e1e <arrInc+0x48>
1c002df4:	fec42783          	lw	a5,-20(s0)
1c002df8:	17fd                	addi	a5,a5,-1
1c002dfa:	fdc42703          	lw	a4,-36(s0)
1c002dfe:	97ba                	add	a5,a5,a4
1c002e00:	0007c703          	lbu	a4,0(a5)
1c002e04:	0705                	addi	a4,a4,1
1c002e06:	0ff77713          	andi	a4,a4,255
1c002e0a:	00e78023          	sb	a4,0(a5)
1c002e0e:	0007c783          	lbu	a5,0(a5)
1c002e12:	eb91                	bnez	a5,1c002e26 <arrInc+0x50>
1c002e14:	fec42783          	lw	a5,-20(s0)
1c002e18:	17fd                	addi	a5,a5,-1
1c002e1a:	fef42623          	sw	a5,-20(s0)
1c002e1e:	fec42783          	lw	a5,-20(s0)
1c002e22:	fbe9                	bnez	a5,1c002df4 <arrInc+0x1e>
1c002e24:	a011                	j	1c002e28 <arrInc+0x52>
1c002e26:	0001                	nop
1c002e28:	0001                	nop
1c002e2a:	5432                	lw	s0,44(sp)
1c002e2c:	6145                	addi	sp,sp,48
1c002e2e:	8082                	ret

1c002e30 <tc_ctr_prng_update>:
1c002e30:	711d                	addi	sp,sp,-96
1c002e32:	ce86                	sw	ra,92(sp)
1c002e34:	cca2                	sw	s0,88(sp)
1c002e36:	1080                	addi	s0,sp,96
1c002e38:	faa42623          	sw	a0,-84(s0)
1c002e3c:	fab42423          	sw	a1,-88(s0)
1c002e40:	fac42783          	lw	a5,-84(s0)
1c002e44:	0e078a63          	beqz	a5,1c002f38 <tc_ctr_prng_update+0x108>
1c002e48:	fe042623          	sw	zero,-20(s0)
1c002e4c:	a0b5                	j	1c002eb8 <tc_ctr_prng_update+0x88>
1c002e4e:	02000713          	li	a4,32
1c002e52:	fec42783          	lw	a5,-20(s0)
1c002e56:	40f707b3          	sub	a5,a4,a5
1c002e5a:	fef42423          	sw	a5,-24(s0)
1c002e5e:	fac42783          	lw	a5,-84(s0)
1c002e62:	45c1                	li	a1,16
1c002e64:	853e                	mv	a0,a5
1c002e66:	3f85                	jal	1c002dd6 <arrInc>
1c002e68:	fe842703          	lw	a4,-24(s0)
1c002e6c:	47c1                	li	a5,16
1c002e6e:	00e7f563          	bleu	a4,a5,1c002e78 <tc_ctr_prng_update+0x48>
1c002e72:	47c1                	li	a5,16
1c002e74:	fef42423          	sw	a5,-24(s0)
1c002e78:	fac42703          	lw	a4,-84(s0)
1c002e7c:	fac42783          	lw	a5,-84(s0)
1c002e80:	01078693          	addi	a3,a5,16
1c002e84:	fd440793          	addi	a5,s0,-44
1c002e88:	8636                	mv	a2,a3
1c002e8a:	85ba                	mv	a1,a4
1c002e8c:	853e                	mv	a0,a5
1c002e8e:	3d89                	jal	1c002ce0 <tc_aes_encrypt>
1c002e90:	fb440713          	addi	a4,s0,-76
1c002e94:	fec42783          	lw	a5,-20(s0)
1c002e98:	97ba                	add	a5,a5,a4
1c002e9a:	fd440713          	addi	a4,s0,-44
1c002e9e:	fe842603          	lw	a2,-24(s0)
1c002ea2:	85ba                	mv	a1,a4
1c002ea4:	853e                	mv	a0,a5
1c002ea6:	45d020ef          	jal	ra,1c005b02 <memcpy>
1c002eaa:	fec42703          	lw	a4,-20(s0)
1c002eae:	fe842783          	lw	a5,-24(s0)
1c002eb2:	97ba                	add	a5,a5,a4
1c002eb4:	fef42623          	sw	a5,-20(s0)
1c002eb8:	fec42703          	lw	a4,-20(s0)
1c002ebc:	47fd                	li	a5,31
1c002ebe:	f8e7f8e3          	bleu	a4,a5,1c002e4e <tc_ctr_prng_update+0x1e>
1c002ec2:	fa842783          	lw	a5,-88(s0)
1c002ec6:	c7b1                	beqz	a5,1c002f12 <tc_ctr_prng_update+0xe2>
1c002ec8:	fe042223          	sw	zero,-28(s0)
1c002ecc:	a835                	j	1c002f08 <tc_ctr_prng_update+0xd8>
1c002ece:	fe442783          	lw	a5,-28(s0)
1c002ed2:	ff040693          	addi	a3,s0,-16
1c002ed6:	97b6                	add	a5,a5,a3
1c002ed8:	fc47c703          	lbu	a4,-60(a5)
1c002edc:	fa842683          	lw	a3,-88(s0)
1c002ee0:	fe442783          	lw	a5,-28(s0)
1c002ee4:	97b6                	add	a5,a5,a3
1c002ee6:	0007c783          	lbu	a5,0(a5)
1c002eea:	8fb9                	xor	a5,a5,a4
1c002eec:	0ff7f713          	andi	a4,a5,255
1c002ef0:	fe442783          	lw	a5,-28(s0)
1c002ef4:	ff040693          	addi	a3,s0,-16
1c002ef8:	97b6                	add	a5,a5,a3
1c002efa:	fce78223          	sb	a4,-60(a5)
1c002efe:	fe442783          	lw	a5,-28(s0)
1c002f02:	0785                	addi	a5,a5,1
1c002f04:	fef42223          	sw	a5,-28(s0)
1c002f08:	fe442703          	lw	a4,-28(s0)
1c002f0c:	47fd                	li	a5,31
1c002f0e:	fce7f0e3          	bleu	a4,a5,1c002ece <tc_ctr_prng_update+0x9e>
1c002f12:	fac42783          	lw	a5,-84(s0)
1c002f16:	07c1                	addi	a5,a5,16
1c002f18:	fb440713          	addi	a4,s0,-76
1c002f1c:	85ba                	mv	a1,a4
1c002f1e:	853e                	mv	a0,a5
1c002f20:	e24ff0ef          	jal	ra,1c002544 <tc_aes128_set_encrypt_key>
1c002f24:	fac42703          	lw	a4,-84(s0)
1c002f28:	fb440793          	addi	a5,s0,-76
1c002f2c:	07c1                	addi	a5,a5,16
1c002f2e:	4641                	li	a2,16
1c002f30:	85be                	mv	a1,a5
1c002f32:	853a                	mv	a0,a4
1c002f34:	3cf020ef          	jal	ra,1c005b02 <memcpy>
1c002f38:	0001                	nop
1c002f3a:	40f6                	lw	ra,92(sp)
1c002f3c:	4466                	lw	s0,88(sp)
1c002f3e:	6125                	addi	sp,sp,96
1c002f40:	8082                	ret

1c002f42 <tc_ctr_prng_init>:
1c002f42:	7175                	addi	sp,sp,-144
1c002f44:	c706                	sw	ra,140(sp)
1c002f46:	c522                	sw	s0,136(sp)
1c002f48:	0900                	addi	s0,sp,144
1c002f4a:	f8a42623          	sw	a0,-116(s0)
1c002f4e:	f8b42423          	sw	a1,-120(s0)
1c002f52:	f8c42223          	sw	a2,-124(s0)
1c002f56:	f8d42023          	sw	a3,-128(s0)
1c002f5a:	f6e42e23          	sw	a4,-132(s0)
1c002f5e:	fe042623          	sw	zero,-20(s0)
1c002f62:	fc440793          	addi	a5,s0,-60
1c002f66:	0007a023          	sw	zero,0(a5)
1c002f6a:	0791                	addi	a5,a5,4
1c002f6c:	0007a023          	sw	zero,0(a5)
1c002f70:	0791                	addi	a5,a5,4
1c002f72:	0007a023          	sw	zero,0(a5)
1c002f76:	0791                	addi	a5,a5,4
1c002f78:	0007a023          	sw	zero,0(a5)
1c002f7c:	0791                	addi	a5,a5,4
1c002f7e:	0007a023          	sw	zero,0(a5)
1c002f82:	0791                	addi	a5,a5,4
1c002f84:	0007a023          	sw	zero,0(a5)
1c002f88:	0791                	addi	a5,a5,4
1c002f8a:	0007a023          	sw	zero,0(a5)
1c002f8e:	0791                	addi	a5,a5,4
1c002f90:	0007a023          	sw	zero,0(a5)
1c002f94:	0791                	addi	a5,a5,4
1c002f96:	f9440793          	addi	a5,s0,-108
1c002f9a:	0007a023          	sw	zero,0(a5)
1c002f9e:	0791                	addi	a5,a5,4
1c002fa0:	0007a023          	sw	zero,0(a5)
1c002fa4:	0791                	addi	a5,a5,4
1c002fa6:	0007a023          	sw	zero,0(a5)
1c002faa:	0791                	addi	a5,a5,4
1c002fac:	0007a023          	sw	zero,0(a5)
1c002fb0:	0791                	addi	a5,a5,4
1c002fb2:	f8042783          	lw	a5,-128(s0)
1c002fb6:	cb85                	beqz	a5,1c002fe6 <tc_ctr_prng_init+0xa4>
1c002fb8:	f7c42783          	lw	a5,-132(s0)
1c002fbc:	fef42223          	sw	a5,-28(s0)
1c002fc0:	fe442703          	lw	a4,-28(s0)
1c002fc4:	02000793          	li	a5,32
1c002fc8:	00e7f663          	bleu	a4,a5,1c002fd4 <tc_ctr_prng_init+0x92>
1c002fcc:	02000793          	li	a5,32
1c002fd0:	fef42223          	sw	a5,-28(s0)
1c002fd4:	fc440793          	addi	a5,s0,-60
1c002fd8:	fe442603          	lw	a2,-28(s0)
1c002fdc:	f8042583          	lw	a1,-128(s0)
1c002fe0:	853e                	mv	a0,a5
1c002fe2:	321020ef          	jal	ra,1c005b02 <memcpy>
1c002fe6:	f8c42783          	lw	a5,-116(s0)
1c002fea:	cbdd                	beqz	a5,1c0030a0 <tc_ctr_prng_init+0x15e>
1c002fec:	f8842783          	lw	a5,-120(s0)
1c002ff0:	cbc5                	beqz	a5,1c0030a0 <tc_ctr_prng_init+0x15e>
1c002ff2:	f8442703          	lw	a4,-124(s0)
1c002ff6:	47fd                	li	a5,31
1c002ff8:	0ae7f463          	bleu	a4,a5,1c0030a0 <tc_ctr_prng_init+0x15e>
1c002ffc:	f8842703          	lw	a4,-120(s0)
1c003000:	fa440793          	addi	a5,s0,-92
1c003004:	86ba                	mv	a3,a4
1c003006:	02000713          	li	a4,32
1c00300a:	863a                	mv	a2,a4
1c00300c:	85b6                	mv	a1,a3
1c00300e:	853e                	mv	a0,a5
1c003010:	2f3020ef          	jal	ra,1c005b02 <memcpy>
1c003014:	fe042423          	sw	zero,-24(s0)
1c003018:	a835                	j	1c003054 <tc_ctr_prng_init+0x112>
1c00301a:	fe842783          	lw	a5,-24(s0)
1c00301e:	ff040693          	addi	a3,s0,-16
1c003022:	97b6                	add	a5,a5,a3
1c003024:	fb47c703          	lbu	a4,-76(a5)
1c003028:	fe842783          	lw	a5,-24(s0)
1c00302c:	ff040693          	addi	a3,s0,-16
1c003030:	97b6                	add	a5,a5,a3
1c003032:	fd47c783          	lbu	a5,-44(a5)
1c003036:	8fb9                	xor	a5,a5,a4
1c003038:	0ff7f713          	andi	a4,a5,255
1c00303c:	fe842783          	lw	a5,-24(s0)
1c003040:	ff040693          	addi	a3,s0,-16
1c003044:	97b6                	add	a5,a5,a3
1c003046:	fae78a23          	sb	a4,-76(a5)
1c00304a:	fe842783          	lw	a5,-24(s0)
1c00304e:	0785                	addi	a5,a5,1
1c003050:	fef42423          	sw	a5,-24(s0)
1c003054:	fe842703          	lw	a4,-24(s0)
1c003058:	47fd                	li	a5,31
1c00305a:	fce7f0e3          	bleu	a4,a5,1c00301a <tc_ctr_prng_init+0xd8>
1c00305e:	f8c42783          	lw	a5,-116(s0)
1c003062:	07c1                	addi	a5,a5,16
1c003064:	f9440713          	addi	a4,s0,-108
1c003068:	85ba                	mv	a1,a4
1c00306a:	853e                	mv	a0,a5
1c00306c:	cd8ff0ef          	jal	ra,1c002544 <tc_aes128_set_encrypt_key>
1c003070:	f8c42783          	lw	a5,-116(s0)
1c003074:	4641                	li	a2,16
1c003076:	4581                	li	a1,0
1c003078:	853e                	mv	a0,a5
1c00307a:	279020ef          	jal	ra,1c005af2 <memset>
1c00307e:	fa440793          	addi	a5,s0,-92
1c003082:	85be                	mv	a1,a5
1c003084:	f8c42503          	lw	a0,-116(s0)
1c003088:	3365                	jal	1c002e30 <tc_ctr_prng_update>
1c00308a:	f8c42703          	lw	a4,-116(s0)
1c00308e:	4785                	li	a5,1
1c003090:	4801                	li	a6,0
1c003092:	0cf72023          	sw	a5,192(a4)
1c003096:	0d072223          	sw	a6,196(a4)
1c00309a:	4785                	li	a5,1
1c00309c:	fef42623          	sw	a5,-20(s0)
1c0030a0:	fec42783          	lw	a5,-20(s0)
1c0030a4:	853e                	mv	a0,a5
1c0030a6:	40ba                	lw	ra,140(sp)
1c0030a8:	442a                	lw	s0,136(sp)
1c0030aa:	6149                	addi	sp,sp,144
1c0030ac:	8082                	ret

1c0030ae <tc_ctr_prng_generate>:
1c0030ae:	7159                	addi	sp,sp,-112
1c0030b0:	d686                	sw	ra,108(sp)
1c0030b2:	d4a2                	sw	s0,104(sp)
1c0030b4:	1880                	addi	s0,sp,112
1c0030b6:	faa42623          	sw	a0,-84(s0)
1c0030ba:	fab42423          	sw	a1,-88(s0)
1c0030be:	fac42223          	sw	a2,-92(s0)
1c0030c2:	fad42023          	sw	a3,-96(s0)
1c0030c6:	f8e42e23          	sw	a4,-100(s0)
1c0030ca:	fe042623          	sw	zero,-20(s0)
1c0030ce:	fac42783          	lw	a5,-84(s0)
1c0030d2:	18078563          	beqz	a5,1c00325c <tc_ctr_prng_generate+0x1ae>
1c0030d6:	fa042783          	lw	a5,-96(s0)
1c0030da:	18078163          	beqz	a5,1c00325c <tc_ctr_prng_generate+0x1ae>
1c0030de:	1c0107b7          	lui	a5,0x1c010
1c0030e2:	d1c7a783          	lw	a5,-740(a5) # 1c00fd1c <MAX_BYTES_PER_REQ.1797>
1c0030e6:	f9c42703          	lw	a4,-100(s0)
1c0030ea:	16f77963          	bleu	a5,a4,1c00325c <tc_ctr_prng_generate+0x1ae>
1c0030ee:	fac42783          	lw	a5,-84(s0)
1c0030f2:	0c07a683          	lw	a3,192(a5)
1c0030f6:	0c47a703          	lw	a4,196(a5)
1c0030fa:	1c0107b7          	lui	a5,0x1c010
1c0030fe:	d2078793          	addi	a5,a5,-736 # 1c00fd20 <MAX_REQS_BEFORE_RESEED.1796>
1c003102:	0047a803          	lw	a6,4(a5)
1c003106:	439c                	lw	a5,0(a5)
1c003108:	85ba                	mv	a1,a4
1c00310a:	8642                	mv	a2,a6
1c00310c:	00b66963          	bltu	a2,a1,1c00311e <tc_ctr_prng_generate+0x70>
1c003110:	85ba                	mv	a1,a4
1c003112:	8642                	mv	a2,a6
1c003114:	00c59963          	bne	a1,a2,1c003126 <tc_ctr_prng_generate+0x78>
1c003118:	8736                	mv	a4,a3
1c00311a:	00e7f663          	bleu	a4,a5,1c003126 <tc_ctr_prng_generate+0x78>
1c00311e:	57fd                	li	a5,-1
1c003120:	fef42623          	sw	a5,-20(s0)
1c003124:	aa25                	j	1c00325c <tc_ctr_prng_generate+0x1ae>
1c003126:	fb040793          	addi	a5,s0,-80
1c00312a:	0007a023          	sw	zero,0(a5)
1c00312e:	0791                	addi	a5,a5,4
1c003130:	0007a023          	sw	zero,0(a5)
1c003134:	0791                	addi	a5,a5,4
1c003136:	0007a023          	sw	zero,0(a5)
1c00313a:	0791                	addi	a5,a5,4
1c00313c:	0007a023          	sw	zero,0(a5)
1c003140:	0791                	addi	a5,a5,4
1c003142:	0007a023          	sw	zero,0(a5)
1c003146:	0791                	addi	a5,a5,4
1c003148:	0007a023          	sw	zero,0(a5)
1c00314c:	0791                	addi	a5,a5,4
1c00314e:	0007a023          	sw	zero,0(a5)
1c003152:	0791                	addi	a5,a5,4
1c003154:	0007a023          	sw	zero,0(a5)
1c003158:	0791                	addi	a5,a5,4
1c00315a:	fa842783          	lw	a5,-88(s0)
1c00315e:	cf95                	beqz	a5,1c00319a <tc_ctr_prng_generate+0xec>
1c003160:	fa442783          	lw	a5,-92(s0)
1c003164:	fef42423          	sw	a5,-24(s0)
1c003168:	fe842703          	lw	a4,-24(s0)
1c00316c:	02000793          	li	a5,32
1c003170:	00e7f663          	bleu	a4,a5,1c00317c <tc_ctr_prng_generate+0xce>
1c003174:	02000793          	li	a5,32
1c003178:	fef42423          	sw	a5,-24(s0)
1c00317c:	fb040793          	addi	a5,s0,-80
1c003180:	fe842603          	lw	a2,-24(s0)
1c003184:	fa842583          	lw	a1,-88(s0)
1c003188:	853e                	mv	a0,a5
1c00318a:	179020ef          	jal	ra,1c005b02 <memcpy>
1c00318e:	fb040793          	addi	a5,s0,-80
1c003192:	85be                	mv	a1,a5
1c003194:	fac42503          	lw	a0,-84(s0)
1c003198:	3961                	jal	1c002e30 <tc_ctr_prng_update>
1c00319a:	fe042223          	sw	zero,-28(s0)
1c00319e:	a0b5                	j	1c00320a <tc_ctr_prng_generate+0x15c>
1c0031a0:	f9c42703          	lw	a4,-100(s0)
1c0031a4:	fe442783          	lw	a5,-28(s0)
1c0031a8:	40f707b3          	sub	a5,a4,a5
1c0031ac:	fef42023          	sw	a5,-32(s0)
1c0031b0:	fac42783          	lw	a5,-84(s0)
1c0031b4:	45c1                	li	a1,16
1c0031b6:	853e                	mv	a0,a5
1c0031b8:	3939                	jal	1c002dd6 <arrInc>
1c0031ba:	fac42703          	lw	a4,-84(s0)
1c0031be:	fac42783          	lw	a5,-84(s0)
1c0031c2:	01078693          	addi	a3,a5,16
1c0031c6:	fd040793          	addi	a5,s0,-48
1c0031ca:	8636                	mv	a2,a3
1c0031cc:	85ba                	mv	a1,a4
1c0031ce:	853e                	mv	a0,a5
1c0031d0:	3e01                	jal	1c002ce0 <tc_aes_encrypt>
1c0031d2:	fe042703          	lw	a4,-32(s0)
1c0031d6:	47c1                	li	a5,16
1c0031d8:	00e7f563          	bleu	a4,a5,1c0031e2 <tc_ctr_prng_generate+0x134>
1c0031dc:	47c1                	li	a5,16
1c0031de:	fef42023          	sw	a5,-32(s0)
1c0031e2:	fa042703          	lw	a4,-96(s0)
1c0031e6:	fe442783          	lw	a5,-28(s0)
1c0031ea:	97ba                	add	a5,a5,a4
1c0031ec:	fd040713          	addi	a4,s0,-48
1c0031f0:	fe042603          	lw	a2,-32(s0)
1c0031f4:	85ba                	mv	a1,a4
1c0031f6:	853e                	mv	a0,a5
1c0031f8:	10b020ef          	jal	ra,1c005b02 <memcpy>
1c0031fc:	fe442703          	lw	a4,-28(s0)
1c003200:	fe042783          	lw	a5,-32(s0)
1c003204:	97ba                	add	a5,a5,a4
1c003206:	fef42223          	sw	a5,-28(s0)
1c00320a:	fe442703          	lw	a4,-28(s0)
1c00320e:	f9c42783          	lw	a5,-100(s0)
1c003212:	f8f767e3          	bltu	a4,a5,1c0031a0 <tc_ctr_prng_generate+0xf2>
1c003216:	fb040793          	addi	a5,s0,-80
1c00321a:	85be                	mv	a1,a5
1c00321c:	fac42503          	lw	a0,-84(s0)
1c003220:	3901                	jal	1c002e30 <tc_ctr_prng_update>
1c003222:	fac42783          	lw	a5,-84(s0)
1c003226:	0c47a803          	lw	a6,196(a5)
1c00322a:	0c07a783          	lw	a5,192(a5)
1c00322e:	4585                	li	a1,1
1c003230:	4601                	li	a2,0
1c003232:	00b786b3          	add	a3,a5,a1
1c003236:	8536                	mv	a0,a3
1c003238:	00f53533          	sltu	a0,a0,a5
1c00323c:	00c80733          	add	a4,a6,a2
1c003240:	00e507b3          	add	a5,a0,a4
1c003244:	873e                	mv	a4,a5
1c003246:	87b6                	mv	a5,a3
1c003248:	883a                	mv	a6,a4
1c00324a:	fac42703          	lw	a4,-84(s0)
1c00324e:	0cf72023          	sw	a5,192(a4)
1c003252:	0d072223          	sw	a6,196(a4)
1c003256:	4785                	li	a5,1
1c003258:	fef42623          	sw	a5,-20(s0)
1c00325c:	fec42783          	lw	a5,-20(s0)
1c003260:	853e                	mv	a0,a5
1c003262:	50b6                	lw	ra,108(sp)
1c003264:	5426                	lw	s0,104(sp)
1c003266:	6165                	addi	sp,sp,112
1c003268:	8082                	ret

1c00326a <tc_ccm_config>:
1c00326a:	7179                	addi	sp,sp,-48
1c00326c:	d622                	sw	s0,44(sp)
1c00326e:	1800                	addi	s0,sp,48
1c003270:	fea42623          	sw	a0,-20(s0)
1c003274:	feb42423          	sw	a1,-24(s0)
1c003278:	fec42223          	sw	a2,-28(s0)
1c00327c:	fed42023          	sw	a3,-32(s0)
1c003280:	fce42e23          	sw	a4,-36(s0)
1c003284:	fec42783          	lw	a5,-20(s0)
1c003288:	c799                	beqz	a5,1c003296 <tc_ccm_config+0x2c>
1c00328a:	fe842783          	lw	a5,-24(s0)
1c00328e:	c781                	beqz	a5,1c003296 <tc_ccm_config+0x2c>
1c003290:	fe442783          	lw	a5,-28(s0)
1c003294:	e399                	bnez	a5,1c00329a <tc_ccm_config+0x30>
1c003296:	4781                	li	a5,0
1c003298:	a881                	j	1c0032e8 <tc_ccm_config+0x7e>
1c00329a:	fe042783          	lw	a5,-32(s0)
1c00329e:	00d7a463          	p.beqimm	a5,13,1c0032a6 <tc_ccm_config+0x3c>
1c0032a2:	4781                	li	a5,0
1c0032a4:	a091                	j	1c0032e8 <tc_ccm_config+0x7e>
1c0032a6:	fdc42703          	lw	a4,-36(s0)
1c0032aa:	478d                	li	a5,3
1c0032ac:	00e7fc63          	bleu	a4,a5,1c0032c4 <tc_ccm_config+0x5a>
1c0032b0:	fdc42703          	lw	a4,-36(s0)
1c0032b4:	47c1                	li	a5,16
1c0032b6:	00e7e763          	bltu	a5,a4,1c0032c4 <tc_ccm_config+0x5a>
1c0032ba:	fdc42783          	lw	a5,-36(s0)
1c0032be:	fc17b7b3          	p.bclr	a5,a5,30,1
1c0032c2:	c399                	beqz	a5,1c0032c8 <tc_ccm_config+0x5e>
1c0032c4:	4781                	li	a5,0
1c0032c6:	a00d                	j	1c0032e8 <tc_ccm_config+0x7e>
1c0032c8:	fec42783          	lw	a5,-20(s0)
1c0032cc:	fdc42703          	lw	a4,-36(s0)
1c0032d0:	c798                	sw	a4,8(a5)
1c0032d2:	fec42783          	lw	a5,-20(s0)
1c0032d6:	fe842703          	lw	a4,-24(s0)
1c0032da:	c398                	sw	a4,0(a5)
1c0032dc:	fec42783          	lw	a5,-20(s0)
1c0032e0:	fe442703          	lw	a4,-28(s0)
1c0032e4:	c3d8                	sw	a4,4(a5)
1c0032e6:	4785                	li	a5,1
1c0032e8:	853e                	mv	a0,a5
1c0032ea:	5432                	lw	s0,44(sp)
1c0032ec:	6145                	addi	sp,sp,48
1c0032ee:	8082                	ret

1c0032f0 <ccm_cbc_mac>:
1c0032f0:	7139                	addi	sp,sp,-64
1c0032f2:	de06                	sw	ra,60(sp)
1c0032f4:	dc22                	sw	s0,56(sp)
1c0032f6:	0080                	addi	s0,sp,64
1c0032f8:	fca42e23          	sw	a0,-36(s0)
1c0032fc:	fcb42c23          	sw	a1,-40(s0)
1c003300:	fcc42a23          	sw	a2,-44(s0)
1c003304:	fcd42823          	sw	a3,-48(s0)
1c003308:	fce42623          	sw	a4,-52(s0)
1c00330c:	fd042783          	lw	a5,-48(s0)
1c003310:	cbb9                	beqz	a5,1c003366 <ccm_cbc_mac+0x76>
1c003312:	fdc42783          	lw	a5,-36(s0)
1c003316:	0007c703          	lbu	a4,0(a5)
1c00331a:	fd442783          	lw	a5,-44(s0)
1c00331e:	83a1                	srli	a5,a5,0x8
1c003320:	0ff7f793          	andi	a5,a5,255
1c003324:	8fb9                	xor	a5,a5,a4
1c003326:	0ff7f713          	andi	a4,a5,255
1c00332a:	fdc42783          	lw	a5,-36(s0)
1c00332e:	00e78023          	sb	a4,0(a5)
1c003332:	fdc42783          	lw	a5,-36(s0)
1c003336:	0785                	addi	a5,a5,1
1c003338:	0007c683          	lbu	a3,0(a5)
1c00333c:	fd442783          	lw	a5,-44(s0)
1c003340:	0ff7f713          	andi	a4,a5,255
1c003344:	fdc42783          	lw	a5,-36(s0)
1c003348:	0785                	addi	a5,a5,1
1c00334a:	8f35                	xor	a4,a4,a3
1c00334c:	0ff77713          	andi	a4,a4,255
1c003350:	00e78023          	sb	a4,0(a5)
1c003354:	fd442783          	lw	a5,-44(s0)
1c003358:	0789                	addi	a5,a5,2
1c00335a:	fcf42a23          	sw	a5,-44(s0)
1c00335e:	4789                	li	a5,2
1c003360:	fef42623          	sw	a5,-20(s0)
1c003364:	a0b5                	j	1c0033d0 <ccm_cbc_mac+0xe0>
1c003366:	fe042623          	sw	zero,-20(s0)
1c00336a:	a09d                	j	1c0033d0 <ccm_cbc_mac+0xe0>
1c00336c:	fd842783          	lw	a5,-40(s0)
1c003370:	00178713          	addi	a4,a5,1
1c003374:	fce42c23          	sw	a4,-40(s0)
1c003378:	0007c683          	lbu	a3,0(a5)
1c00337c:	fec42783          	lw	a5,-20(s0)
1c003380:	00178713          	addi	a4,a5,1
1c003384:	fee42623          	sw	a4,-20(s0)
1c003388:	f647b733          	p.bclr	a4,a5,27,4
1c00338c:	fdc42603          	lw	a2,-36(s0)
1c003390:	9732                	add	a4,a4,a2
1c003392:	00074703          	lbu	a4,0(a4)
1c003396:	f647b7b3          	p.bclr	a5,a5,27,4
1c00339a:	fdc42603          	lw	a2,-36(s0)
1c00339e:	97b2                	add	a5,a5,a2
1c0033a0:	8f35                	xor	a4,a4,a3
1c0033a2:	0ff77713          	andi	a4,a4,255
1c0033a6:	00e78023          	sb	a4,0(a5)
1c0033aa:	fec42783          	lw	a5,-20(s0)
1c0033ae:	f647b7b3          	p.bclr	a5,a5,27,4
1c0033b2:	c799                	beqz	a5,1c0033c0 <ccm_cbc_mac+0xd0>
1c0033b4:	fd442703          	lw	a4,-44(s0)
1c0033b8:	fec42783          	lw	a5,-20(s0)
1c0033bc:	00f71a63          	bne	a4,a5,1c0033d0 <ccm_cbc_mac+0xe0>
1c0033c0:	fcc42603          	lw	a2,-52(s0)
1c0033c4:	fdc42583          	lw	a1,-36(s0)
1c0033c8:	fdc42503          	lw	a0,-36(s0)
1c0033cc:	915ff0ef          	jal	ra,1c002ce0 <tc_aes_encrypt>
1c0033d0:	fec42703          	lw	a4,-20(s0)
1c0033d4:	fd442783          	lw	a5,-44(s0)
1c0033d8:	f8f76ae3          	bltu	a4,a5,1c00336c <ccm_cbc_mac+0x7c>
1c0033dc:	0001                	nop
1c0033de:	50f2                	lw	ra,60(sp)
1c0033e0:	5462                	lw	s0,56(sp)
1c0033e2:	6121                	addi	sp,sp,64
1c0033e4:	8082                	ret

1c0033e6 <ccm_ctr_mode>:
1c0033e6:	711d                	addi	sp,sp,-96
1c0033e8:	ce86                	sw	ra,92(sp)
1c0033ea:	cca2                	sw	s0,88(sp)
1c0033ec:	1080                	addi	s0,sp,96
1c0033ee:	faa42e23          	sw	a0,-68(s0)
1c0033f2:	fab42c23          	sw	a1,-72(s0)
1c0033f6:	fac42a23          	sw	a2,-76(s0)
1c0033fa:	fad42823          	sw	a3,-80(s0)
1c0033fe:	fae42623          	sw	a4,-84(s0)
1c003402:	faf42423          	sw	a5,-88(s0)
1c003406:	fbc42783          	lw	a5,-68(s0)
1c00340a:	c795                	beqz	a5,1c003436 <ccm_ctr_mode+0x50>
1c00340c:	fb442783          	lw	a5,-76(s0)
1c003410:	c39d                	beqz	a5,1c003436 <ccm_ctr_mode+0x50>
1c003412:	fac42783          	lw	a5,-84(s0)
1c003416:	c385                	beqz	a5,1c003436 <ccm_ctr_mode+0x50>
1c003418:	fa842783          	lw	a5,-88(s0)
1c00341c:	cf89                	beqz	a5,1c003436 <ccm_ctr_mode+0x50>
1c00341e:	fb042783          	lw	a5,-80(s0)
1c003422:	cb91                	beqz	a5,1c003436 <ccm_ctr_mode+0x50>
1c003424:	fb842783          	lw	a5,-72(s0)
1c003428:	c799                	beqz	a5,1c003436 <ccm_ctr_mode+0x50>
1c00342a:	fb842703          	lw	a4,-72(s0)
1c00342e:	fb042783          	lw	a5,-80(s0)
1c003432:	00f70463          	beq	a4,a5,1c00343a <ccm_ctr_mode+0x54>
1c003436:	4781                	li	a5,0
1c003438:	a0fd                	j	1c003526 <ccm_ctr_mode+0x140>
1c00343a:	fc840793          	addi	a5,s0,-56
1c00343e:	46c1                	li	a3,16
1c003440:	fac42603          	lw	a2,-84(s0)
1c003444:	45c1                	li	a1,16
1c003446:	853e                	mv	a0,a5
1c003448:	2ced                	jal	1c003742 <_copy>
1c00344a:	fd644783          	lbu	a5,-42(s0)
1c00344e:	07a2                	slli	a5,a5,0x8
1c003450:	1007c733          	p.exths	a4,a5
1c003454:	fd744783          	lbu	a5,-41(s0)
1c003458:	1007c7b3          	p.exths	a5,a5
1c00345c:	8fd9                	or	a5,a5,a4
1c00345e:	1007c7b3          	p.exths	a5,a5
1c003462:	fef41723          	sh	a5,-18(s0)
1c003466:	fe042423          	sw	zero,-24(s0)
1c00346a:	a849                	j	1c0034fc <ccm_ctr_mode+0x116>
1c00346c:	fe842783          	lw	a5,-24(s0)
1c003470:	f647b7b3          	p.bclr	a5,a5,27,4
1c003474:	e3b9                	bnez	a5,1c0034ba <ccm_ctr_mode+0xd4>
1c003476:	fee45783          	lhu	a5,-18(s0)
1c00347a:	0785                	addi	a5,a5,1
1c00347c:	fef41723          	sh	a5,-18(s0)
1c003480:	fee45783          	lhu	a5,-18(s0)
1c003484:	83a1                	srli	a5,a5,0x8
1c003486:	1007d7b3          	p.exthz	a5,a5
1c00348a:	0ff7f793          	andi	a5,a5,255
1c00348e:	fcf40b23          	sb	a5,-42(s0)
1c003492:	fee45783          	lhu	a5,-18(s0)
1c003496:	0ff7f793          	andi	a5,a5,255
1c00349a:	fcf40ba3          	sb	a5,-41(s0)
1c00349e:	fc840713          	addi	a4,s0,-56
1c0034a2:	fd840793          	addi	a5,s0,-40
1c0034a6:	fa842603          	lw	a2,-88(s0)
1c0034aa:	85ba                	mv	a1,a4
1c0034ac:	853e                	mv	a0,a5
1c0034ae:	833ff0ef          	jal	ra,1c002ce0 <tc_aes_encrypt>
1c0034b2:	87aa                	mv	a5,a0
1c0034b4:	e399                	bnez	a5,1c0034ba <ccm_ctr_mode+0xd4>
1c0034b6:	4781                	li	a5,0
1c0034b8:	a0bd                	j	1c003526 <ccm_ctr_mode+0x140>
1c0034ba:	fe842783          	lw	a5,-24(s0)
1c0034be:	f647b7b3          	p.bclr	a5,a5,27,4
1c0034c2:	ff040713          	addi	a4,s0,-16
1c0034c6:	97ba                	add	a5,a5,a4
1c0034c8:	fe87c683          	lbu	a3,-24(a5)
1c0034cc:	fb442783          	lw	a5,-76(s0)
1c0034d0:	00178713          	addi	a4,a5,1
1c0034d4:	fae42a23          	sw	a4,-76(s0)
1c0034d8:	0007c703          	lbu	a4,0(a5)
1c0034dc:	fbc42783          	lw	a5,-68(s0)
1c0034e0:	00178613          	addi	a2,a5,1
1c0034e4:	fac42e23          	sw	a2,-68(s0)
1c0034e8:	8f35                	xor	a4,a4,a3
1c0034ea:	0ff77713          	andi	a4,a4,255
1c0034ee:	00e78023          	sb	a4,0(a5)
1c0034f2:	fe842783          	lw	a5,-24(s0)
1c0034f6:	0785                	addi	a5,a5,1
1c0034f8:	fef42423          	sw	a5,-24(s0)
1c0034fc:	fe842703          	lw	a4,-24(s0)
1c003500:	fb042783          	lw	a5,-80(s0)
1c003504:	f6f764e3          	bltu	a4,a5,1c00346c <ccm_ctr_mode+0x86>
1c003508:	fac42783          	lw	a5,-84(s0)
1c00350c:	07b9                	addi	a5,a5,14
1c00350e:	fd644703          	lbu	a4,-42(s0)
1c003512:	00e78023          	sb	a4,0(a5)
1c003516:	fac42783          	lw	a5,-84(s0)
1c00351a:	07bd                	addi	a5,a5,15
1c00351c:	fd744703          	lbu	a4,-41(s0)
1c003520:	00e78023          	sb	a4,0(a5)
1c003524:	4785                	li	a5,1
1c003526:	853e                	mv	a0,a5
1c003528:	40f6                	lw	ra,92(sp)
1c00352a:	4466                	lw	s0,88(sp)
1c00352c:	6125                	addi	sp,sp,96
1c00352e:	8082                	ret

1c003530 <tc_ccm_generation_encryption>:
1c003530:	711d                	addi	sp,sp,-96
1c003532:	ce86                	sw	ra,92(sp)
1c003534:	cca2                	sw	s0,88(sp)
1c003536:	1080                	addi	s0,sp,96
1c003538:	faa42e23          	sw	a0,-68(s0)
1c00353c:	fab42c23          	sw	a1,-72(s0)
1c003540:	fac42a23          	sw	a2,-76(s0)
1c003544:	fad42823          	sw	a3,-80(s0)
1c003548:	fae42623          	sw	a4,-84(s0)
1c00354c:	faf42423          	sw	a5,-88(s0)
1c003550:	fb042223          	sw	a6,-92(s0)
1c003554:	fbc42783          	lw	a5,-68(s0)
1c003558:	c7b1                	beqz	a5,1c0035a4 <tc_ccm_generation_encryption+0x74>
1c00355a:	fa442783          	lw	a5,-92(s0)
1c00355e:	c3b9                	beqz	a5,1c0035a4 <tc_ccm_generation_encryption+0x74>
1c003560:	fa842783          	lw	a5,-88(s0)
1c003564:	c781                	beqz	a5,1c00356c <tc_ccm_generation_encryption+0x3c>
1c003566:	fac42783          	lw	a5,-84(s0)
1c00356a:	cf8d                	beqz	a5,1c0035a4 <tc_ccm_generation_encryption+0x74>
1c00356c:	fb042783          	lw	a5,-80(s0)
1c003570:	c781                	beqz	a5,1c003578 <tc_ccm_generation_encryption+0x48>
1c003572:	fb442783          	lw	a5,-76(s0)
1c003576:	c79d                	beqz	a5,1c0035a4 <tc_ccm_generation_encryption+0x74>
1c003578:	fb042703          	lw	a4,-80(s0)
1c00357c:	67c1                	lui	a5,0x10
1c00357e:	eff78793          	addi	a5,a5,-257 # feff <__rt_stack_size+0xf6ff>
1c003582:	02e7e163          	bltu	a5,a4,1c0035a4 <tc_ccm_generation_encryption+0x74>
1c003586:	fa842703          	lw	a4,-88(s0)
1c00358a:	67c1                	lui	a5,0x10
1c00358c:	00f77c63          	bleu	a5,a4,1c0035a4 <tc_ccm_generation_encryption+0x74>
1c003590:	fa442783          	lw	a5,-92(s0)
1c003594:	4798                	lw	a4,8(a5)
1c003596:	fa842783          	lw	a5,-88(s0)
1c00359a:	97ba                	add	a5,a5,a4
1c00359c:	fb842703          	lw	a4,-72(s0)
1c0035a0:	00f77463          	bleu	a5,a4,1c0035a8 <tc_ccm_generation_encryption+0x78>
1c0035a4:	4781                	li	a5,0
1c0035a6:	aa49                	j	1c003738 <tc_ccm_generation_encryption+0x208>
1c0035a8:	fb042783          	lw	a5,-80(s0)
1c0035ac:	c781                	beqz	a5,1c0035b4 <tc_ccm_generation_encryption+0x84>
1c0035ae:	04000793          	li	a5,64
1c0035b2:	a011                	j	1c0035b6 <tc_ccm_generation_encryption+0x86>
1c0035b4:	4781                	li	a5,0
1c0035b6:	fa442703          	lw	a4,-92(s0)
1c0035ba:	4718                	lw	a4,8(a4)
1c0035bc:	1779                	addi	a4,a4,-2
1c0035be:	8305                	srli	a4,a4,0x1
1c0035c0:	0ff77713          	andi	a4,a4,255
1c0035c4:	070e                	slli	a4,a4,0x3
1c0035c6:	0ff77713          	andi	a4,a4,255
1c0035ca:	8fd9                	or	a5,a5,a4
1c0035cc:	0ff7f793          	andi	a5,a5,255
1c0035d0:	c007c7b3          	p.bset	a5,a5,0,0
1c0035d4:	0ff7f793          	andi	a5,a5,255
1c0035d8:	fcf40e23          	sb	a5,-36(s0)
1c0035dc:	4785                	li	a5,1
1c0035de:	fef42623          	sw	a5,-20(s0)
1c0035e2:	a035                	j	1c00360e <tc_ccm_generation_encryption+0xde>
1c0035e4:	fa442783          	lw	a5,-92(s0)
1c0035e8:	43d8                	lw	a4,4(a5)
1c0035ea:	fec42783          	lw	a5,-20(s0)
1c0035ee:	17fd                	addi	a5,a5,-1
1c0035f0:	97ba                	add	a5,a5,a4
1c0035f2:	0007c703          	lbu	a4,0(a5) # 10000 <__L1Cl>
1c0035f6:	fec42783          	lw	a5,-20(s0)
1c0035fa:	ff040693          	addi	a3,s0,-16
1c0035fe:	97b6                	add	a5,a5,a3
1c003600:	fee78623          	sb	a4,-20(a5)
1c003604:	fec42783          	lw	a5,-20(s0)
1c003608:	0785                	addi	a5,a5,1
1c00360a:	fef42623          	sw	a5,-20(s0)
1c00360e:	fec42703          	lw	a4,-20(s0)
1c003612:	47b5                	li	a5,13
1c003614:	fce7f8e3          	bleu	a4,a5,1c0035e4 <tc_ccm_generation_encryption+0xb4>
1c003618:	fa842783          	lw	a5,-88(s0)
1c00361c:	83a1                	srli	a5,a5,0x8
1c00361e:	0ff7f793          	andi	a5,a5,255
1c003622:	fef40523          	sb	a5,-22(s0)
1c003626:	fa842783          	lw	a5,-88(s0)
1c00362a:	0ff7f793          	andi	a5,a5,255
1c00362e:	fef405a3          	sb	a5,-21(s0)
1c003632:	fa442783          	lw	a5,-92(s0)
1c003636:	4394                	lw	a3,0(a5)
1c003638:	fdc40713          	addi	a4,s0,-36
1c00363c:	fcc40793          	addi	a5,s0,-52
1c003640:	8636                	mv	a2,a3
1c003642:	85ba                	mv	a1,a4
1c003644:	853e                	mv	a0,a5
1c003646:	e9aff0ef          	jal	ra,1c002ce0 <tc_aes_encrypt>
1c00364a:	fb042783          	lw	a5,-80(s0)
1c00364e:	cf89                	beqz	a5,1c003668 <tc_ccm_generation_encryption+0x138>
1c003650:	fa442783          	lw	a5,-92(s0)
1c003654:	4398                	lw	a4,0(a5)
1c003656:	fcc40793          	addi	a5,s0,-52
1c00365a:	4685                	li	a3,1
1c00365c:	fb042603          	lw	a2,-80(s0)
1c003660:	fb442583          	lw	a1,-76(s0)
1c003664:	853e                	mv	a0,a5
1c003666:	3169                	jal	1c0032f0 <ccm_cbc_mac>
1c003668:	fa842783          	lw	a5,-88(s0)
1c00366c:	cf89                	beqz	a5,1c003686 <tc_ccm_generation_encryption+0x156>
1c00366e:	fa442783          	lw	a5,-92(s0)
1c003672:	4398                	lw	a4,0(a5)
1c003674:	fcc40793          	addi	a5,s0,-52
1c003678:	4681                	li	a3,0
1c00367a:	fa842603          	lw	a2,-88(s0)
1c00367e:	fac42583          	lw	a1,-84(s0)
1c003682:	853e                	mv	a0,a5
1c003684:	31b5                	jal	1c0032f0 <ccm_cbc_mac>
1c003686:	4785                	li	a5,1
1c003688:	fcf40e23          	sb	a5,-36(s0)
1c00368c:	fe0405a3          	sb	zero,-21(s0)
1c003690:	feb44783          	lbu	a5,-21(s0)
1c003694:	fef40523          	sb	a5,-22(s0)
1c003698:	fa442783          	lw	a5,-92(s0)
1c00369c:	439c                	lw	a5,0(a5)
1c00369e:	fdc40713          	addi	a4,s0,-36
1c0036a2:	fa842683          	lw	a3,-88(s0)
1c0036a6:	fac42603          	lw	a2,-84(s0)
1c0036aa:	fa842583          	lw	a1,-88(s0)
1c0036ae:	fbc42503          	lw	a0,-68(s0)
1c0036b2:	3b15                	jal	1c0033e6 <ccm_ctr_mode>
1c0036b4:	fe0405a3          	sb	zero,-21(s0)
1c0036b8:	feb44783          	lbu	a5,-21(s0)
1c0036bc:	fef40523          	sb	a5,-22(s0)
1c0036c0:	fa442783          	lw	a5,-92(s0)
1c0036c4:	4394                	lw	a3,0(a5)
1c0036c6:	fdc40713          	addi	a4,s0,-36
1c0036ca:	fdc40793          	addi	a5,s0,-36
1c0036ce:	8636                	mv	a2,a3
1c0036d0:	85ba                	mv	a1,a4
1c0036d2:	853e                	mv	a0,a5
1c0036d4:	e0cff0ef          	jal	ra,1c002ce0 <tc_aes_encrypt>
1c0036d8:	fbc42703          	lw	a4,-68(s0)
1c0036dc:	fa842783          	lw	a5,-88(s0)
1c0036e0:	97ba                	add	a5,a5,a4
1c0036e2:	faf42e23          	sw	a5,-68(s0)
1c0036e6:	fe042623          	sw	zero,-20(s0)
1c0036ea:	a83d                	j	1c003728 <tc_ccm_generation_encryption+0x1f8>
1c0036ec:	fec42783          	lw	a5,-20(s0)
1c0036f0:	ff040713          	addi	a4,s0,-16
1c0036f4:	97ba                	add	a5,a5,a4
1c0036f6:	fdc7c683          	lbu	a3,-36(a5)
1c0036fa:	fec42783          	lw	a5,-20(s0)
1c0036fe:	ff040713          	addi	a4,s0,-16
1c003702:	97ba                	add	a5,a5,a4
1c003704:	fec7c703          	lbu	a4,-20(a5)
1c003708:	fbc42783          	lw	a5,-68(s0)
1c00370c:	00178613          	addi	a2,a5,1
1c003710:	fac42e23          	sw	a2,-68(s0)
1c003714:	8f35                	xor	a4,a4,a3
1c003716:	0ff77713          	andi	a4,a4,255
1c00371a:	00e78023          	sb	a4,0(a5)
1c00371e:	fec42783          	lw	a5,-20(s0)
1c003722:	0785                	addi	a5,a5,1
1c003724:	fef42623          	sw	a5,-20(s0)
1c003728:	fa442783          	lw	a5,-92(s0)
1c00372c:	479c                	lw	a5,8(a5)
1c00372e:	fec42703          	lw	a4,-20(s0)
1c003732:	faf76de3          	bltu	a4,a5,1c0036ec <tc_ccm_generation_encryption+0x1bc>
1c003736:	4785                	li	a5,1
1c003738:	853e                	mv	a0,a5
1c00373a:	40f6                	lw	ra,92(sp)
1c00373c:	4466                	lw	s0,88(sp)
1c00373e:	6125                	addi	sp,sp,96
1c003740:	8082                	ret

1c003742 <_copy>:
1c003742:	1101                	addi	sp,sp,-32
1c003744:	ce06                	sw	ra,28(sp)
1c003746:	cc22                	sw	s0,24(sp)
1c003748:	1000                	addi	s0,sp,32
1c00374a:	fea42623          	sw	a0,-20(s0)
1c00374e:	feb42423          	sw	a1,-24(s0)
1c003752:	fec42223          	sw	a2,-28(s0)
1c003756:	fed42023          	sw	a3,-32(s0)
1c00375a:	fe042703          	lw	a4,-32(s0)
1c00375e:	fe842783          	lw	a5,-24(s0)
1c003762:	00e7ed63          	bltu	a5,a4,1c00377c <_copy+0x3a>
1c003766:	fe042603          	lw	a2,-32(s0)
1c00376a:	fe442583          	lw	a1,-28(s0)
1c00376e:	fec42503          	lw	a0,-20(s0)
1c003772:	390020ef          	jal	ra,1c005b02 <memcpy>
1c003776:	fe042783          	lw	a5,-32(s0)
1c00377a:	a011                	j	1c00377e <_copy+0x3c>
1c00377c:	4781                	li	a5,0
1c00377e:	853e                	mv	a0,a5
1c003780:	40f2                	lw	ra,28(sp)
1c003782:	4462                	lw	s0,24(sp)
1c003784:	6105                	addi	sp,sp,32
1c003786:	8082                	ret

1c003788 <_set>:
1c003788:	1101                	addi	sp,sp,-32
1c00378a:	ce06                	sw	ra,28(sp)
1c00378c:	cc22                	sw	s0,24(sp)
1c00378e:	1000                	addi	s0,sp,32
1c003790:	fea42623          	sw	a0,-20(s0)
1c003794:	87ae                	mv	a5,a1
1c003796:	fec42223          	sw	a2,-28(s0)
1c00379a:	fef405a3          	sb	a5,-21(s0)
1c00379e:	feb44783          	lbu	a5,-21(s0)
1c0037a2:	fe442603          	lw	a2,-28(s0)
1c0037a6:	85be                	mv	a1,a5
1c0037a8:	fec42503          	lw	a0,-20(s0)
1c0037ac:	346020ef          	jal	ra,1c005af2 <memset>
1c0037b0:	0001                	nop
1c0037b2:	40f2                	lw	ra,28(sp)
1c0037b4:	4462                	lw	s0,24(sp)
1c0037b6:	6105                	addi	sp,sp,32
1c0037b8:	8082                	ret

1c0037ba <_double_byte>:
1c0037ba:	1101                	addi	sp,sp,-32
1c0037bc:	ce22                	sw	s0,28(sp)
1c0037be:	1000                	addi	s0,sp,32
1c0037c0:	87aa                	mv	a5,a0
1c0037c2:	fef407a3          	sb	a5,-17(s0)
1c0037c6:	fef44783          	lbu	a5,-17(s0)
1c0037ca:	0786                	slli	a5,a5,0x1
1c0037cc:	1007e6b3          	p.extbs	a3,a5
1c0037d0:	fef44783          	lbu	a5,-17(s0)
1c0037d4:	839d                	srli	a5,a5,0x7
1c0037d6:	0ff7f793          	andi	a5,a5,255
1c0037da:	873e                	mv	a4,a5
1c0037dc:	070e                	slli	a4,a4,0x3
1c0037de:	8f1d                	sub	a4,a4,a5
1c0037e0:	070a                	slli	a4,a4,0x2
1c0037e2:	40f707b3          	sub	a5,a4,a5
1c0037e6:	0ff7f793          	andi	a5,a5,255
1c0037ea:	1007e7b3          	p.extbs	a5,a5
1c0037ee:	8fb5                	xor	a5,a5,a3
1c0037f0:	1007e7b3          	p.extbs	a5,a5
1c0037f4:	0ff7f793          	andi	a5,a5,255
1c0037f8:	853e                	mv	a0,a5
1c0037fa:	4472                	lw	s0,28(sp)
1c0037fc:	6105                	addi	sp,sp,32
1c0037fe:	8082                	ret

1c003800 <cluster_start>:
  This is useful when the mask must be updated before waiting for a specific event without modifying the other events (this saves a few instructions)
  \param evtMask Bit mask used to update the event mask. There is 1 bit per event, 1 means the corresponding bit is set in the event mask.
  */
static inline void eu_evt_maskSet(unsigned int evtMask)
{
  ARCHI_WRITE(ARCHI_EU_DEMUX_ADDR, EU_CORE_MASK_OR, evtMask);
1c003800:	002047b7          	lui	a5,0x204
1c003804:	00070737          	lui	a4,0x70
1c003808:	00e7a423          	sw	a4,8(a5) # 204008 <__L2+0x184008>
  IP_WRITE_PTR(base, EU_DISPATCH_FIFO_ACCESS, value);
}

static inline void eu_dispatch_team_config(unsigned value)
{
  IP_WRITE(ARCHI_EU_DEMUX_ADDR, EU_DISPATCH_DEMUX_OFFSET + EU_DISPATCH_TEAM_CONFIG, value);
1c00380c:	0ff00713          	li	a4,255
1c003810:	002046b7          	lui	a3,0x204
1c003814:	08e6a223          	sw	a4,132(a3) # 204084 <__L2+0x184084>
  IP_WRITE(barAddr, EU_HW_BARR_TRIGGER_MASK, coreMask);
1c003818:	20078793          	addi	a5,a5,512
1c00381c:	00e7a023          	sw	a4,0(a5)
  IP_WRITE(barAddr, EU_HW_BARR_TARGET_MASK, targetMask);
1c003820:	00e7a623          	sw	a4,12(a5)
    __rt_team_config(rt_nb_active_pe());
  }

#endif

}
1c003824:	8082                	ret

1c003826 <__rt_init>:
{
1c003826:	1101                	addi	sp,sp,-32
static inline void hal_pmu_bypass_set(unsigned int Value) {
  IP_WRITE(ARCHI_APB_SOC_CTRL_ADDR, APB_SOC_CL_BYPASS_OFFSET, Value);
}

static inline unsigned int hal_pmu_bypass_get() {
  return IP_READ(ARCHI_APB_SOC_CTRL_ADDR, APB_SOC_CL_BYPASS_OFFSET);
1c003828:	1a104737          	lui	a4,0x1a104
1c00382c:	ce06                	sw	ra,28(sp)
1c00382e:	cc22                	sw	s0,24(sp)
1c003830:	ca26                	sw	s1,20(sp)
1c003832:	07072783          	lw	a5,112(a4) # 1a104070 <__l1_end+0xa104050>
  hal_pmu_bypass_set (ARCHI_REG_FIELD_SET (hal_pmu_bypass_get (), 1, 11, 1) );
1c003836:	c0b7c7b3          	p.bset	a5,a5,0,11
  IP_WRITE(ARCHI_APB_SOC_CTRL_ADDR, APB_SOC_CL_BYPASS_OFFSET, Value);
1c00383a:	06f72823          	sw	a5,112(a4)
  __rt_bridge_set_available();
1c00383e:	2361                	jal	1c003dc6 <__rt_bridge_set_available>
  cpu_stack_check_enable((int)__rt_fc_stack, (int)__rt_fc_stack + __rt_fc_stack_size);
1c003840:	1b0007b7          	lui	a5,0x1b000
1c003844:	39878793          	addi	a5,a5,920 # 1b000398 <__rt_fc_stack>
 * Stack checking
 */

static inline void cpu_stack_check_enable(unsigned int base, unsigned int end)
{
  asm volatile ("csrwi 0x7D0, 0" :: );
1c003848:	7d005073          	csrwi	0x7d0,0
  asm volatile ("csrw  0x7D1, %0" :: "r" (base));
1c00384c:	7d179073          	csrw	0x7d1,a5
1c003850:	1c010737          	lui	a4,0x1c010
1c003854:	d3472703          	lw	a4,-716(a4) # 1c00fd34 <__rt_fc_stack_size>
1c003858:	97ba                	add	a5,a5,a4
  asm volatile ("csrw  0x7D2, %0" :: "r" (end));
1c00385a:	7d279073          	csrw	0x7d2,a5
  asm volatile ("csrwi 0x7D0, 1" :: );
1c00385e:	7d00d073          	csrwi	0x7d0,1
  __rt_irq_init();
1c003862:	2ad5                	jal	1c003a56 <__rt_irq_init>

#include "archi/pulp.h"
#include "archi/soc_eu/soc_eu_v1.h"

static inline void soc_eu_eventMask_set(unsigned int reg, unsigned int value) {
  ARCHI_WRITE(ARCHI_SOC_EU_ADDR, reg, value);
1c003864:	54fd                	li	s1,-1
1c003866:	1a1067b7          	lui	a5,0x1a106
1c00386a:	0097a223          	sw	s1,4(a5) # 1a106004 <__l1_end+0xa105fe4>
1c00386e:	0097a423          	sw	s1,8(a5)
  rt_irq_set_handler(ARCHI_FC_EVT_SOC_EVT, __rt_fc_socevents_handler);
1c003872:	1c0005b7          	lui	a1,0x1c000
1c003876:	3f458593          	addi	a1,a1,1012 # 1c0003f4 <__rt_fc_socevents_handler>
1c00387a:	456d                	li	a0,27
1c00387c:	2a35                	jal	1c0039b8 <rt_irq_set_handler>
  ARCHI_WRITE(base, EU_CORE_MASK_IRQ_OR, irqMask);
1c00387e:	080007b7          	lui	a5,0x8000
1c003882:	00204737          	lui	a4,0x204
1c003886:	00f72a23          	sw	a5,20(a4) # 204014 <__L2+0x184014>
  ARCHI_WRITE(ARCHI_EU_DEMUX_ADDR, EU_CORE_MASK_OR, evtMask);
1c00388a:	00f72423          	sw	a5,8(a4)
  __rt_pmu_init();
1c00388e:	1ee010ef          	jal	ra,1c004a7c <__rt_pmu_init>
  __rt_freq_init();
1c003892:	647000ef          	jal	ra,1c0046d8 <__rt_freq_init>
1c003896:	002017b7          	lui	a5,0x201
1c00389a:	40078793          	addi	a5,a5,1024 # 201400 <__L2+0x181400>
  pulp_write32(ARCHI_CLUSTER_PERIPHERALS_GLOBAL_ADDR(cid) + ARCHI_ICACHE_CTRL_OFFSET, 0xFFFFFFFF);
}

static inline void icache_enable(unsigned int base)
{
  pulp_write32(base, 0xFFFFFFFF);
1c00389e:	c384                	sw	s1,0(a5)
  asm("csrr %0, 0x014" : "=r" (hart_id) : );
1c0038a0:	01402473          	csrr	s0,uhartid
1c0038a4:	1c0074b7          	lui	s1,0x1c007
  return (hart_id >> 5) & 0x3f;
1c0038a8:	8415                	srai	s0,s0,0x5
  __rt_utils_init();
1c0038aa:	24e5                	jal	1c003b92 <__rt_utils_init>
1c0038ac:	f2643433          	p.bclr	s0,s0,25,6
  __rt_allocs_init();
1c0038b0:	147000ef          	jal	ra,1c0041f6 <__rt_allocs_init>
1c0038b4:	eec48493          	addi	s1,s1,-276 # 1c006eec <ctor_list+0x4>
  __rt_event_sched_init();
1c0038b8:	001000ef          	jal	ra,1c0040b8 <__rt_event_sched_init>
  __rt_padframe_init();
1c0038bc:	0cf010ef          	jal	ra,1c00518a <__rt_padframe_init>
  for(fpp = ctor_list+1;  *fpp != 0;  ++fpp) {
1c0038c0:	0044a78b          	p.lw	a5,4(s1!)
1c0038c4:	ebad                	bnez	a5,1c003936 <__rt_init+0x110>
  return __builtin_pulp_read_then_spr_bit_set(reg, val);
1c0038c6:	300467f3          	csrrsi	a5,mstatus,8
  if (__rt_cbsys_exec(RT_CBSYS_START)) goto error;
1c0038ca:	4501                	li	a0,0
1c0038cc:	2c59                	jal	1c003b62 <__rt_cbsys_exec>
1c0038ce:	e539                	bnez	a0,1c00391c <__rt_init+0xf6>
  asm("csrr %0, 0x014" : "=r" (hart_id) : );
1c0038d0:	014027f3          	csrr	a5,uhartid
  return (hart_id >> 5) & 0x3f;
1c0038d4:	8795                	srai	a5,a5,0x5
1c0038d6:	f267b7b3          	p.bclr	a5,a5,25,6
        exit(retval);
      }
    }
    else
      return cluster_master_start(NULL);
  } else if (!rt_is_fc()) {
1c0038da:	02000713          	li	a4,32
1c0038de:	0ae78263          	beq	a5,a4,1c003982 <__rt_init+0x15c>
    rt_cluster_mount(1, cid, 0, NULL);
1c0038e2:	4681                	li	a3,0
1c0038e4:	4601                	li	a2,0
1c0038e6:	4581                	li	a1,0
1c0038e8:	4505                	li	a0,1
  if (rt_cluster_id() != cid)
1c0038ea:	cba1                	beqz	a5,1c00393a <__rt_init+0x114>
    rt_cluster_mount(1, cid, 0, NULL);
1c0038ec:	6d8010ef          	jal	ra,1c004fc4 <rt_cluster_mount>
    void *stacks = rt_alloc(RT_ALLOC_CL_DATA+cid, 0x800*rt_nb_active_pe());
1c0038f0:	6591                	lui	a1,0x4
1c0038f2:	4509                	li	a0,2
1c0038f4:	08b000ef          	jal	ra,1c00417e <rt_alloc>
1c0038f8:	872a                	mv	a4,a0
    if (stacks == NULL) return -1;
1c0038fa:	c10d                	beqz	a0,1c00391c <__rt_init+0xf6>
    if (rt_cluster_call(NULL, cid, cluster_start, NULL, stacks, 0x800, 0x800, rt_nb_active_pe(), event)) return -1;
1c0038fc:	6805                	lui	a6,0x1
1c0038fe:	80080813          	addi	a6,a6,-2048 # 800 <__rt_stack_size>
1c003902:	1c004637          	lui	a2,0x1c004
1c003906:	c002                	sw	zero,0(sp)
1c003908:	48a1                	li	a7,8
1c00390a:	87c2                	mv	a5,a6
1c00390c:	4681                	li	a3,0
1c00390e:	80060613          	addi	a2,a2,-2048 # 1c003800 <cluster_start>
1c003912:	4581                	li	a1,0
1c003914:	4501                	li	a0,0
1c003916:	61e010ef          	jal	ra,1c004f34 <rt_cluster_call>
1c00391a:	c525                	beqz	a0,1c003982 <__rt_init+0x15c>
  rt_fatal("There was an error during runtime initialization\n");
1c00391c:	1c007537          	lui	a0,0x1c007
  asm("csrr %0, 0x014" : "=r" (hart_id) : );
1c003920:	01402673          	csrr	a2,uhartid
1c003924:	85a2                	mv	a1,s0
1c003926:	f4563633          	p.bclr	a2,a2,26,5
1c00392a:	2d050513          	addi	a0,a0,720 # 1c0072d0 <sbox+0x100>
1c00392e:	4e0020ef          	jal	ra,1c005e0e <printf>
1c003932:	446020ef          	jal	ra,1c005d78 <abort>
    (**fpp)();
1c003936:	9782                	jalr	a5
1c003938:	b761                	j	1c0038c0 <__rt_init+0x9a>
    rt_cluster_mount(1, cid, 0, NULL);
1c00393a:	68a010ef          	jal	ra,1c004fc4 <rt_cluster_mount>
    void *stacks = rt_alloc(RT_ALLOC_CL_DATA+cid, 0x800*(rt_nb_active_pe()-1));
1c00393e:	6591                	lui	a1,0x4
1c003940:	80058593          	addi	a1,a1,-2048 # 3800 <__rt_stack_size+0x3000>
1c003944:	4509                	li	a0,2
1c003946:	039000ef          	jal	ra,1c00417e <rt_alloc>
    if (stacks == NULL) return -1;
1c00394a:	d969                	beqz	a0,1c00391c <__rt_init+0xf6>
  IP_WRITE(ARCHI_EU_DEMUX_ADDR, EU_DISPATCH_DEMUX_OFFSET + EU_DISPATCH_TEAM_CONFIG, value);
1c00394c:	00204737          	lui	a4,0x204
1c003950:	0ff00793          	li	a5,255
1c003954:	08f72223          	sw	a5,132(a4) # 204084 <__L2+0x184084>
    eu_dispatch_push((unsigned int)__rt_set_slave_stack | 1);
1c003958:	1c0077b7          	lui	a5,0x1c007
1c00395c:	e3078793          	addi	a5,a5,-464 # 1c006e30 <__rt_set_slave_stack>
1c003960:	c007c7b3          	p.bset	a5,a5,0,0
  IP_WRITE_PTR(ARCHI_EU_DEMUX_ADDR, EU_DISPATCH_DEMUX_OFFSET + EU_DISPATCH_FIFO_ACCESS, value);
1c003964:	08f72023          	sw	a5,128(a4)
1c003968:	6785                	lui	a5,0x1
1c00396a:	80078793          	addi	a5,a5,-2048 # 800 <__rt_stack_size>
1c00396e:	08f72023          	sw	a5,128(a4)
1c003972:	08a72023          	sw	a0,128(a4)
}
1c003976:	4462                	lw	s0,24(sp)
1c003978:	40f2                	lw	ra,28(sp)
1c00397a:	44d2                	lw	s1,20(sp)
    cluster_start(NULL);
1c00397c:	4501                	li	a0,0
}
1c00397e:	6105                	addi	sp,sp,32
    cluster_start(NULL);
1c003980:	b541                	j	1c003800 <cluster_start>
}
1c003982:	40f2                	lw	ra,28(sp)
1c003984:	4462                	lw	s0,24(sp)
1c003986:	44d2                	lw	s1,20(sp)
1c003988:	6105                	addi	sp,sp,32
1c00398a:	8082                	ret

1c00398c <__rt_deinit>:
{
1c00398c:	1141                	addi	sp,sp,-16
1c00398e:	c606                	sw	ra,12(sp)
1c003990:	c422                	sw	s0,8(sp)
}

static inline void cpu_stack_check_disable()
{
  asm volatile ("csrwi 0x7D0, 0" :: );
1c003992:	7d005073          	csrwi	0x7d0,0
  __rt_cbsys_exec(RT_CBSYS_STOP);
1c003996:	4505                	li	a0,1
1c003998:	1c007437          	lui	s0,0x1c007
1c00399c:	22d9                	jal	1c003b62 <__rt_cbsys_exec>
1c00399e:	f2840413          	addi	s0,s0,-216 # 1c006f28 <dtor_list+0x4>
  for(fpp = dtor_list + 1;  *fpp != 0;  ++fpp) (**fpp)();
1c0039a2:	0044278b          	p.lw	a5,4(s0!)
1c0039a6:	e789                	bnez	a5,1c0039b0 <__rt_deinit+0x24>
}
1c0039a8:	40b2                	lw	ra,12(sp)
1c0039aa:	4422                	lw	s0,8(sp)
1c0039ac:	0141                	addi	sp,sp,16
1c0039ae:	8082                	ret
  for(fpp = dtor_list + 1;  *fpp != 0;  ++fpp) (**fpp)();
1c0039b0:	9782                	jalr	a5
1c0039b2:	bfc5                	j	1c0039a2 <__rt_deinit+0x16>

1c0039b4 <pi_open_from_conf>:
#endif


void pi_open_from_conf(struct pi_device *device, void *conf)
{
  device->config = conf;
1c0039b4:	c14c                	sw	a1,4(a0)
}
1c0039b6:	8082                	ret

1c0039b8 <rt_irq_set_handler>:
  asm("csrr %0, 0x014" : "=r" (hart_id) : );
1c0039b8:	014027f3          	csrr	a5,uhartid
  return hal_spr_read(0x305) & ~1;
#else
#if defined(APB_SOC_VERSION) && APB_SOC_VERSION == 1
  return ARCHI_L2_ADDR;
#else
  if (rt_is_fc()) {
1c0039bc:	02000713          	li	a4,32
  return (hart_id >> 5) & 0x3f;
1c0039c0:	ca5797b3          	p.extractu	a5,a5,5,5
1c0039c4:	02e79c63          	bne	a5,a4,1c0039fc <rt_irq_set_handler+0x44>
#if defined(ARCHI_CORE_HAS_SECURITY) && !defined(ARCHI_CORE_HAS_1_10)
    return __builtin_pulp_spr_read(SR_MTVEC);
1c0039c8:	30502773          	csrr	a4,mtvec
  irq -= 16;
#endif

  unsigned int base = __rt_get_fc_vector_base();

  unsigned int jmpAddr = base + 0x4 * irq;
1c0039cc:	050a                	slli	a0,a0,0x2
  unsigned int S = ((unsigned int) ItHandler - (ItBaseAddr+ItIndex*4));
1c0039ce:	8d89                	sub	a1,a1,a0
1c0039d0:	8d99                	sub	a1,a1,a4
  R = __BITINSERT(R, __BITEXTRACT(S,  1, 20),  1, 31);
1c0039d2:	c14586b3          	p.extract	a3,a1,0,20
1c0039d6:	06f00793          	li	a5,111
1c0039da:	c1f6a7b3          	p.insert	a5,a3,0,31
  R = __BITINSERT(R, __BITEXTRACT(S, 10,  1), 10, 21);
1c0039de:	d21586b3          	p.extract	a3,a1,9,1
1c0039e2:	d356a7b3          	p.insert	a5,a3,9,21
  R = __BITINSERT(R, __BITEXTRACT(S,  1, 11),  1, 20);
1c0039e6:	c0b586b3          	p.extract	a3,a1,0,11
1c0039ea:	c146a7b3          	p.insert	a5,a3,0,20
  R = __BITINSERT(R, __BITEXTRACT(S,  8, 12),  8, 12);
1c0039ee:	cec585b3          	p.extract	a1,a1,7,12
1c0039f2:	cec5a7b3          	p.insert	a5,a1,7,12

  *(volatile unsigned int *)jmpAddr = __rt_get_itvec(base, irq, (unsigned int)handler);
1c0039f6:	00f56723          	p.sw	a5,a4(a0)

#if defined(PLP_FC_HAS_ICACHE)
  flush_all_icache_banks_common(plp_icache_fc_base());
#endif

}
1c0039fa:	8082                	ret
static inline void plp_ctrl_core_bootaddr_set_remote(int cid, int core, unsigned int bootAddr) {
  pulp_write32(ARCHI_CLUSTER_PERIPHERALS_GLOBAL_ADDR(cid) + ARCHI_CLUSTER_CTRL_OFFSET + 0x40 + core*4, bootAddr);
}

static inline unsigned int plp_ctrl_bootaddr_get() {
  return pulp_read32(ARCHI_CLUSTER_CTRL_ADDR + 0x40);
1c0039fc:	002007b7          	lui	a5,0x200
1c003a00:	43b8                	lw	a4,64(a5)
1c003a02:	b7e9                	j	1c0039cc <rt_irq_set_handler+0x14>

1c003a04 <illegal_insn_handler_c>:
#include <stdlib.h>

void __attribute__((weak)) illegal_insn_handler_c()
{

}
1c003a04:	8082                	ret

1c003a06 <__rt_handle_illegal_instr>:


extern RT_FC_GLOBAL_DATA unsigned int __rt_debug_config;
extern RT_FC_GLOBAL_DATA unsigned int __rt_debug_config_trace;

static inline unsigned int rt_debug_config() { return __rt_debug_config; }
1c003a06:	1b0017b7          	lui	a5,0x1b001

static inline unsigned int rt_debug_config_trace() { return __rt_debug_config_trace; }

static inline int rt_debug_config_warnings() {
  return ARCHI_REG_FIELD_GET(rt_debug_config(), RT_DEBUG_WARNING_BIT, 1);
1c003a0a:	b9c7a703          	lw	a4,-1124(a5) # 1b000b9c <__rt_debug_config>

void __rt_handle_illegal_instr()
{
1c003a0e:	1141                	addi	sp,sp,-16
1c003a10:	c422                	sw	s0,8(sp)
1c003a12:	c606                	sw	ra,12(sp)
1c003a14:	fc173733          	p.bclr	a4,a4,30,1
1c003a18:	843e                	mv	s0,a5
#ifdef __riscv__
  unsigned int mepc = hal_mepc_read();
  rt_warning("Reached illegal instruction (PC: 0x%x, opcode: 0x%x\n", mepc, *(int *)mepc);
1c003a1a:	c315                	beqz	a4,1c003a3e <__rt_handle_illegal_instr+0x38>
1c003a1c:	341026f3          	csrr	a3,mepc
  asm("csrr %0, 0x014" : "=r" (hart_id) : );
1c003a20:	01402673          	csrr	a2,uhartid
1c003a24:	1c007537          	lui	a0,0x1c007
1c003a28:	4298                	lw	a4,0(a3)
  return (hart_id >> 5) & 0x3f;
1c003a2a:	40565593          	srai	a1,a2,0x5
1c003a2e:	f265b5b3          	p.bclr	a1,a1,25,6
1c003a32:	f4563633          	p.bclr	a2,a2,26,5
1c003a36:	32850513          	addi	a0,a0,808 # 1c007328 <sbox+0x158>
1c003a3a:	3d4020ef          	jal	ra,1c005e0e <printf>
}

static inline int rt_debug_config_werror() {
  return ARCHI_REG_FIELD_GET(rt_debug_config(), RT_DEBUG_WERROR_BIT, 1);
1c003a3e:	b9c42783          	lw	a5,-1124(s0)
1c003a42:	c01797b3          	p.extractu	a5,a5,0,1
1c003a46:	c399                	beqz	a5,1c003a4c <__rt_handle_illegal_instr+0x46>
1c003a48:	330020ef          	jal	ra,1c005d78 <abort>
  illegal_insn_handler_c();
#endif
}
1c003a4c:	4422                	lw	s0,8(sp)
1c003a4e:	40b2                	lw	ra,12(sp)
1c003a50:	0141                	addi	sp,sp,16
  illegal_insn_handler_c();
1c003a52:	fb3ff06f          	j	1c003a04 <illegal_insn_handler_c>

1c003a56 <__rt_irq_init>:
  ARCHI_WRITE(ARCHI_EU_DEMUX_ADDR, EU_CORE_MASK_IRQ_AND, irqMask);
1c003a56:	57fd                	li	a5,-1
1c003a58:	00204737          	lui	a4,0x204
1c003a5c:	00f72823          	sw	a5,16(a4) # 204010 <__L2+0x184010>
  else eu_irq_maskClr(mask);
#elif defined(ITC_VERSION)
  hal_itc_enable_clr(mask);
#elif defined(EU_VERSION)
  eu_irq_maskClr(mask);
  if (hal_is_fc()) eu_evt_maskClr(mask);
1c003a60:	02000713          	li	a4,32
  asm("csrr %0, 0x014" : "=r" (hart_id) : );
1c003a64:	014027f3          	csrr	a5,uhartid
  return (hart_id >> 5) & 0x3f;
1c003a68:	ca5797b3          	p.extractu	a5,a5,5,5
1c003a6c:	00e79763          	bne	a5,a4,1c003a7a <__rt_irq_init+0x24>
  ARCHI_WRITE(ARCHI_EU_DEMUX_ADDR, EU_CORE_MASK_AND, evtMask);
1c003a70:	57fd                	li	a5,-1
1c003a72:	00204737          	lui	a4,0x204
1c003a76:	00f72223          	sw	a5,4(a4) # 204004 <__L2+0x184004>
  asm("csrr %0, 0x014" : "=r" (hart_id) : );
1c003a7a:	014027f3          	csrr	a5,uhartid
#if defined(ARCHI_CORE_RISCV_ITC)
  hal_spr_write(0x305, base);
#else
#if defined(APB_SOC_VERSION) && APB_SOC_VERSION == 1
#else
  if (rt_is_fc()) {
1c003a7e:	02000713          	li	a4,32
  return (hart_id >> 5) & 0x3f;
1c003a82:	ca5797b3          	p.extractu	a5,a5,5,5
1c003a86:	00e79963          	bne	a5,a4,1c003a98 <__rt_irq_init+0x42>
#if defined(ARCHI_CORE_HAS_SECURITY)
    __builtin_pulp_spr_write(SR_MTVEC, base);
1c003a8a:	1c0007b7          	lui	a5,0x1c000
1c003a8e:	00078793          	mv	a5,a5
1c003a92:	30579073          	csrw	mtvec,a5
1c003a96:	8082                	ret
  pulp_write32(ARCHI_CLUSTER_CTRL_ADDR + 0x40, bootAddr);
1c003a98:	1c0007b7          	lui	a5,0x1c000
1c003a9c:	00200737          	lui	a4,0x200
1c003aa0:	00078793          	mv	a5,a5
1c003aa4:	c33c                	sw	a5,64(a4)
  rt_irq_mask_clr(-1);

  // As the FC code may not be at the beginning of the L2, set the
  // vector base to get proper interrupt handlers
  __rt_set_fc_vector_base((int)rt_irq_vector_base());
}
1c003aa6:	8082                	ret

1c003aa8 <__rt_fc_cluster_lock_req>:
      rt_free(RT_ALLOC_FC_RET_DATA, (void *)cbsys, sizeof(rt_cbsys_t));     
      return;
    }

    prev = cbsys;
    cbsys = cbsys->next;
1c003aa8:	300476f3          	csrrci	a3,mstatus,8
1c003aac:	08a54703          	lbu	a4,138(a0)
1c003ab0:	411c                	lw	a5,0(a0)
1c003ab2:	c321                	beqz	a4,1c003af2 <__rt_fc_cluster_lock_req+0x4a>
1c003ab4:	4398                	lw	a4,0(a5)
1c003ab6:	cf09                	beqz	a4,1c003ad0 <__rt_fc_cluster_lock_req+0x28>
1c003ab8:	43d8                	lw	a4,4(a5)
1c003aba:	cb09                	beqz	a4,1c003acc <__rt_fc_cluster_lock_req+0x24>
1c003abc:	4798                	lw	a4,8(a5)
1c003abe:	c348                	sw	a0,4(a4)
1c003ac0:	c788                	sw	a0,8(a5)
1c003ac2:	00052223          	sw	zero,4(a0)
1c003ac6:	30069073          	csrw	mstatus,a3
1c003aca:	8082                	ret
1c003acc:	c3c8                	sw	a0,4(a5)
1c003ace:	bfcd                	j	1c003ac0 <__rt_fc_cluster_lock_req+0x18>
1c003ad0:	4705                	li	a4,1
1c003ad2:	08e50423          	sb	a4,136(a0)
1c003ad6:	4705                	li	a4,1
1c003ad8:	c398                	sw	a4,0(a5)
1c003ada:	08954783          	lbu	a5,137(a0)
1c003ade:	00201737          	lui	a4,0x201
1c003ae2:	e0470713          	addi	a4,a4,-508 # 200e04 <__L2+0x180e04>
1c003ae6:	04078793          	addi	a5,a5,64 # 1c000040 <__irq_vector_base+0x40>
1c003aea:	07da                	slli	a5,a5,0x16
1c003aec:	0007e723          	p.sw	zero,a4(a5)
1c003af0:	bfd9                	j	1c003ac6 <__rt_fc_cluster_lock_req+0x1e>
1c003af2:	43d8                	lw	a4,4(a5)
1c003af4:	e719                	bnez	a4,1c003b02 <__rt_fc_cluster_lock_req+0x5a>
1c003af6:	0007a023          	sw	zero,0(a5)
1c003afa:	4785                	li	a5,1
1c003afc:	08f50423          	sb	a5,136(a0)
1c003b00:	bfe9                	j	1c003ada <__rt_fc_cluster_lock_req+0x32>
1c003b02:	4350                	lw	a2,4(a4)
1c003b04:	c3d0                	sw	a2,4(a5)
1c003b06:	4785                	li	a5,1
1c003b08:	08f70423          	sb	a5,136(a4)
1c003b0c:	08974783          	lbu	a5,137(a4)
1c003b10:	00201737          	lui	a4,0x201
1c003b14:	e0470713          	addi	a4,a4,-508 # 200e04 <__L2+0x180e04>
1c003b18:	04078793          	addi	a5,a5,64
1c003b1c:	07da                	slli	a5,a5,0x16
1c003b1e:	0007e723          	p.sw	zero,a4(a5)
1c003b22:	bfe1                	j	1c003afa <__rt_fc_cluster_lock_req+0x52>

1c003b24 <__rt_cbsys_add>:
  }
}

int __rt_cbsys_add(__rt_cbsys_e cbsys_id, int (*cb)(void *), void *cb_arg)
{
1c003b24:	1101                	addi	sp,sp,-32
1c003b26:	cc22                	sw	s0,24(sp)
1c003b28:	ca26                	sw	s1,20(sp)
1c003b2a:	842a                	mv	s0,a0
1c003b2c:	84ae                	mv	s1,a1
  rt_cbsys_t *cbsys = (rt_cbsys_t *)rt_alloc(RT_ALLOC_FC_RET_DATA, sizeof(rt_cbsys_t));
1c003b2e:	4501                	li	a0,0
1c003b30:	45b1                	li	a1,12
1c003b32:	c632                	sw	a2,12(sp)
{
1c003b34:	ce06                	sw	ra,28(sp)
  rt_cbsys_t *cbsys = (rt_cbsys_t *)rt_alloc(RT_ALLOC_FC_RET_DATA, sizeof(rt_cbsys_t));
1c003b36:	25a1                	jal	1c00417e <rt_alloc>
  if (cbsys == NULL) return -1;
1c003b38:	4632                	lw	a2,12(sp)
1c003b3a:	c115                	beqz	a0,1c003b5e <__rt_cbsys_add+0x3a>

  cbsys->callback = cb;
  cbsys->arg = cb_arg;
  cbsys->next = cbsys_first[cbsys_id];
1c003b3c:	1b0017b7          	lui	a5,0x1b001
1c003b40:	040a                	slli	s0,s0,0x2
1c003b42:	ba078793          	addi	a5,a5,-1120 # 1b000ba0 <cbsys_first>
1c003b46:	97a2                	add	a5,a5,s0
1c003b48:	4398                	lw	a4,0(a5)
  cbsys->callback = cb;
1c003b4a:	c104                	sw	s1,0(a0)
  cbsys->arg = cb_arg;
1c003b4c:	c150                	sw	a2,4(a0)
  cbsys->next = cbsys_first[cbsys_id];
1c003b4e:	c518                	sw	a4,8(a0)
  cbsys_first[cbsys_id] = cbsys;
1c003b50:	c388                	sw	a0,0(a5)

  return 0;
1c003b52:	4501                	li	a0,0
}
1c003b54:	40f2                	lw	ra,28(sp)
1c003b56:	4462                	lw	s0,24(sp)
1c003b58:	44d2                	lw	s1,20(sp)
1c003b5a:	6105                	addi	sp,sp,32
1c003b5c:	8082                	ret
  if (cbsys == NULL) return -1;
1c003b5e:	557d                	li	a0,-1
1c003b60:	bfd5                	j	1c003b54 <__rt_cbsys_add+0x30>

1c003b62 <__rt_cbsys_exec>:


int __rt_cbsys_exec(__rt_cbsys_e cbsys_id)
{
1c003b62:	1141                	addi	sp,sp,-16
1c003b64:	c422                	sw	s0,8(sp)
  rt_cbsys_t *cbsys = cbsys_first[cbsys_id];
1c003b66:	1b001437          	lui	s0,0x1b001
1c003b6a:	050a                	slli	a0,a0,0x2
1c003b6c:	ba040413          	addi	s0,s0,-1120 # 1b000ba0 <cbsys_first>
1c003b70:	20a47403          	p.lw	s0,a0(s0)
{
1c003b74:	c606                	sw	ra,12(sp)
  while (cbsys)
1c003b76:	e411                	bnez	s0,1c003b82 <__rt_cbsys_exec+0x20>
  {
    if (cbsys->callback(cbsys->arg)) return -1;
    cbsys = cbsys->next;
  }

  return 0;
1c003b78:	4501                	li	a0,0
}
1c003b7a:	40b2                	lw	ra,12(sp)
1c003b7c:	4422                	lw	s0,8(sp)
1c003b7e:	0141                	addi	sp,sp,16
1c003b80:	8082                	ret
    if (cbsys->callback(cbsys->arg)) return -1;
1c003b82:	401c                	lw	a5,0(s0)
1c003b84:	4048                	lw	a0,4(s0)
1c003b86:	9782                	jalr	a5
1c003b88:	e119                	bnez	a0,1c003b8e <__rt_cbsys_exec+0x2c>
    cbsys = cbsys->next;
1c003b8a:	4400                	lw	s0,8(s0)
1c003b8c:	b7ed                	j	1c003b76 <__rt_cbsys_exec+0x14>
    if (cbsys->callback(cbsys->arg)) return -1;
1c003b8e:	557d                	li	a0,-1
1c003b90:	b7ed                	j	1c003b7a <__rt_cbsys_exec+0x18>

1c003b92 <__rt_utils_init>:

RT_FC_BOOT_CODE void __rt_utils_init()
{
  for (int i=0; i<RT_CBSYS_NB; i++)
  {
    cbsys_first[i] = NULL;
1c003b92:	1b0017b7          	lui	a5,0x1b001
1c003b96:	ba078793          	addi	a5,a5,-1120 # 1b000ba0 <cbsys_first>
1c003b9a:	0007a023          	sw	zero,0(a5)
1c003b9e:	0007a223          	sw	zero,4(a5)
1c003ba2:	0007a423          	sw	zero,8(a5)
1c003ba6:	0007a623          	sw	zero,12(a5)
1c003baa:	0007a823          	sw	zero,16(a5)
1c003bae:	0007aa23          	sw	zero,20(a5)
  }
}
1c003bb2:	8082                	ret

1c003bb4 <__rt_fc_lock>:

void __rt_fc_lock(rt_fc_lock_t *lock)
{
1c003bb4:	1141                	addi	sp,sp,-16
1c003bb6:	c422                	sw	s0,8(sp)
1c003bb8:	842a                	mv	s0,a0
1c003bba:	c606                	sw	ra,12(sp)
1c003bbc:	c226                	sw	s1,4(sp)
1c003bbe:	c04a                	sw	s2,0(sp)
  return __builtin_pulp_read_then_spr_bit_clr(reg, val);
1c003bc0:	300474f3          	csrrci	s1,mstatus,8
#if defined(ARCHI_HAS_FC)
  int irq = rt_irq_disable();
  while(lock->locked)
1c003bc4:	401c                	lw	a5,0(s0)
1c003bc6:	eb99                	bnez	a5,1c003bdc <__rt_fc_lock+0x28>
  {
    //lock->fc_wait = __rt_thread_current;
    __rt_event_execute(rt_event_internal_sched(), 1);
  }
  lock->locked = 1;
1c003bc8:	4785                	li	a5,1
1c003bca:	c01c                	sw	a5,0(s0)
  __builtin_pulp_spr_write(reg, val);
1c003bcc:	30049073          	csrw	mstatus,s1
  while (rt_tas_lock_32((uint32_t)&lock->lock) == -1)
  {

  }
#endif
}
1c003bd0:	40b2                	lw	ra,12(sp)
1c003bd2:	4422                	lw	s0,8(sp)
1c003bd4:	4492                	lw	s1,4(sp)
1c003bd6:	4902                	lw	s2,0(sp)
1c003bd8:	0141                	addi	sp,sp,16
1c003bda:	8082                	ret
    __rt_event_execute(rt_event_internal_sched(), 1);
1c003bdc:	4585                	li	a1,1
1c003bde:	01c00513          	li	a0,28
1c003be2:	2905                	jal	1c004012 <__rt_event_execute>
1c003be4:	b7c5                	j	1c003bc4 <__rt_fc_lock+0x10>

1c003be6 <__rt_fc_unlock>:
  return __builtin_pulp_read_then_spr_bit_clr(reg, val);
1c003be6:	300476f3          	csrrci	a3,mstatus,8

static int __rt_fc_unlock_to_cluster(rt_fc_lock_t *lock)
{
#if defined(ARCHI_HAS_CLUSTER)
  if (lock->waiting) {
1c003bea:	415c                	lw	a5,4(a0)
1c003bec:	e791                	bnez	a5,1c003bf8 <__rt_fc_unlock+0x12>
{
#if defined(ARCHI_HAS_FC)
  int irq = rt_irq_disable();
  if (!__rt_fc_unlock_to_cluster(lock))
  {
    lock->locked = 0;    
1c003bee:	00052023          	sw	zero,0(a0)
  __builtin_pulp_spr_write(reg, val);
1c003bf2:	30069073          	csrw	mstatus,a3
  }
  rt_irq_restore(irq);
#else
  rt_tas_unlock_32((uint32_t)&lock->lock, 0);
#endif
}
1c003bf6:	8082                	ret
    lock->waiting = req->next;
1c003bf8:	43d8                	lw	a4,4(a5)
1c003bfa:	c158                	sw	a4,4(a0)
    req->done = 1;
1c003bfc:	4705                	li	a4,1
1c003bfe:	08e78423          	sb	a4,136(a5)
    __rt_cluster_notif_req_done(req->cid);
1c003c02:	0897c783          	lbu	a5,137(a5)
  pulp_write32(evtAddr, coreSet);
1c003c06:	00201737          	lui	a4,0x201
1c003c0a:	e0470713          	addi	a4,a4,-508 # 200e04 <__L2+0x180e04>
  return ARCHI_CLUSTER_PERIPHERALS_GLOBAL_ADDR(cluster) + ARCHI_EU_OFFSET + EU_SW_EVENTS_AREA_BASE + EU_CORE_TRIGG_SW_EVENT + (event << 2);
1c003c0e:	04078793          	addi	a5,a5,64
1c003c12:	07da                	slli	a5,a5,0x16
  pulp_write32(evtAddr, coreSet);
1c003c14:	0007e723          	p.sw	zero,a4(a5)
1c003c18:	bfe9                	j	1c003bf2 <__rt_fc_unlock+0xc>

1c003c1a <__rt_fc_cluster_lock>:
  asm("csrr %0, 0x014" : "=r" (hart_id) : );
1c003c1a:	014027f3          	csrr	a5,uhartid
  return (hart_id >> 5) & 0x3f;
1c003c1e:	8795                	srai	a5,a5,0x5
1c003c20:	f267b7b3          	p.bclr	a5,a5,25,6
#if defined(ARCHI_HAS_FC)

void __rt_fc_cluster_lock(rt_fc_lock_t *lock, rt_fc_lock_req_t *req)
{
  req->lock = lock;
  req->cid = rt_cluster_id();
1c003c24:	08f584a3          	sb	a5,137(a1)
  req->done = 0;
  req->req_lock = 1;
1c003c28:	4785                	li	a5,1
1c003c2a:	08f58523          	sb	a5,138(a1)
}

static inline rt_event_t *__rt_init_event(rt_event_t *event, rt_event_sched_t *sched, void (*callback)(void *), void *arg)
{
  __rt_event_min_init(event);
  event->arg[0] = (uintptr_t)callback;
1c003c2e:	1c0047b7          	lui	a5,0x1c004
1c003c32:	aa878793          	addi	a5,a5,-1368 # 1c003aa8 <__rt_fc_cluster_lock_req>
  req->lock = lock;
1c003c36:	c188                	sw	a0,0(a1)
  req->done = 0;
1c003c38:	08058423          	sb	zero,136(a1)
  event->implem.pending = 0;
1c003c3c:	0205a623          	sw	zero,44(a1)
  event->implem.keep = 0;
1c003c40:	0205a823          	sw	zero,48(a1)
  event->arg[0] = (uintptr_t)callback;
1c003c44:	c5dc                	sw	a5,12(a1)
  event->arg[1] = (uintptr_t)arg;
1c003c46:	c98c                	sw	a1,16(a1)
  __rt_init_event(&req->event, __rt_cluster_sched_get(), __rt_fc_cluster_lock_req, (void *)req);
1c003c48:	05a1                	addi	a1,a1,8

// This function will push an event from cluster to FC and the event callback
// will be executed directly from within the interrupt handler
static inline void __rt_cluster_push_fc_irq_event(rt_event_t *event)
{
  __rt_cluster_push_fc_event((rt_event_t *)(((unsigned int)event) | 0x1));
1c003c4a:	c005c533          	p.bset	a0,a1,0,0
1c003c4e:	1fe0106f          	j	1c004e4c <__rt_cluster_push_fc_event>

1c003c52 <__rt_fc_cluster_unlock>:
  asm("csrr %0, 0x014" : "=r" (hart_id) : );
1c003c52:	014027f3          	csrr	a5,uhartid
  return (hart_id >> 5) & 0x3f;
1c003c56:	8795                	srai	a5,a5,0x5
1c003c58:	f267b7b3          	p.bclr	a5,a5,25,6
}

void __rt_fc_cluster_unlock(rt_fc_lock_t *lock, rt_fc_lock_req_t *req)
{
  req->lock = lock;
  req->cid = rt_cluster_id();
1c003c5c:	08f584a3          	sb	a5,137(a1)
  event->arg[0] = (uintptr_t)callback;
1c003c60:	1c0047b7          	lui	a5,0x1c004
1c003c64:	aa878793          	addi	a5,a5,-1368 # 1c003aa8 <__rt_fc_cluster_lock_req>
  req->lock = lock;
1c003c68:	c188                	sw	a0,0(a1)
  req->done = 0;
1c003c6a:	08058423          	sb	zero,136(a1)
  req->req_lock = 0;
1c003c6e:	08058523          	sb	zero,138(a1)
  event->implem.pending = 0;
1c003c72:	0205a623          	sw	zero,44(a1)
  event->implem.keep = 0;
1c003c76:	0205a823          	sw	zero,48(a1)
  event->arg[0] = (uintptr_t)callback;
1c003c7a:	c5dc                	sw	a5,12(a1)
  event->arg[1] = (uintptr_t)arg;
1c003c7c:	c98c                	sw	a1,16(a1)
  __rt_init_event(&req->event, __rt_cluster_sched_get(), __rt_fc_cluster_lock_req, (void *)req);
1c003c7e:	05a1                	addi	a1,a1,8
1c003c80:	c005c533          	p.bset	a0,a1,0,0
1c003c84:	1c80106f          	j	1c004e4c <__rt_cluster_push_fc_event>

1c003c88 <__rt_event_enqueue>:

    __rt_wait_event_check(event, call_event);
  }

  rt_irq_restore(irq);
}
1c003c88:	01c02683          	lw	a3,28(zero) # 1c <_l1_preload_size>
1c003c8c:	00052023          	sw	zero,0(a0)
1c003c90:	01c00713          	li	a4,28
1c003c94:	c689                	beqz	a3,1c003c9e <__rt_event_enqueue+0x16>
1c003c96:	435c                	lw	a5,4(a4)
1c003c98:	c388                	sw	a0,0(a5)
1c003c9a:	c348                	sw	a0,4(a4)
1c003c9c:	8082                	ret
1c003c9e:	00a02e23          	sw	a0,28(zero) # 1c <_l1_preload_size>
1c003ca2:	bfe5                	j	1c003c9a <__rt_event_enqueue+0x12>

1c003ca4 <__rt_bridge_check_bridge_req.part.5>:
1c003ca4:	1c010737          	lui	a4,0x1c010
1c003ca8:	c5870793          	addi	a5,a4,-936 # 1c00fc58 <__hal_debug_struct>
1c003cac:	0a47a783          	lw	a5,164(a5)
1c003cb0:	c5870713          	addi	a4,a4,-936
1c003cb4:	c789                	beqz	a5,1c003cbe <__rt_bridge_check_bridge_req.part.5+0x1a>
1c003cb6:	4f94                	lw	a3,24(a5)
1c003cb8:	e681                	bnez	a3,1c003cc0 <__rt_bridge_check_bridge_req.part.5+0x1c>
1c003cba:	0af72623          	sw	a5,172(a4)
1c003cbe:	8082                	ret
1c003cc0:	479c                	lw	a5,8(a5)
1c003cc2:	bfcd                	j	1c003cb4 <__rt_bridge_check_bridge_req.part.5+0x10>

1c003cc4 <__rt_bridge_wait>:
1c003cc4:	014027f3          	csrr	a5,uhartid
1c003cc8:	02000713          	li	a4,32
1c003ccc:	ca5797b3          	p.extractu	a5,a5,5,5
1c003cd0:	02e79c63          	bne	a5,a4,1c003d08 <__rt_bridge_wait+0x44>
1c003cd4:	1141                	addi	sp,sp,-16
1c003cd6:	c422                	sw	s0,8(sp)
1c003cd8:	1a106437          	lui	s0,0x1a106
1c003cdc:	c606                	sw	ra,12(sp)
1c003cde:	00442783          	lw	a5,4(s0) # 1a106004 <__l1_end+0xa105fe4>
1c003ce2:	c187b7b3          	p.bclr	a5,a5,0,24
1c003ce6:	00f42223          	sw	a5,4(s0)
1c003cea:	4585                	li	a1,1
1c003cec:	03800513          	li	a0,56
1c003cf0:	0eb000ef          	jal	ra,1c0045da <__rt_periph_wait_event>
1c003cf4:	00442783          	lw	a5,4(s0)
1c003cf8:	c187c7b3          	p.bset	a5,a5,0,24
1c003cfc:	00f42223          	sw	a5,4(s0)
1c003d00:	40b2                	lw	ra,12(sp)
1c003d02:	4422                	lw	s0,8(sp)
1c003d04:	0141                	addi	sp,sp,16
1c003d06:	8082                	ret
1c003d08:	8082                	ret

1c003d0a <__rt_bridge_handle_notif>:
1c003d0a:	1141                	addi	sp,sp,-16
1c003d0c:	c422                	sw	s0,8(sp)
1c003d0e:	1c010437          	lui	s0,0x1c010
1c003d12:	c5840793          	addi	a5,s0,-936 # 1c00fc58 <__hal_debug_struct>
1c003d16:	0a47a783          	lw	a5,164(a5)
1c003d1a:	c606                	sw	ra,12(sp)
1c003d1c:	c226                	sw	s1,4(sp)
1c003d1e:	c04a                	sw	s2,0(sp)
1c003d20:	c5840413          	addi	s0,s0,-936
1c003d24:	c399                	beqz	a5,1c003d2a <__rt_bridge_handle_notif+0x20>
1c003d26:	4bd8                	lw	a4,20(a5)
1c003d28:	e30d                	bnez	a4,1c003d4a <__rt_bridge_handle_notif+0x40>
1c003d2a:	0b442783          	lw	a5,180(s0)
1c003d2e:	c789                	beqz	a5,1c003d38 <__rt_bridge_handle_notif+0x2e>
1c003d30:	43a8                	lw	a0,64(a5)
1c003d32:	0a042a23          	sw	zero,180(s0)
1c003d36:	3f89                	jal	1c003c88 <__rt_event_enqueue>
1c003d38:	0ac42783          	lw	a5,172(s0)
1c003d3c:	eb95                	bnez	a5,1c003d70 <__rt_bridge_handle_notif+0x66>
1c003d3e:	4422                	lw	s0,8(sp)
1c003d40:	40b2                	lw	ra,12(sp)
1c003d42:	4492                	lw	s1,4(sp)
1c003d44:	4902                	lw	s2,0(sp)
1c003d46:	0141                	addi	sp,sp,16
1c003d48:	bfb1                	j	1c003ca4 <__rt_bridge_check_bridge_req.part.5>
1c003d4a:	4784                	lw	s1,8(a5)
1c003d4c:	4fd8                	lw	a4,28(a5)
1c003d4e:	0a942223          	sw	s1,164(s0)
1c003d52:	cb01                	beqz	a4,1c003d62 <__rt_bridge_handle_notif+0x58>
1c003d54:	0b042703          	lw	a4,176(s0)
1c003d58:	c798                	sw	a4,8(a5)
1c003d5a:	0af42823          	sw	a5,176(s0)
1c003d5e:	87a6                	mv	a5,s1
1c003d60:	b7d1                	j	1c003d24 <__rt_bridge_handle_notif+0x1a>
1c003d62:	43a8                	lw	a0,64(a5)
1c003d64:	30047973          	csrrci	s2,mstatus,8
1c003d68:	3705                	jal	1c003c88 <__rt_event_enqueue>
1c003d6a:	30091073          	csrw	mstatus,s2
1c003d6e:	bfc5                	j	1c003d5e <__rt_bridge_handle_notif+0x54>
1c003d70:	40b2                	lw	ra,12(sp)
1c003d72:	4422                	lw	s0,8(sp)
1c003d74:	4492                	lw	s1,4(sp)
1c003d76:	4902                	lw	s2,0(sp)
1c003d78:	0141                	addi	sp,sp,16
1c003d7a:	8082                	ret

1c003d7c <__rt_bridge_check_connection>:
1c003d7c:	1c0106b7          	lui	a3,0x1c010
1c003d80:	c5868693          	addi	a3,a3,-936 # 1c00fc58 <__hal_debug_struct>
1c003d84:	469c                	lw	a5,8(a3)
1c003d86:	ef9d                	bnez	a5,1c003dc4 <__rt_bridge_check_connection+0x48>
1c003d88:	1a1047b7          	lui	a5,0x1a104
1c003d8c:	07478793          	addi	a5,a5,116 # 1a104074 <__l1_end+0xa104054>
1c003d90:	4398                	lw	a4,0(a5)
1c003d92:	8325                	srli	a4,a4,0x9
1c003d94:	f8373733          	p.bclr	a4,a4,28,3
1c003d98:	02773663          	p.bneimm	a4,7,1c003dc4 <__rt_bridge_check_connection+0x48>
1c003d9c:	1141                	addi	sp,sp,-16
1c003d9e:	c422                	sw	s0,8(sp)
1c003da0:	c606                	sw	ra,12(sp)
1c003da2:	4705                	li	a4,1
1c003da4:	c698                	sw	a4,8(a3)
1c003da6:	4709                	li	a4,2
1c003da8:	c398                	sw	a4,0(a5)
1c003daa:	843e                	mv	s0,a5
1c003dac:	401c                	lw	a5,0(s0)
1c003dae:	83a5                	srli	a5,a5,0x9
1c003db0:	f837b7b3          	p.bclr	a5,a5,28,3
1c003db4:	0077a663          	p.beqimm	a5,7,1c003dc0 <__rt_bridge_check_connection+0x44>
1c003db8:	40b2                	lw	ra,12(sp)
1c003dba:	4422                	lw	s0,8(sp)
1c003dbc:	0141                	addi	sp,sp,16
1c003dbe:	8082                	ret
1c003dc0:	3711                	jal	1c003cc4 <__rt_bridge_wait>
1c003dc2:	b7ed                	j	1c003dac <__rt_bridge_check_connection+0x30>
1c003dc4:	8082                	ret

1c003dc6 <__rt_bridge_set_available>:
1c003dc6:	1c0107b7          	lui	a5,0x1c010
1c003dca:	c5878793          	addi	a5,a5,-936 # 1c00fc58 <__hal_debug_struct>
1c003dce:	4798                	lw	a4,8(a5)
1c003dd0:	1a1047b7          	lui	a5,0x1a104
1c003dd4:	07478793          	addi	a5,a5,116 # 1a104074 <__l1_end+0xa104054>
1c003dd8:	e701                	bnez	a4,1c003de0 <__rt_bridge_set_available+0x1a>
1c003dda:	4721                	li	a4,8
1c003ddc:	c398                	sw	a4,0(a5)
1c003dde:	8082                	ret
1c003de0:	4709                	li	a4,2
1c003de2:	bfed                	j	1c003ddc <__rt_bridge_set_available+0x16>

1c003de4 <__rt_bridge_send_notif>:
1c003de4:	1141                	addi	sp,sp,-16
1c003de6:	c606                	sw	ra,12(sp)
1c003de8:	3f51                	jal	1c003d7c <__rt_bridge_check_connection>
1c003dea:	1c0107b7          	lui	a5,0x1c010
1c003dee:	c5878793          	addi	a5,a5,-936 # 1c00fc58 <__hal_debug_struct>
1c003df2:	479c                	lw	a5,8(a5)
1c003df4:	c789                	beqz	a5,1c003dfe <__rt_bridge_send_notif+0x1a>
1c003df6:	1a1047b7          	lui	a5,0x1a104
1c003dfa:	4719                	li	a4,6
1c003dfc:	dbf8                	sw	a4,116(a5)
1c003dfe:	40b2                	lw	ra,12(sp)
1c003e00:	0141                	addi	sp,sp,16
1c003e02:	8082                	ret

1c003e04 <__rt_bridge_clear_notif>:
  #endif
  }
}

void __rt_bridge_clear_notif()
{
1c003e04:	1141                	addi	sp,sp,-16
1c003e06:	c606                	sw	ra,12(sp)
  hal_debug_struct_t *debug_struct = hal_debug_struct_get();

  __rt_bridge_check_connection();
1c003e08:	3f95                	jal	1c003d7c <__rt_bridge_check_connection>

  if (debug_struct->bridge.connected)
1c003e0a:	1c0107b7          	lui	a5,0x1c010
1c003e0e:	c5878793          	addi	a5,a5,-936 # 1c00fc58 <__hal_debug_struct>
1c003e12:	479c                	lw	a5,8(a5)
1c003e14:	c781                	beqz	a5,1c003e1c <__rt_bridge_clear_notif+0x18>
  {
    __rt_bridge_set_available();
  }
}
1c003e16:	40b2                	lw	ra,12(sp)
1c003e18:	0141                	addi	sp,sp,16
    __rt_bridge_set_available();
1c003e1a:	b775                	j	1c003dc6 <__rt_bridge_set_available>
}
1c003e1c:	40b2                	lw	ra,12(sp)
1c003e1e:	0141                	addi	sp,sp,16
1c003e20:	8082                	ret

1c003e22 <__rt_bridge_printf_flush>:
{
1c003e22:	1141                	addi	sp,sp,-16
1c003e24:	c422                	sw	s0,8(sp)
1c003e26:	c606                	sw	ra,12(sp)
  if (debug_struct->bridge.connected)
1c003e28:	1c010437          	lui	s0,0x1c010
  __rt_bridge_check_connection();
1c003e2c:	3f81                	jal	1c003d7c <__rt_bridge_check_connection>
  if (debug_struct->bridge.connected)
1c003e2e:	c5840793          	addi	a5,s0,-936 # 1c00fc58 <__hal_debug_struct>
1c003e32:	479c                	lw	a5,8(a5)
1c003e34:	c385                	beqz	a5,1c003e54 <__rt_bridge_printf_flush+0x32>
1c003e36:	c5840413          	addi	s0,s0,-936
  return *(volatile uint32_t *)&debug_struct->putc_current == 0;
}

static inline int hal_debug_is_busy(hal_debug_struct_t *debug_struct)
{
  return *(volatile uint32_t *)&debug_struct->pending_putchar;
1c003e3a:	485c                	lw	a5,20(s0)
    if (hal_debug_is_busy(hal_debug_struct_get()) || !hal_debug_is_empty(hal_debug_struct_get()))
1c003e3c:	e399                	bnez	a5,1c003e42 <__rt_bridge_printf_flush+0x20>
  return *(volatile uint32_t *)&debug_struct->putc_current == 0;
1c003e3e:	4c1c                	lw	a5,24(s0)
1c003e40:	cb91                	beqz	a5,1c003e54 <__rt_bridge_printf_flush+0x32>
      __rt_bridge_send_notif();
1c003e42:	374d                	jal	1c003de4 <__rt_bridge_send_notif>
  return *(volatile uint32_t *)&debug_struct->pending_putchar;
1c003e44:	485c                	lw	a5,20(s0)
      while(hal_debug_is_busy(hal_debug_struct_get()))
1c003e46:	e789                	bnez	a5,1c003e50 <__rt_bridge_printf_flush+0x2e>
}
1c003e48:	4422                	lw	s0,8(sp)
1c003e4a:	40b2                	lw	ra,12(sp)
1c003e4c:	0141                	addi	sp,sp,16
      __rt_bridge_clear_notif();
1c003e4e:	bf5d                	j	1c003e04 <__rt_bridge_clear_notif>
        __rt_bridge_wait();
1c003e50:	3d95                	jal	1c003cc4 <__rt_bridge_wait>
1c003e52:	bfcd                	j	1c003e44 <__rt_bridge_printf_flush+0x22>
}
1c003e54:	40b2                	lw	ra,12(sp)
1c003e56:	4422                	lw	s0,8(sp)
1c003e58:	0141                	addi	sp,sp,16
1c003e5a:	8082                	ret

1c003e5c <__rt_bridge_req_shutdown>:
{
1c003e5c:	1141                	addi	sp,sp,-16
1c003e5e:	c606                	sw	ra,12(sp)
1c003e60:	c422                	sw	s0,8(sp)
  __rt_bridge_check_connection();
1c003e62:	3f29                	jal	1c003d7c <__rt_bridge_check_connection>
  if (debug_struct->bridge.connected)
1c003e64:	1c0107b7          	lui	a5,0x1c010
1c003e68:	c5878793          	addi	a5,a5,-936 # 1c00fc58 <__hal_debug_struct>
1c003e6c:	479c                	lw	a5,8(a5)
1c003e6e:	c7a1                	beqz	a5,1c003eb6 <__rt_bridge_req_shutdown+0x5a>




static inline unsigned int apb_soc_jtag_reg_read() {
  return pulp_read32(ARCHI_APB_SOC_CTRL_ADDR + APB_SOC_JTAGREG_OFFSET);
1c003e70:	1a104437          	lui	s0,0x1a104
    __rt_bridge_printf_flush();
1c003e74:	377d                	jal	1c003e22 <__rt_bridge_printf_flush>
1c003e76:	07440413          	addi	s0,s0,116 # 1a104074 <__l1_end+0xa104054>
1c003e7a:	401c                	lw	a5,0(s0)
    while((apb_soc_jtag_reg_ext(apb_soc_jtag_reg_read()) >> 1) == 7)
1c003e7c:	83a5                	srli	a5,a5,0x9
1c003e7e:	f837b7b3          	p.bclr	a5,a5,28,3
1c003e82:	0277ae63          	p.beqimm	a5,7,1c003ebe <__rt_bridge_req_shutdown+0x62>
}

static inline void apb_soc_jtag_reg_write(unsigned int value) {
  pulp_write32(ARCHI_APB_SOC_CTRL_ADDR + APB_SOC_JTAGREG_OFFSET, value);
1c003e86:	4791                	li	a5,4
1c003e88:	c01c                	sw	a5,0(s0)
  return pulp_read32(ARCHI_APB_SOC_CTRL_ADDR + APB_SOC_JTAGREG_OFFSET);
1c003e8a:	1a104437          	lui	s0,0x1a104
1c003e8e:	07440413          	addi	s0,s0,116 # 1a104074 <__l1_end+0xa104054>
1c003e92:	401c                	lw	a5,0(s0)
    while((apb_soc_jtag_reg_ext(apb_soc_jtag_reg_read()) >> 1) != 7)
1c003e94:	83a5                	srli	a5,a5,0x9
1c003e96:	f837b7b3          	p.bclr	a5,a5,28,3
1c003e9a:	0277b463          	p.bneimm	a5,7,1c003ec2 <__rt_bridge_req_shutdown+0x66>
  pulp_write32(ARCHI_APB_SOC_CTRL_ADDR + APB_SOC_JTAGREG_OFFSET, value);
1c003e9e:	00042023          	sw	zero,0(s0)
  return pulp_read32(ARCHI_APB_SOC_CTRL_ADDR + APB_SOC_JTAGREG_OFFSET);
1c003ea2:	1a104437          	lui	s0,0x1a104
1c003ea6:	07440413          	addi	s0,s0,116 # 1a104074 <__l1_end+0xa104054>
1c003eaa:	401c                	lw	a5,0(s0)
    while((apb_soc_jtag_reg_ext(apb_soc_jtag_reg_read()) >> 1) == 7)
1c003eac:	83a5                	srli	a5,a5,0x9
1c003eae:	f837b7b3          	p.bclr	a5,a5,28,3
1c003eb2:	0077aa63          	p.beqimm	a5,7,1c003ec6 <__rt_bridge_req_shutdown+0x6a>
}
1c003eb6:	40b2                	lw	ra,12(sp)
1c003eb8:	4422                	lw	s0,8(sp)
1c003eba:	0141                	addi	sp,sp,16
1c003ebc:	8082                	ret
      __rt_bridge_wait();
1c003ebe:	3519                	jal	1c003cc4 <__rt_bridge_wait>
1c003ec0:	bf6d                	j	1c003e7a <__rt_bridge_req_shutdown+0x1e>
      __rt_bridge_wait();
1c003ec2:	3509                	jal	1c003cc4 <__rt_bridge_wait>
1c003ec4:	b7f9                	j	1c003e92 <__rt_bridge_req_shutdown+0x36>
      __rt_bridge_wait();
1c003ec6:	3bfd                	jal	1c003cc4 <__rt_bridge_wait>
1c003ec8:	b7cd                	j	1c003eaa <__rt_bridge_req_shutdown+0x4e>

1c003eca <__rt_bridge_init>:

RT_FC_BOOT_CODE void __attribute__((constructor)) __rt_bridge_init()
{
  hal_bridge_t *bridge = hal_bridge_get();
  
  bridge->first_req = 0;
1c003eca:	1c0107b7          	lui	a5,0x1c010
  bridge->notif_req_addr = ARCHI_FC_ITC_ADDR + ITC_STATUS_SET_OFFSET;
  bridge->notif_req_value = 1<<RT_BRIDGE_ENQUEUE_EVENT;
#else
#if defined(EU_VERSION) && EU_VERSION >= 3
#if defined(ARCHI_HAS_FC)
  bridge->notif_req_addr = ARCHI_FC_GLOBAL_ADDR + ARCHI_FC_PERIPHERALS_OFFSET + ARCHI_FC_EU_OFFSET + EU_SW_EVENTS_AREA_BASE + EU_CORE_TRIGG_SW_EVENT + (RT_BRIDGE_ENQUEUE_EVENT << 2);
1c003ece:	1b201737          	lui	a4,0x1b201
  bridge->first_req = 0;
1c003ed2:	c5878793          	addi	a5,a5,-936 # 1c00fc58 <__hal_debug_struct>
  bridge->notif_req_addr = ARCHI_FC_GLOBAL_ADDR + ARCHI_FC_PERIPHERALS_OFFSET + ARCHI_FC_EU_OFFSET + EU_SW_EVENTS_AREA_BASE + EU_CORE_TRIGG_SW_EVENT + (RT_BRIDGE_ENQUEUE_EVENT << 2);
1c003ed6:	e1070713          	addi	a4,a4,-496 # 1b200e10 <__fc_tcdm_end+0x1ffa40>
1c003eda:	0ae7ac23          	sw	a4,184(a5)
  bridge->notif_req_value = 1;
1c003ede:	4705                	li	a4,1
  bridge->first_req = 0;
1c003ee0:	0a07a223          	sw	zero,164(a5)
  bridge->first_bridge_req = 0;
1c003ee4:	0a07a623          	sw	zero,172(a5)
  bridge->target_req = 0;
1c003ee8:	0a07aa23          	sw	zero,180(a5)
  bridge->notif_req_value = 1;
1c003eec:	0ae7ae23          	sw	a4,188(a5)
#endif
#endif
#endif

  __rt_bridge_eeprom_handle = NULL;
1c003ef0:	00400793          	li	a5,4
1c003ef4:	0007a823          	sw	zero,16(a5)
  __rt_bridge_flash_handle = NULL;
1c003ef8:	0007a023          	sw	zero,0(a5)
}
1c003efc:	8082                	ret

1c003efe <__rt_event_init>:
{
  __rt_event_execute(sched, 0);
  rt_wait_for_interrupt();
  rt_irq_enable();
  rt_irq_disable();
}
1c003efe:	1141                	addi	sp,sp,-16
1c003f00:	c422                	sw	s0,8(sp)
1c003f02:	c606                	sw	ra,12(sp)
1c003f04:	842a                	mv	s0,a0
1c003f06:	02052223          	sw	zero,36(a0)
1c003f0a:	02052423          	sw	zero,40(a0)
1c003f0e:	45c1                	li	a1,16
1c003f10:	4501                	li	a0,0
1c003f12:	24b5                	jal	1c00417e <rt_alloc>
1c003f14:	dc68                	sw	a0,124(s0)
1c003f16:	02042a23          	sw	zero,52(s0)
1c003f1a:	00042223          	sw	zero,4(s0)
1c003f1e:	40b2                	lw	ra,12(sp)
1c003f20:	4422                	lw	s0,8(sp)
1c003f22:	0141                	addi	sp,sp,16
1c003f24:	8082                	ret

1c003f26 <__rt_wait_event_prepare_blocking>:
1c003f26:	01800793          	li	a5,24
1c003f2a:	4388                	lw	a0,0(a5)
1c003f2c:	4118                	lw	a4,0(a0)
1c003f2e:	02052423          	sw	zero,40(a0)
1c003f32:	00052223          	sw	zero,4(a0)
1c003f36:	c398                	sw	a4,0(a5)
1c003f38:	4785                	li	a5,1
1c003f3a:	d15c                	sw	a5,36(a0)
1c003f3c:	8082                	ret

1c003f3e <rt_event_alloc>:
1c003f3e:	1101                	addi	sp,sp,-32
1c003f40:	c64e                	sw	s3,12(sp)
1c003f42:	89ae                	mv	s3,a1
1c003f44:	ce06                	sw	ra,28(sp)
1c003f46:	cc22                	sw	s0,24(sp)
1c003f48:	ca26                	sw	s1,20(sp)
1c003f4a:	c84a                	sw	s2,16(sp)
1c003f4c:	c452                	sw	s4,8(sp)
1c003f4e:	c256                	sw	s5,4(sp)
1c003f50:	30047a73          	csrrci	s4,mstatus,8
1c003f54:	014027f3          	csrr	a5,uhartid
1c003f58:	8795                	srai	a5,a5,0x5
1c003f5a:	f267b7b3          	p.bclr	a5,a5,25,6
1c003f5e:	02000713          	li	a4,32
1c003f62:	00278513          	addi	a0,a5,2
1c003f66:	00e79363          	bne	a5,a4,1c003f6c <rt_event_alloc+0x2e>
1c003f6a:	4505                	li	a0,1
1c003f6c:	00799593          	slli	a1,s3,0x7
1c003f70:	2439                	jal	1c00417e <rt_alloc>
1c003f72:	842a                	mv	s0,a0
1c003f74:	557d                	li	a0,-1
1c003f76:	c819                	beqz	s0,1c003f8c <rt_event_alloc+0x4e>
1c003f78:	01800493          	li	s1,24
1c003f7c:	4901                	li	s2,0
1c003f7e:	00448a93          	addi	s5,s1,4
1c003f82:	01394e63          	blt	s2,s3,1c003f9e <rt_event_alloc+0x60>
1c003f86:	300a1073          	csrw	mstatus,s4
1c003f8a:	4501                	li	a0,0
1c003f8c:	40f2                	lw	ra,28(sp)
1c003f8e:	4462                	lw	s0,24(sp)
1c003f90:	44d2                	lw	s1,20(sp)
1c003f92:	4942                	lw	s2,16(sp)
1c003f94:	49b2                	lw	s3,12(sp)
1c003f96:	4a22                	lw	s4,8(sp)
1c003f98:	4a92                	lw	s5,4(sp)
1c003f9a:	6105                	addi	sp,sp,32
1c003f9c:	8082                	ret
1c003f9e:	8522                	mv	a0,s0
1c003fa0:	85d6                	mv	a1,s5
1c003fa2:	3fb1                	jal	1c003efe <__rt_event_init>
1c003fa4:	409c                	lw	a5,0(s1)
1c003fa6:	0905                	addi	s2,s2,1
1c003fa8:	c01c                	sw	a5,0(s0)
1c003faa:	c080                	sw	s0,0(s1)
1c003fac:	08040413          	addi	s0,s0,128
1c003fb0:	bfc9                	j	1c003f82 <rt_event_alloc+0x44>

1c003fb2 <rt_event_get>:
1c003fb2:	30047773          	csrrci	a4,mstatus,8
1c003fb6:	01800793          	li	a5,24
1c003fba:	4388                	lw	a0,0(a5)
1c003fbc:	c509                	beqz	a0,1c003fc6 <rt_event_get+0x14>
1c003fbe:	4114                	lw	a3,0(a0)
1c003fc0:	c14c                	sw	a1,4(a0)
1c003fc2:	c510                	sw	a2,8(a0)
1c003fc4:	c394                	sw	a3,0(a5)
1c003fc6:	30071073          	csrw	mstatus,a4
1c003fca:	8082                	ret

1c003fcc <rt_event_get_blocking>:
1c003fcc:	30047773          	csrrci	a4,mstatus,8
1c003fd0:	01800793          	li	a5,24
1c003fd4:	4388                	lw	a0,0(a5)
1c003fd6:	c909                	beqz	a0,1c003fe8 <rt_event_get_blocking+0x1c>
1c003fd8:	4114                	lw	a3,0(a0)
1c003fda:	00052223          	sw	zero,4(a0)
1c003fde:	00052423          	sw	zero,8(a0)
1c003fe2:	c394                	sw	a3,0(a5)
1c003fe4:	4785                	li	a5,1
1c003fe6:	d15c                	sw	a5,36(a0)
1c003fe8:	30071073          	csrw	mstatus,a4
1c003fec:	8082                	ret

1c003fee <rt_event_push>:
1c003fee:	30047773          	csrrci	a4,mstatus,8
1c003ff2:	01800693          	li	a3,24
1c003ff6:	42d4                	lw	a3,4(a3)
1c003ff8:	00052023          	sw	zero,0(a0)
1c003ffc:	01800793          	li	a5,24
1c004000:	e691                	bnez	a3,1c00400c <rt_event_push+0x1e>
1c004002:	c3c8                	sw	a0,4(a5)
1c004004:	c788                	sw	a0,8(a5)
1c004006:	30071073          	csrw	mstatus,a4
1c00400a:	8082                	ret
1c00400c:	4794                	lw	a3,8(a5)
1c00400e:	c288                	sw	a0,0(a3)
1c004010:	bfd5                	j	1c004004 <rt_event_push+0x16>

1c004012 <__rt_event_execute>:
1c004012:	1141                	addi	sp,sp,-16
1c004014:	c422                	sw	s0,8(sp)
1c004016:	01800793          	li	a5,24
1c00401a:	43dc                	lw	a5,4(a5)
1c00401c:	c606                	sw	ra,12(sp)
1c00401e:	c226                	sw	s1,4(sp)
1c004020:	01800413          	li	s0,24
1c004024:	ef81                	bnez	a5,1c00403c <__rt_event_execute+0x2a>
1c004026:	c1b9                	beqz	a1,1c00406c <__rt_event_execute+0x5a>
1c004028:	002047b7          	lui	a5,0x204
1c00402c:	0387e703          	p.elw	a4,56(a5) # 204038 <__L2+0x184038>
1c004030:	300467f3          	csrrsi	a5,mstatus,8
1c004034:	300477f3          	csrrci	a5,mstatus,8
1c004038:	405c                	lw	a5,4(s0)
1c00403a:	cb8d                	beqz	a5,1c00406c <__rt_event_execute+0x5a>
1c00403c:	4485                	li	s1,1
1c00403e:	4398                	lw	a4,0(a5)
1c004040:	5794                	lw	a3,40(a5)
1c004042:	00978a23          	sb	s1,20(a5)
1c004046:	c058                	sw	a4,4(s0)
1c004048:	4788                	lw	a0,8(a5)
1c00404a:	43d8                	lw	a4,4(a5)
1c00404c:	e691                	bnez	a3,1c004058 <__rt_event_execute+0x46>
1c00404e:	53d4                	lw	a3,36(a5)
1c004050:	e681                	bnez	a3,1c004058 <__rt_event_execute+0x46>
1c004052:	4014                	lw	a3,0(s0)
1c004054:	c394                	sw	a3,0(a5)
1c004056:	c01c                	sw	a5,0(s0)
1c004058:	0207a223          	sw	zero,36(a5)
1c00405c:	c711                	beqz	a4,1c004068 <__rt_event_execute+0x56>
1c00405e:	300467f3          	csrrsi	a5,mstatus,8
1c004062:	9702                	jalr	a4
1c004064:	300477f3          	csrrci	a5,mstatus,8
1c004068:	405c                	lw	a5,4(s0)
1c00406a:	fbf1                	bnez	a5,1c00403e <__rt_event_execute+0x2c>
1c00406c:	40b2                	lw	ra,12(sp)
1c00406e:	4422                	lw	s0,8(sp)
1c004070:	4492                	lw	s1,4(sp)
1c004072:	0141                	addi	sp,sp,16
1c004074:	8082                	ret

1c004076 <__rt_wait_event>:
  } while(event);

}

void __rt_wait_event(rt_event_t *event)
{
1c004076:	1141                	addi	sp,sp,-16
1c004078:	c422                	sw	s0,8(sp)
1c00407a:	c606                	sw	ra,12(sp)
1c00407c:	842a                	mv	s0,a0
  while (event->implem.pending || event->implem.saved_pending) {
1c00407e:	505c                	lw	a5,36(s0)
1c004080:	ef81                	bnez	a5,1c004098 <__rt_wait_event+0x22>
1c004082:	585c                	lw	a5,52(s0)
1c004084:	eb91                	bnez	a5,1c004098 <__rt_wait_event+0x22>
    __rt_event_execute(NULL, 1);
  }

  event->next = __rt_first_free;
1c004086:	01800793          	li	a5,24
1c00408a:	4398                	lw	a4,0(a5)
  __rt_first_free = event;
}
1c00408c:	40b2                	lw	ra,12(sp)
  event->next = __rt_first_free;
1c00408e:	c018                	sw	a4,0(s0)
  __rt_first_free = event;
1c004090:	c380                	sw	s0,0(a5)
}
1c004092:	4422                	lw	s0,8(sp)
1c004094:	0141                	addi	sp,sp,16
1c004096:	8082                	ret
    __rt_event_execute(NULL, 1);
1c004098:	4585                	li	a1,1
1c00409a:	4501                	li	a0,0
1c00409c:	3f9d                	jal	1c004012 <__rt_event_execute>
1c00409e:	b7c5                	j	1c00407e <__rt_wait_event+0x8>

1c0040a0 <rt_event_wait>:

void rt_event_wait(rt_event_t *event)
{
1c0040a0:	1141                	addi	sp,sp,-16
1c0040a2:	c606                	sw	ra,12(sp)
1c0040a4:	c422                	sw	s0,8(sp)
  return __builtin_pulp_read_then_spr_bit_clr(reg, val);
1c0040a6:	30047473          	csrrci	s0,mstatus,8
  int irq = rt_irq_disable();
__rt_wait_event(event);
1c0040aa:	37f1                	jal	1c004076 <__rt_wait_event>
  __builtin_pulp_spr_write(reg, val);
1c0040ac:	30041073          	csrw	mstatus,s0
  rt_irq_restore(irq);
}
1c0040b0:	40b2                	lw	ra,12(sp)
1c0040b2:	4422                	lw	s0,8(sp)
1c0040b4:	0141                	addi	sp,sp,16
1c0040b6:	8082                	ret

1c0040b8 <__rt_event_sched_init>:

void __rt_event_sched_init()
{
  __rt_first_free = NULL;
1c0040b8:	01800513          	li	a0,24
1c0040bc:	00052023          	sw	zero,0(a0)
  sched->first = NULL;
1c0040c0:	00052223          	sw	zero,4(a0)
  rt_event_sched_init(&__rt_sched);
  // Push one event ot the runtime scheduler as some runtime services need
  // one event.
  rt_event_alloc(&__rt_sched, 1);
1c0040c4:	4585                	li	a1,1
1c0040c6:	0511                	addi	a0,a0,4
1c0040c8:	bd9d                	j	1c003f3e <rt_event_alloc>

1c0040ca <rt_user_alloc_init>:
      flags++;
      if (flags == 3) flags = 0;
    }
    return NULL;
#else
    return rt_user_alloc_align(rt_alloc_l2(), size, align);
1c0040ca:	00758793          	addi	a5,a1,7
1c0040ce:	c407b7b3          	p.bclr	a5,a5,2,0
1c0040d2:	40b785b3          	sub	a1,a5,a1
1c0040d6:	c11c                	sw	a5,0(a0)
1c0040d8:	8e0d                	sub	a2,a2,a1
1c0040da:	00c05763          	blez	a2,1c0040e8 <rt_user_alloc_init+0x1e>
1c0040de:	c4063633          	p.bclr	a2,a2,2,0
1c0040e2:	c390                	sw	a2,0(a5)
1c0040e4:	0007a223          	sw	zero,4(a5)
1c0040e8:	8082                	ret

1c0040ea <rt_user_alloc>:
1c0040ea:	411c                	lw	a5,0(a0)
1c0040ec:	059d                	addi	a1,a1,7
1c0040ee:	c405b5b3          	p.bclr	a1,a1,2,0
1c0040f2:	4701                	li	a4,0
1c0040f4:	cb89                	beqz	a5,1c004106 <rt_user_alloc+0x1c>
1c0040f6:	4394                	lw	a3,0(a5)
1c0040f8:	43d0                	lw	a2,4(a5)
1c0040fa:	00b6c863          	blt	a3,a1,1c00410a <rt_user_alloc+0x20>
1c0040fe:	00b69b63          	bne	a3,a1,1c004114 <rt_user_alloc+0x2a>
1c004102:	c719                	beqz	a4,1c004110 <rt_user_alloc+0x26>
1c004104:	c350                	sw	a2,4(a4)
1c004106:	853e                	mv	a0,a5
1c004108:	8082                	ret
1c00410a:	873e                	mv	a4,a5
1c00410c:	87b2                	mv	a5,a2
1c00410e:	b7dd                	j	1c0040f4 <rt_user_alloc+0xa>
1c004110:	c110                	sw	a2,0(a0)
1c004112:	bfd5                	j	1c004106 <rt_user_alloc+0x1c>
1c004114:	00b78833          	add	a6,a5,a1
1c004118:	40b685b3          	sub	a1,a3,a1
1c00411c:	00b82023          	sw	a1,0(a6)
1c004120:	00c82223          	sw	a2,4(a6)
1c004124:	c701                	beqz	a4,1c00412c <rt_user_alloc+0x42>
1c004126:	01072223          	sw	a6,4(a4)
1c00412a:	bff1                	j	1c004106 <rt_user_alloc+0x1c>
1c00412c:	01052023          	sw	a6,0(a0)
1c004130:	bfd9                	j	1c004106 <rt_user_alloc+0x1c>

1c004132 <rt_user_free>:
1c004132:	411c                	lw	a5,0(a0)
1c004134:	061d                	addi	a2,a2,7
1c004136:	c4063633          	p.bclr	a2,a2,2,0
1c00413a:	4701                	li	a4,0
1c00413c:	c399                	beqz	a5,1c004142 <rt_user_free+0x10>
1c00413e:	02b7e763          	bltu	a5,a1,1c00416c <rt_user_free+0x3a>
1c004142:	00c586b3          	add	a3,a1,a2
1c004146:	02d79663          	bne	a5,a3,1c004172 <rt_user_free+0x40>
1c00414a:	4394                	lw	a3,0(a5)
1c00414c:	43dc                	lw	a5,4(a5)
1c00414e:	9636                	add	a2,a2,a3
1c004150:	c190                	sw	a2,0(a1)
1c004152:	c1dc                	sw	a5,4(a1)
1c004154:	c31d                	beqz	a4,1c00417a <rt_user_free+0x48>
1c004156:	4314                	lw	a3,0(a4)
1c004158:	00d707b3          	add	a5,a4,a3
1c00415c:	00f59d63          	bne	a1,a5,1c004176 <rt_user_free+0x44>
1c004160:	419c                	lw	a5,0(a1)
1c004162:	97b6                	add	a5,a5,a3
1c004164:	c31c                	sw	a5,0(a4)
1c004166:	41dc                	lw	a5,4(a1)
1c004168:	c35c                	sw	a5,4(a4)
1c00416a:	8082                	ret
1c00416c:	873e                	mv	a4,a5
1c00416e:	43dc                	lw	a5,4(a5)
1c004170:	b7f1                	j	1c00413c <rt_user_free+0xa>
1c004172:	c190                	sw	a2,0(a1)
1c004174:	bff9                	j	1c004152 <rt_user_free+0x20>
1c004176:	c34c                	sw	a1,4(a4)
1c004178:	8082                	ret
1c00417a:	c10c                	sw	a1,0(a0)
1c00417c:	8082                	ret

1c00417e <rt_alloc>:
1c00417e:	4785                	li	a5,1
1c004180:	00a7fa63          	bleu	a0,a5,1c004194 <rt_alloc+0x16>
1c004184:	1c0107b7          	lui	a5,0x1c010
1c004188:	1a47a783          	lw	a5,420(a5) # 1c0101a4 <__rt_alloc_l1>
1c00418c:	1579                	addi	a0,a0,-2
1c00418e:	050a                	slli	a0,a0,0x2
1c004190:	953e                	add	a0,a0,a5
1c004192:	bfa1                	j	1c0040ea <rt_user_alloc>
1c004194:	00153763          	p.bneimm	a0,1,1c0041a2 <rt_alloc+0x24>
1c004198:	1c010537          	lui	a0,0x1c010
1c00419c:	1ac50513          	addi	a0,a0,428 # 1c0101ac <__rt_alloc_fc_tcdm>
1c0041a0:	bfcd                	j	1c004192 <rt_alloc+0x14>
1c0041a2:	1c010537          	lui	a0,0x1c010
1c0041a6:	1a850513          	addi	a0,a0,424 # 1c0101a8 <__rt_alloc_l2>
1c0041aa:	b7e5                	j	1c004192 <rt_alloc+0x14>

1c0041ac <__rt_alloc_init_l1>:
#if defined(ARCHI_HAS_L1)
void __rt_alloc_init_l1(int cid)
{
  // TODO support multu cluster
  rt_trace(RT_TRACE_INIT, "Initializing L1 allocator (cluster: %d, base: 0x%8x, size: 0x%8x)\n", cid, (int)rt_l1_base(cid), rt_l1_size(cid));
  rt_user_alloc_init(&__rt_alloc_l1[cid], rt_l1_base(cid), rt_l1_size(cid));
1c0041ac:	1c0107b7          	lui	a5,0x1c010
1c0041b0:	1a47a703          	lw	a4,420(a5) # 1c0101a4 <__rt_alloc_l1>
1c0041b4:	100007b7          	lui	a5,0x10000
  return ((char *)&__l1_heap_start) + cid * ARCHI_CLUSTER_SIZE;
1c0041b8:	01651593          	slli	a1,a0,0x16
1c0041bc:	6641                	lui	a2,0x10
1c0041be:	050a                	slli	a0,a0,0x2
1c0041c0:	02078793          	addi	a5,a5,32 # 10000020 <__l1_end>
1c0041c4:	fe060613          	addi	a2,a2,-32 # ffe0 <__l1_heap_size>
1c0041c8:	95be                	add	a1,a1,a5
1c0041ca:	953a                	add	a0,a0,a4
1c0041cc:	bdfd                	j	1c0040ca <rt_user_alloc_init>

1c0041ce <__rt_alloc_init_l1_for_fc>:
1c0041ce:	100005b7          	lui	a1,0x10000
1c0041d2:	01651793          	slli	a5,a0,0x16
1c0041d6:	02058593          	addi	a1,a1,32 # 10000020 <__l1_end>
1c0041da:	00b78733          	add	a4,a5,a1

  int size = sizeof(rt_alloc_t)*rt_nb_cluster();
  __rt_alloc_l1 = (rt_alloc_t *)rt_l1_base(cid);

  rt_trace(RT_TRACE_INIT, "Initializing L1 allocator (cluster: %d, base: 0x%8x, size: 0x%8x)\n", cid, (int)rt_l1_base(cid)+size, rt_l1_size(cid)-size);
  rt_user_alloc_init(&__rt_alloc_l1[cid], rt_l1_base(cid)+size, rt_l1_size(cid)-size);
1c0041de:	050a                	slli	a0,a0,0x2
1c0041e0:	0791                	addi	a5,a5,4
1c0041e2:	6641                	lui	a2,0x10
  __rt_alloc_l1 = (rt_alloc_t *)rt_l1_base(cid);
1c0041e4:	1c0106b7          	lui	a3,0x1c010
  rt_user_alloc_init(&__rt_alloc_l1[cid], rt_l1_base(cid)+size, rt_l1_size(cid)-size);
1c0041e8:	fdc60613          	addi	a2,a2,-36 # ffdc <__rt_stack_size+0xf7dc>
1c0041ec:	95be                	add	a1,a1,a5
1c0041ee:	953a                	add	a0,a0,a4
  __rt_alloc_l1 = (rt_alloc_t *)rt_l1_base(cid);
1c0041f0:	1ae6a223          	sw	a4,420(a3) # 1c0101a4 <__rt_alloc_l1>
  rt_user_alloc_init(&__rt_alloc_l1[cid], rt_l1_base(cid)+size, rt_l1_size(cid)-size);
1c0041f4:	bdd9                	j	1c0040ca <rt_user_alloc_init>

1c0041f6 <__rt_allocs_init>:
static inline int rt_l2_size() { return ARCHI_L2_ADDR + ARCHI_L2_SIZE - (int)&__l2_end; }
1c0041f6:	1c0105b7          	lui	a1,0x1c010
1c0041fa:	20858793          	addi	a5,a1,520 # 1c010208 <__l2_end>
  __rt_alloc_l2[2].first_bank_addr = ARCHI_L2_SHARED_ADDR;
  __rt_alloc_account_free(&__rt_alloc_l2[2], rt_l2_shared_base() - sizeof(rt_alloc_chunk_t), rt_l2_shared_size() + sizeof(rt_alloc_chunk_t));
#endif
#else
  rt_trace(RT_TRACE_INIT, "Initializing L2 allocator (base: 0x%8x, size: 0x%8x)\n", (int)rt_l2_base(), rt_l2_size());
  rt_user_alloc_init(&__rt_alloc_l2[0], rt_l2_base(), rt_l2_size());
1c0041fe:	1c080637          	lui	a2,0x1c080
1c004202:	1c010537          	lui	a0,0x1c010
{
1c004206:	1141                	addi	sp,sp,-16
  rt_user_alloc_init(&__rt_alloc_l2[0], rt_l2_base(), rt_l2_size());
1c004208:	8e1d                	sub	a2,a2,a5
1c00420a:	20858593          	addi	a1,a1,520
1c00420e:	1a850513          	addi	a0,a0,424 # 1c0101a8 <__rt_alloc_l2>
{
1c004212:	c606                	sw	ra,12(sp)
1c004214:	c422                	sw	s0,8(sp)
  rt_user_alloc_init(&__rt_alloc_l2[0], rt_l2_base(), rt_l2_size());
1c004216:	3d55                	jal	1c0040ca <rt_user_alloc_init>
  return ARCHI_FC_TCDM_ADDR + ARCHI_FC_TCDM_SIZE - (int)&__fc_tcdm_end;
1c004218:	1b0015b7          	lui	a1,0x1b001
1c00421c:	3d058793          	addi	a5,a1,976 # 1b0013d0 <__fc_tcdm_end>
#endif
#endif

#if defined(ARCHI_HAS_FC_TCDM)
  rt_trace(RT_TRACE_INIT, "Initializing FC TCDM allocator (base: 0x%8x, size: 0x%8x)\n", (int)rt_fc_tcdm_base(), rt_fc_tcdm_size());
  rt_user_alloc_init(&__rt_alloc_fc_tcdm, rt_fc_tcdm_base(), rt_fc_tcdm_size());
1c004220:	1b004637          	lui	a2,0x1b004
1c004224:	1c010437          	lui	s0,0x1c010
1c004228:	8e1d                	sub	a2,a2,a5
1c00422a:	3d058593          	addi	a1,a1,976
1c00422e:	1ac40513          	addi	a0,s0,428 # 1c0101ac <__rt_alloc_fc_tcdm>
1c004232:	3d61                	jal	1c0040ca <rt_user_alloc_init>
  asm("csrr %0, 0x014" : "=r" (hart_id) : );
1c004234:	014027f3          	csrr	a5,uhartid
  return (hart_id >> 5) & 0x3f;
1c004238:	ca5797b3          	p.extractu	a5,a5,5,5
#endif

#if defined(ARCHI_HAS_L1)
  // If the FC is running on cluster 0, initialize now the L1 allocator
  // as it is used for FC data
  if (rt_cluster_id() == 0)
1c00423c:	e791                	bnez	a5,1c004248 <__rt_allocs_init+0x52>
  else
  {
    __rt_alloc_l1 = rt_alloc(__RT_ALLOC_FC_DATA, sizeof(rt_alloc_t)*rt_nb_cluster());
  }
#endif
}
1c00423e:	4422                	lw	s0,8(sp)
1c004240:	40b2                	lw	ra,12(sp)
    __rt_alloc_init_l1_for_fc(0);
1c004242:	4501                	li	a0,0
}
1c004244:	0141                	addi	sp,sp,16
    __rt_alloc_init_l1_for_fc(0);
1c004246:	b761                	j	1c0041ce <__rt_alloc_init_l1_for_fc>
  if (flags == RT_ALLOC_FC_DATA) return rt_user_alloc(rt_alloc_fc_tcdm(), size);
1c004248:	1ac40513          	addi	a0,s0,428
1c00424c:	4591                	li	a1,4
1c00424e:	3d71                	jal	1c0040ea <rt_user_alloc>
}
1c004250:	40b2                	lw	ra,12(sp)
1c004252:	4422                	lw	s0,8(sp)
    __rt_alloc_l1 = rt_alloc(__RT_ALLOC_FC_DATA, sizeof(rt_alloc_t)*rt_nb_cluster());
1c004254:	1c0107b7          	lui	a5,0x1c010
1c004258:	1aa7a223          	sw	a0,420(a5) # 1c0101a4 <__rt_alloc_l1>
}
1c00425c:	0141                	addi	sp,sp,16
1c00425e:	8082                	ret

1c004260 <__rt_time_poweroff>:
  rt_event_wait(event);
}

void pi_time_wait_us(int time_us)
{
  rt_time_wait_us(time_us);
1c004260:	002007b7          	lui	a5,0x200
1c004264:	40478793          	addi	a5,a5,1028 # 200404 <__L2+0x180404>
1c004268:	0087a783          	lw	a5,8(a5)
1c00426c:	1c010737          	lui	a4,0x1c010
1c004270:	fcf72023          	sw	a5,-64(a4) # 1c00ffc0 <timer_count>
1c004274:	4501                	li	a0,0
1c004276:	8082                	ret

1c004278 <__rt_time_poweron>:
1c004278:	1c0107b7          	lui	a5,0x1c010
1c00427c:	fc07a703          	lw	a4,-64(a5) # 1c00ffc0 <timer_count>
1c004280:	002007b7          	lui	a5,0x200
1c004284:	40478793          	addi	a5,a5,1028 # 200404 <__L2+0x180404>
1c004288:	00e7a423          	sw	a4,8(a5)
1c00428c:	4501                	li	a0,0
1c00428e:	8082                	ret

1c004290 <rt_event_push_delayed>:
1c004290:	30047373          	csrrci	t1,mstatus,8
1c004294:	1c010637          	lui	a2,0x1c010
1c004298:	1b062703          	lw	a4,432(a2) # 1c0101b0 <first_delayed>
1c00429c:	002007b7          	lui	a5,0x200
1c0042a0:	40478793          	addi	a5,a5,1028 # 200404 <__L2+0x180404>
1c0042a4:	0087a783          	lw	a5,8(a5)
1c0042a8:	46f9                	li	a3,30
1c0042aa:	0405e5b3          	p.max	a1,a1,zero
1c0042ae:	02d5c5b3          	div	a1,a1,a3
1c0042b2:	800006b7          	lui	a3,0x80000
1c0042b6:	fff6c693          	not	a3,a3
1c0042ba:	00d7f833          	and	a6,a5,a3
1c0042be:	0585                	addi	a1,a1,1
1c0042c0:	97ae                	add	a5,a5,a1
1c0042c2:	dd1c                	sw	a5,56(a0)
1c0042c4:	982e                	add	a6,a6,a1
1c0042c6:	4781                	li	a5,0
1c0042c8:	c719                	beqz	a4,1c0042d6 <rt_event_push_delayed+0x46>
1c0042ca:	03872883          	lw	a7,56(a4)
1c0042ce:	00d8f8b3          	and	a7,a7,a3
1c0042d2:	0108e863          	bltu	a7,a6,1c0042e2 <rt_event_push_delayed+0x52>
1c0042d6:	cb89                	beqz	a5,1c0042e8 <rt_event_push_delayed+0x58>
1c0042d8:	cfc8                	sw	a0,28(a5)
1c0042da:	cd58                	sw	a4,28(a0)
1c0042dc:	30031073          	csrw	mstatus,t1
1c0042e0:	8082                	ret
1c0042e2:	87ba                	mv	a5,a4
1c0042e4:	4f58                	lw	a4,28(a4)
1c0042e6:	b7cd                	j	1c0042c8 <rt_event_push_delayed+0x38>
1c0042e8:	002007b7          	lui	a5,0x200
1c0042ec:	40478793          	addi	a5,a5,1028 # 200404 <__L2+0x180404>
1c0042f0:	1aa62823          	sw	a0,432(a2)
1c0042f4:	cd58                	sw	a4,28(a0)
1c0042f6:	0087a703          	lw	a4,8(a5)
1c0042fa:	95ba                	add	a1,a1,a4
1c0042fc:	00b7a823          	sw	a1,16(a5)
1c004300:	08500713          	li	a4,133
1c004304:	00e7a023          	sw	a4,0(a5)
1c004308:	bfd1                	j	1c0042dc <rt_event_push_delayed+0x4c>

1c00430a <rt_time_wait_us>:
1c00430a:	1101                	addi	sp,sp,-32
1c00430c:	85aa                	mv	a1,a0
1c00430e:	4501                	li	a0,0
1c004310:	ce06                	sw	ra,28(sp)
1c004312:	cc22                	sw	s0,24(sp)
1c004314:	c62e                	sw	a1,12(sp)
1c004316:	395d                	jal	1c003fcc <rt_event_get_blocking>
1c004318:	45b2                	lw	a1,12(sp)
1c00431a:	842a                	mv	s0,a0
1c00431c:	3f95                	jal	1c004290 <rt_event_push_delayed>
1c00431e:	8522                	mv	a0,s0
1c004320:	4462                	lw	s0,24(sp)
1c004322:	40f2                	lw	ra,28(sp)
1c004324:	6105                	addi	sp,sp,32
1c004326:	bbad                	j	1c0040a0 <rt_event_wait>

1c004328 <__rt_time_init>:

RT_FC_BOOT_CODE void __attribute__((constructor)) __rt_time_init()
{
  int err = 0;

  first_delayed = NULL;
1c004328:	1c0107b7          	lui	a5,0x1c010
1c00432c:	1a07a823          	sw	zero,432(a5) # 1c0101b0 <first_delayed>
//

#ifndef LANGUAGE_ASSEMBLY

static inline uint32_t timer_cfg_lo_get(uint32_t base) { return ARCHI_READ(base, TIMER_CFG_LO_OFFSET); }
static inline void timer_cfg_lo_set(uint32_t base, uint32_t value) { ARCHI_WRITE(base, TIMER_CFG_LO_OFFSET, value); }
1c004330:	002007b7          	lui	a5,0x200
{
1c004334:	1141                	addi	sp,sp,-16
1c004336:	08300713          	li	a4,131
1c00433a:	40478793          	addi	a5,a5,1028 # 200404 <__L2+0x180404>
1c00433e:	c606                	sw	ra,12(sp)
1c004340:	c422                	sw	s0,8(sp)
1c004342:	00e7a023          	sw	a4,0(a5)
    TIMER_CFG_LO_RESET(1)  |
    TIMER_CFG_LO_CCFG(1)
  );

#if defined(ARCHI_HAS_FC)
  rt_irq_set_handler(ARCHI_FC_EVT_TIMER0_HI, __rt_timer_handler);
1c004346:	1c0045b7          	lui	a1,0x1c004
1c00434a:	3b458593          	addi	a1,a1,948 # 1c0043b4 <__rt_timer_handler>
1c00434e:	452d                	li	a0,11
1c004350:	e68ff0ef          	jal	ra,1c0039b8 <rt_irq_set_handler>
  ARCHI_WRITE(base, EU_CORE_MASK_IRQ_OR, irqMask);
1c004354:	6785                	lui	a5,0x1
1c004356:	80078793          	addi	a5,a5,-2048 # 800 <__rt_stack_size>
1c00435a:	00204737          	lui	a4,0x204
1c00435e:	00f72a23          	sw	a5,20(a4) # 204014 <__L2+0x184014>
  ARCHI_WRITE(ARCHI_EU_DEMUX_ADDR, EU_CORE_MASK_OR, evtMask);
1c004362:	00f72423          	sw	a5,8(a4)
#else
  rt_irq_set_handler(ARCHI_EVT_TIMER0_HI, __rt_timer_handler);
  rt_irq_mask_set(1<<ARCHI_EVT_TIMER0_HI);
#endif

  err |= __rt_cbsys_add(RT_CBSYS_POWEROFF, __rt_time_poweroff, NULL);
1c004366:	1c0045b7          	lui	a1,0x1c004
1c00436a:	4601                	li	a2,0
1c00436c:	26058593          	addi	a1,a1,608 # 1c004260 <__rt_time_poweroff>
1c004370:	4509                	li	a0,2
1c004372:	fb2ff0ef          	jal	ra,1c003b24 <__rt_cbsys_add>
  err |= __rt_cbsys_add(RT_CBSYS_POWERON, __rt_time_poweron, NULL);
1c004376:	1c0045b7          	lui	a1,0x1c004
  err |= __rt_cbsys_add(RT_CBSYS_POWEROFF, __rt_time_poweroff, NULL);
1c00437a:	842a                	mv	s0,a0
  err |= __rt_cbsys_add(RT_CBSYS_POWERON, __rt_time_poweron, NULL);
1c00437c:	4601                	li	a2,0
1c00437e:	27858593          	addi	a1,a1,632 # 1c004278 <__rt_time_poweron>
1c004382:	450d                	li	a0,3
1c004384:	fa0ff0ef          	jal	ra,1c003b24 <__rt_cbsys_add>
1c004388:	8d41                	or	a0,a0,s0

  if (err) rt_fatal("Unable to initialize time driver\n");
1c00438a:	c10d                	beqz	a0,1c0043ac <__rt_time_init+0x84>
  asm("csrr %0, 0x014" : "=r" (hart_id) : );
1c00438c:	01402673          	csrr	a2,uhartid
1c004390:	1c007537          	lui	a0,0x1c007
  return (hart_id >> 5) & 0x3f;
1c004394:	40565593          	srai	a1,a2,0x5
1c004398:	f265b5b3          	p.bclr	a1,a1,25,6
1c00439c:	f4563633          	p.bclr	a2,a2,26,5
1c0043a0:	38450513          	addi	a0,a0,900 # 1c007384 <sbox+0x1b4>
1c0043a4:	26b010ef          	jal	ra,1c005e0e <printf>
1c0043a8:	1d1010ef          	jal	ra,1c005d78 <abort>
}
1c0043ac:	40b2                	lw	ra,12(sp)
1c0043ae:	4422                	lw	s0,8(sp)
1c0043b0:	0141                	addi	sp,sp,16
1c0043b2:	8082                	ret

1c0043b4 <__rt_timer_handler>:
#if defined(__LLVM__)
void __rt_timer_handler()
#else
void __attribute__((interrupt)) __rt_timer_handler()
#endif
{
1c0043b4:	7179                	addi	sp,sp,-48
1c0043b6:	d032                	sw	a2,32(sp)
  rt_event_t *event = first_delayed;
1c0043b8:	1c010637          	lui	a2,0x1c010
{
1c0043bc:	ca3e                	sw	a5,20(sp)
  rt_event_t *event = first_delayed;
1c0043be:	1b062783          	lw	a5,432(a2) # 1c0101b0 <first_delayed>
{
1c0043c2:	ce36                	sw	a3,28(sp)

static inline uint32_t timer_cfg_hi_get(uint32_t base) { return ARCHI_READ(base, TIMER_CFG_HI_OFFSET); }
static inline void timer_cfg_hi_set(uint32_t base, uint32_t value) { ARCHI_WRITE(base, TIMER_CFG_HI_OFFSET, value); }

static inline uint32_t timer_cnt_lo_get(uint32_t base) { return ARCHI_READ(base, TIMER_CNT_LO_OFFSET); }
1c0043c4:	002006b7          	lui	a3,0x200
1c0043c8:	40468693          	addi	a3,a3,1028 # 200404 <__L2+0x180404>
1c0043cc:	d61a                	sw	t1,44(sp)
1c0043ce:	d42a                	sw	a0,40(sp)
1c0043d0:	d22e                	sw	a1,36(sp)
1c0043d2:	cc3a                	sw	a4,24(sp)
1c0043d4:	c842                	sw	a6,16(sp)
1c0043d6:	c646                	sw	a7,12(sp)
1c0043d8:	c472                	sw	t3,8(sp)
1c0043da:	c276                	sw	t4,4(sp)
1c0043dc:	0086a683          	lw	a3,8(a3)
1c0043e0:	01c00593          	li	a1,28
1c0043e4:	01c02503          	lw	a0,28(zero) # 1c <_l1_preload_size>
1c0043e8:	41cc                	lw	a1,4(a1)

  uint32_t current_time = timer_count_get(timer_base_fc(0, 1));

  // First dequeue and push to their scheduler all events with the same number of
  // ticks as they were waiting for the same time.
  while (event && (current_time - event->implem.time) < 0x7fffffff)
1c0043ea:	80000337          	lui	t1,0x80000
1c0043ee:	4801                	li	a6,0
1c0043f0:	4881                	li	a7,0
1c0043f2:	01c00e93          	li	t4,28
1c0043f6:	ffe34313          	xori	t1,t1,-2
1c0043fa:	e7ad                	bnez	a5,1c004464 <__rt_timer_handler+0xb0>
1c0043fc:	00088463          	beqz	a7,1c004404 <__rt_timer_handler+0x50>
1c004400:	00a02e23          	sw	a0,28(zero) # 1c <_l1_preload_size>
1c004404:	00080463          	beqz	a6,1c00440c <__rt_timer_handler+0x58>
1c004408:	00bea223          	sw	a1,4(t4)
static inline void timer_cfg_lo_set(uint32_t base, uint32_t value) { ARCHI_WRITE(base, TIMER_CFG_LO_OFFSET, value); }
1c00440c:	002007b7          	lui	a5,0x200
1c004410:	08100713          	li	a4,129
1c004414:	40478793          	addi	a5,a5,1028 # 200404 <__L2+0x180404>
    event = next;
  }

  // Update the wait list with the next waiting event which has a different number
  // of ticks
  first_delayed = event;
1c004418:	1a062823          	sw	zero,432(a2)
1c00441c:	00e7a023          	sw	a4,0(a5)
  ARCHI_WRITE(ARCHI_EU_DEMUX_ADDR, EU_CORE_BUFFER_CLEAR, evtMask);
1c004420:	6785                	lui	a5,0x1
1c004422:	80078793          	addi	a5,a5,-2048 # 800 <__rt_stack_size>
1c004426:	00204737          	lui	a4,0x204
1c00442a:	02f72423          	sw	a5,40(a4) # 204028 <__L2+0x184028>
    rt_irq_clr(1 << ARCHI_FC_EVT_TIMER0_HI);
#else
    rt_irq_clr(1 << ARCHI_EVT_TIMER0_HI);
#endif
  }
}
1c00442e:	5332                	lw	t1,44(sp)
1c004430:	5522                	lw	a0,40(sp)
1c004432:	5592                	lw	a1,36(sp)
1c004434:	5602                	lw	a2,32(sp)
1c004436:	46f2                	lw	a3,28(sp)
1c004438:	4762                	lw	a4,24(sp)
1c00443a:	47d2                	lw	a5,20(sp)
1c00443c:	4842                	lw	a6,16(sp)
1c00443e:	48b2                	lw	a7,12(sp)
1c004440:	4e22                	lw	t3,8(sp)
1c004442:	4e92                	lw	t4,4(sp)
1c004444:	6145                	addi	sp,sp,48
1c004446:	30200073          	mret
  rt_irq_restore(irq);
}

static inline __attribute__((always_inline)) void __rt_enqueue_event_to_sched(rt_event_sched_t *sched, rt_event_t *event)
{
  event->next = NULL;
1c00444a:	0007a023          	sw	zero,0(a5)
    rt_event_t *next = event->implem.next;
1c00444e:	01c7ae03          	lw	t3,28(a5)
  if (sched->first == NULL) {
1c004452:	c511                	beqz	a0,1c00445e <__rt_timer_handler+0xaa>
    sched->first = event;
  } else {
    sched->last->next = event;
1c004454:	c19c                	sw	a5,0(a1)
    event = next;
1c004456:	85be                	mv	a1,a5
1c004458:	4805                	li	a6,1
1c00445a:	87f2                	mv	a5,t3
1c00445c:	bf79                	j	1c0043fa <__rt_timer_handler+0x46>
  if (sched->first == NULL) {
1c00445e:	853e                	mv	a0,a5
1c004460:	4885                	li	a7,1
1c004462:	bfd5                	j	1c004456 <__rt_timer_handler+0xa2>
  while (event && (current_time - event->implem.time) < 0x7fffffff)
1c004464:	0387ae03          	lw	t3,56(a5)
1c004468:	41c68e33          	sub	t3,a3,t3
1c00446c:	fdc37fe3          	bleu	t3,t1,1c00444a <__rt_timer_handler+0x96>
1c004470:	00088463          	beqz	a7,1c004478 <__rt_timer_handler+0xc4>
1c004474:	00a02e23          	sw	a0,28(zero) # 1c <_l1_preload_size>
1c004478:	00080463          	beqz	a6,1c004480 <__rt_timer_handler+0xcc>
1c00447c:	00bea223          	sw	a1,4(t4)
static inline uint32_t timer_cnt_lo_get(uint32_t base) { return ARCHI_READ(base, TIMER_CNT_LO_OFFSET); }
1c004480:	00200737          	lui	a4,0x200
1c004484:	40470713          	addi	a4,a4,1028 # 200404 <__L2+0x180404>
  first_delayed = event;
1c004488:	1af62823          	sw	a5,432(a2)
1c00448c:	00872603          	lw	a2,8(a4)
      first_delayed->implem.time - current_time
1c004490:	5f9c                	lw	a5,56(a5)
1c004492:	40d786b3          	sub	a3,a5,a3
1c004496:	96b2                	add	a3,a3,a2

static inline uint32_t timer_cnt_hi_get(uint32_t base) { return ARCHI_READ(base, TIMER_CNT_HI_OFFSET); }
static inline void timer_cnt_hi_set(uint32_t base, uint32_t value) { ARCHI_WRITE(base, TIMER_CNT_HI_OFFSET, value); }

static inline uint32_t timer_cmp_lo_get(uint32_t base) { return ARCHI_READ(base, TIMER_CMP_LO_OFFSET); }
static inline void timer_cmp_lo_set(uint32_t base, uint32_t value) { ARCHI_WRITE(base, TIMER_CMP_LO_OFFSET, value); }
1c004498:	00d72823          	sw	a3,16(a4)
static inline void timer_cfg_lo_set(uint32_t base, uint32_t value) { ARCHI_WRITE(base, TIMER_CFG_LO_OFFSET, value); }
1c00449c:	08500793          	li	a5,133
1c0044a0:	00f72023          	sw	a5,0(a4)
}
1c0044a4:	b769                	j	1c00442e <__rt_timer_handler+0x7a>

1c0044a6 <rt_periph_copy>:
  }

  __rt_socevents_status[index] &= ~(1<<event);

  rt_irq_restore(irq);
}
1c0044a6:	7179                	addi	sp,sp,-48
1c0044a8:	d422                	sw	s0,40(sp)
1c0044aa:	842a                	mv	s0,a0
1c0044ac:	d606                	sw	ra,44(sp)
1c0044ae:	d226                	sw	s1,36(sp)
1c0044b0:	d04a                	sw	s2,32(sp)
1c0044b2:	30047973          	csrrci	s2,mstatus,8
1c0044b6:	4015d493          	srai	s1,a1,0x1
1c0044ba:	1a102537          	lui	a0,0x1a102
1c0044be:	049e                	slli	s1,s1,0x7
1c0044c0:	94aa                	add	s1,s1,a0
1c0044c2:	00459513          	slli	a0,a1,0x4
1c0044c6:	8941                	andi	a0,a0,16
1c0044c8:	94aa                	add	s1,s1,a0
1c0044ca:	853e                	mv	a0,a5
1c0044cc:	ef89                	bnez	a5,1c0044e6 <rt_periph_copy+0x40>
1c0044ce:	ce2e                	sw	a1,28(sp)
1c0044d0:	cc32                	sw	a2,24(sp)
1c0044d2:	ca36                	sw	a3,20(sp)
1c0044d4:	c83a                	sw	a4,16(sp)
1c0044d6:	c63e                	sw	a5,12(sp)
1c0044d8:	a4fff0ef          	jal	ra,1c003f26 <__rt_wait_event_prepare_blocking>
1c0044dc:	47b2                	lw	a5,12(sp)
1c0044de:	4742                	lw	a4,16(sp)
1c0044e0:	46d2                	lw	a3,20(sp)
1c0044e2:	4662                	lw	a2,24(sp)
1c0044e4:	45f2                	lw	a1,28(sp)
1c0044e6:	e419                	bnez	s0,1c0044f4 <rt_periph_copy+0x4e>
1c0044e8:	03850413          	addi	s0,a0,56 # 1a102038 <__l1_end+0xa102018>
1c0044ec:	04052223          	sw	zero,68(a0)
1c0044f0:	04052a23          	sw	zero,84(a0)
1c0044f4:	00c42803          	lw	a6,12(s0)
1c0044f8:	c054                	sw	a3,4(s0)
1c0044fa:	cc08                	sw	a0,24(s0)
1c0044fc:	f6483833          	p.bclr	a6,a6,27,4
1c004500:	4891                	li	a7,4
1c004502:	c0474733          	p.bset	a4,a4,0,4
1c004506:	0908e163          	bltu	a7,a6,1c004588 <rt_periph_copy+0xe2>
1c00450a:	03000893          	li	a7,48
1c00450e:	0596                	slli	a1,a1,0x5
1c004510:	98ae                	add	a7,a7,a1
1c004512:	0008a303          	lw	t1,0(a7)
1c004516:	00042a23          	sw	zero,20(s0)
1c00451a:	03000813          	li	a6,48
1c00451e:	02031b63          	bnez	t1,1c004554 <rt_periph_copy+0xae>
1c004522:	0088a023          	sw	s0,0(a7)
1c004526:	00b808b3          	add	a7,a6,a1
1c00452a:	0088a303          	lw	t1,8(a7)
1c00452e:	0088a223          	sw	s0,4(a7)
1c004532:	02031663          	bnez	t1,1c00455e <rt_periph_copy+0xb8>
1c004536:	00848893          	addi	a7,s1,8
1c00453a:	0008a883          	lw	a7,0(a7)
1c00453e:	0208f893          	andi	a7,a7,32
1c004542:	00089e63          	bnez	a7,1c00455e <rt_periph_copy+0xb8>
1c004546:	00c4a023          	sw	a2,0(s1)
1c00454a:	00d4a223          	sw	a3,4(s1)
1c00454e:	00e4a423          	sw	a4,8(s1)
1c004552:	a005                	j	1c004572 <rt_periph_copy+0xcc>
1c004554:	0048a883          	lw	a7,4(a7)
1c004558:	0088aa23          	sw	s0,20(a7)
1c00455c:	b7e9                	j	1c004526 <rt_periph_copy+0x80>
1c00455e:	00042823          	sw	zero,16(s0)
1c004562:	c010                	sw	a2,0(s0)
1c004564:	c054                	sw	a3,4(s0)
1c004566:	c418                	sw	a4,8(s0)
1c004568:	00031563          	bnez	t1,1c004572 <rt_periph_copy+0xcc>
1c00456c:	982e                	add	a6,a6,a1
1c00456e:	00882423          	sw	s0,8(a6)
1c004572:	e399                	bnez	a5,1c004578 <rt_periph_copy+0xd2>
1c004574:	b03ff0ef          	jal	ra,1c004076 <__rt_wait_event>
1c004578:	30091073          	csrw	mstatus,s2
1c00457c:	50b2                	lw	ra,44(sp)
1c00457e:	5422                	lw	s0,40(sp)
1c004580:	5492                	lw	s1,36(sp)
1c004582:	5902                	lw	s2,32(sp)
1c004584:	6145                	addi	sp,sp,48
1c004586:	8082                	ret
1c004588:	fe6835e3          	p.bneimm	a6,6,1c004572 <rt_periph_copy+0xcc>
1c00458c:	03000893          	li	a7,48
1c004590:	0596                	slli	a1,a1,0x5
1c004592:	98ae                	add	a7,a7,a1
1c004594:	0008a303          	lw	t1,0(a7)
1c004598:	00042a23          	sw	zero,20(s0)
1c00459c:	03000813          	li	a6,48
1c0045a0:	00031f63          	bnez	t1,1c0045be <rt_periph_copy+0x118>
1c0045a4:	0088a023          	sw	s0,0(a7)
1c0045a8:	95c2                	add	a1,a1,a6
1c0045aa:	c1c0                	sw	s0,4(a1)
1c0045ac:	00031e63          	bnez	t1,1c0045c8 <rt_periph_copy+0x122>
1c0045b0:	02442803          	lw	a6,36(s0)
1c0045b4:	1a1025b7          	lui	a1,0x1a102
1c0045b8:	1b05a023          	sw	a6,416(a1) # 1a1021a0 <__l1_end+0xa102180>
1c0045bc:	b769                	j	1c004546 <rt_periph_copy+0xa0>
1c0045be:	0048a883          	lw	a7,4(a7)
1c0045c2:	0088aa23          	sw	s0,20(a7)
1c0045c6:	b7cd                	j	1c0045a8 <rt_periph_copy+0x102>
1c0045c8:	c418                	sw	a4,8(s0)
1c0045ca:	4598                	lw	a4,8(a1)
1c0045cc:	c010                	sw	a2,0(s0)
1c0045ce:	c054                	sw	a3,4(s0)
1c0045d0:	00042823          	sw	zero,16(s0)
1c0045d4:	ff59                	bnez	a4,1c004572 <rt_periph_copy+0xcc>
1c0045d6:	c580                	sw	s0,8(a1)
1c0045d8:	bf69                	j	1c004572 <rt_periph_copy+0xcc>

1c0045da <__rt_periph_wait_event>:
1c0045da:	30047673          	csrrci	a2,mstatus,8
1c0045de:	477d                	li	a4,31
1c0045e0:	4781                	li	a5,0
1c0045e2:	00a75463          	ble	a0,a4,1c0045ea <__rt_periph_wait_event+0x10>
1c0045e6:	1501                	addi	a0,a0,-32
1c0045e8:	4785                	li	a5,1
1c0045ea:	00279713          	slli	a4,a5,0x2
1c0045ee:	4685                	li	a3,1
1c0045f0:	03000793          	li	a5,48
1c0045f4:	00a696b3          	sll	a3,a3,a0
1c0045f8:	97ba                	add	a5,a5,a4
1c0045fa:	00204837          	lui	a6,0x204
1c0045fe:	2807a703          	lw	a4,640(a5)
1c004602:	8f75                	and	a4,a4,a3
1c004604:	cf19                	beqz	a4,1c004622 <__rt_periph_wait_event+0x48>
1c004606:	c999                	beqz	a1,1c00461c <__rt_periph_wait_event+0x42>
1c004608:	2807a683          	lw	a3,640(a5)
1c00460c:	4705                	li	a4,1
1c00460e:	00a71533          	sll	a0,a4,a0
1c004612:	fff54513          	not	a0,a0
1c004616:	8d75                	and	a0,a0,a3
1c004618:	28a7a023          	sw	a0,640(a5)
1c00461c:	30061073          	csrw	mstatus,a2
1c004620:	8082                	ret
1c004622:	03886703          	p.elw	a4,56(a6) # 204038 <__L2+0x184038>
1c004626:	30046773          	csrrsi	a4,mstatus,8
1c00462a:	30047773          	csrrci	a4,mstatus,8
1c00462e:	bfc1                	j	1c0045fe <__rt_periph_wait_event+0x24>

1c004630 <__rt_periph_init>:
  for (unsigned int i=0; i<ARCHI_NB_PERIPH*2; i++) {
    rt_periph_channel_t *channel = &periph_channels[i];
    channel->first = NULL;
    channel->firstToEnqueue = NULL;
    channel->base = hal_udma_channel_base(i);
    channel->callback = udma_event_handler;
1c004630:	1c000537          	lui	a0,0x1c000
1c004634:	03000693          	li	a3,48
  for (unsigned int i=0; i<ARCHI_NB_PERIPH*2; i++) {
1c004638:	4601                	li	a2,0
1c00463a:	03000713          	li	a4,48
static inline unsigned int hal_udma_periph_base(int id) {
  return ARCHI_SOC_PERIPHERALS_ADDR + ARCHI_UDMA_OFFSET + UDMA_PERIPH_OFFSET(id);
}

static inline __attribute__((always_inline)) unsigned int hal_udma_channel_base(int id) {
  return ARCHI_SOC_PERIPHERALS_ADDR + ARCHI_UDMA_OFFSET + UDMA_PERIPH_OFFSET(id>>1) + UDMA_CHANNEL_OFFSET(id&1);
1c00463e:	1a1028b7          	lui	a7,0x1a102
    channel->callback = udma_event_handler;
1c004642:	2b450513          	addi	a0,a0,692 # 1c0002b4 <udma_event_handler>
1c004646:	014950fb          	lp.setupi	x1,20,1c00466a <__rt_periph_init+0x3a>
1c00464a:	40165793          	srai	a5,a2,0x1
1c00464e:	00461813          	slli	a6,a2,0x4
1c004652:	079e                	slli	a5,a5,0x7
1c004654:	97c6                	add	a5,a5,a7
1c004656:	01087813          	andi	a6,a6,16
1c00465a:	97c2                	add	a5,a5,a6
    channel->first = NULL;
1c00465c:	0006a023          	sw	zero,0(a3)
    channel->firstToEnqueue = NULL;
1c004660:	0006a423          	sw	zero,8(a3)
    channel->base = hal_udma_channel_base(i);
1c004664:	c6dc                	sw	a5,12(a3)
    channel->callback = udma_event_handler;
1c004666:	cec8                	sw	a0,28(a3)
  for (unsigned int i=0; i<ARCHI_NB_PERIPH*2; i++) {
1c004668:	0605                	addi	a2,a2,1
1c00466a:	02068693          	addi	a3,a3,32
  }
  
  for (int i=0; i<ARCHI_SOC_EVENT_UDMA_NB_EXTRA_EVT; i++)
  {
    __rt_udma_extra_callback[i] = __rt_soc_evt_no_udma;
1c00466e:	1c0006b7          	lui	a3,0x1c000
1c004672:	28870613          	addi	a2,a4,648
1c004676:	45e68693          	addi	a3,a3,1118 # 1c00045e <__rt_soc_evt_no_udma>
1c00467a:	00a250fb          	lp.setupi	x1,10,1c004682 <__rt_periph_init+0x52>
1c00467e:	00d6222b          	p.sw	a3,4(a2!)
1c004682:	0001                	nop
  }

  __rt_socevents_status[0] = 0;
1c004684:	28072023          	sw	zero,640(a4)
  __rt_socevents_status[1] = 0;
1c004688:	28072223          	sw	zero,644(a4)
}
1c00468c:	8082                	ret

1c00468e <rt_freq_set_and_get>:
void rt_freq_wait_convergence(int fll)
{
}

int rt_freq_set_and_get(rt_freq_domain_e domain, unsigned int freq, unsigned int *out_freq)
{
1c00468e:	1141                	addi	sp,sp,-16
1c004690:	c226                	sw	s1,4(sp)
1c004692:	84ae                	mv	s1,a1
1c004694:	c606                	sw	ra,12(sp)
1c004696:	c422                	sw	s0,8(sp)
1c004698:	c04a                	sw	s2,0(sp)
  return __builtin_pulp_read_then_spr_bit_clr(reg, val);
1c00469a:	30047973          	csrrci	s2,mstatus,8
  __asm__ __volatile__ ("" : : : "memory");
1c00469e:	1c010437          	lui	s0,0x1c010
  int irq = rt_irq_disable();
  int err = 0;

  rt_trace(RT_TRACE_FREQ, "Setting domain frequency (domain: %d, freq: %d)\n", domain, freq);

  if (domain == RT_FREQ_DOMAIN_CL)
1c0046a2:	00153f63          	p.bneimm	a0,1,1c0046c0 <rt_freq_set_and_get+0x32>
  {
    // On cluster side, this is straight forward as the fll is not shared
    __rt_fll_set_freq(__RT_FLL_CL, freq);
    __rt_freq_domains[RT_FREQ_DOMAIN_CL] = freq;
1c0046a6:	1b440413          	addi	s0,s0,436 # 1c0101b4 <__rt_freq_domains>
    __rt_fll_set_freq(__RT_FLL_CL, freq);
1c0046aa:	214d                	jal	1c004b4c <__rt_fll_set_freq>
    __rt_freq_domains[RT_FREQ_DOMAIN_CL] = freq;
1c0046ac:	c044                	sw	s1,4(s0)
  __builtin_pulp_spr_write(reg, val);
1c0046ae:	30091073          	csrw	mstatus,s2
  }

  rt_irq_restore(irq);

  return err;
}
1c0046b2:	40b2                	lw	ra,12(sp)
1c0046b4:	4422                	lw	s0,8(sp)
1c0046b6:	4492                	lw	s1,4(sp)
1c0046b8:	4902                	lw	s2,0(sp)
1c0046ba:	4501                	li	a0,0
1c0046bc:	0141                	addi	sp,sp,16
1c0046be:	8082                	ret
    __rt_cbsys_exec(RT_CBSYS_PERIPH_SETFREQ_BEFORE);
1c0046c0:	4511                	li	a0,4
1c0046c2:	ca0ff0ef          	jal	ra,1c003b62 <__rt_cbsys_exec>
    __rt_fll_set_freq(0, freq);
1c0046c6:	85a6                	mv	a1,s1
1c0046c8:	4501                	li	a0,0
1c0046ca:	2149                	jal	1c004b4c <__rt_fll_set_freq>
    __rt_cbsys_exec(RT_CBSYS_PERIPH_SETFREQ_AFTER);
1c0046cc:	4515                	li	a0,5
    __rt_freq_domains[RT_FREQ_DOMAIN_FC] = freq;
1c0046ce:	1a942a23          	sw	s1,436(s0)
    __rt_cbsys_exec(RT_CBSYS_PERIPH_SETFREQ_AFTER);
1c0046d2:	c90ff0ef          	jal	ra,1c003b62 <__rt_cbsys_exec>
1c0046d6:	bfe1                	j	1c0046ae <rt_freq_set_and_get+0x20>

1c0046d8 <__rt_freq_init>:

void __rt_freq_init()
{
1c0046d8:	1141                	addi	sp,sp,-16
1c0046da:	c422                	sw	s0,8(sp)
1c0046dc:	c606                	sw	ra,12(sp)

  __rt_flls_constructor();
1c0046de:	21b5                	jal	1c004b4a <__rt_flls_constructor>
  return __rt_platform;
1c0046e0:	1c0107b7          	lui	a5,0x1c010

  // On all chips only FLL 0 is initialized here as it is shared between periph and soc
  // while FLL 1 is used for cluster only and thus is initialized when the cluster is set on.
  if (rt_platform() != ARCHI_PLATFORM_FPGA)
1c0046e4:	d287a783          	lw	a5,-728(a5) # 1c00fd28 <__rt_platform>
1c0046e8:	1c010437          	lui	s0,0x1c010
1c0046ec:	0017ae63          	p.beqimm	a5,1,1c004708 <__rt_freq_init+0x30>
  {
    __rt_freq_domains[RT_FREQ_DOMAIN_FC] = __rt_fll_init(__RT_FLL_FC);
1c0046f0:	4501                	li	a0,0
1c0046f2:	2191                	jal	1c004b36 <__rt_fll_init>
1c0046f4:	1aa42a23          	sw	a0,436(s0) # 1c0101b4 <__rt_freq_domains>
  }
  else
  {
    __rt_freq_domains[RT_FREQ_DOMAIN_FC] = 40000000;
  }
  __rt_freq_domains[RT_FREQ_DOMAIN_CL] = 0;
1c0046f8:	1b440413          	addi	s0,s0,436
1c0046fc:	00042223          	sw	zero,4(s0)

}
1c004700:	40b2                	lw	ra,12(sp)
1c004702:	4422                	lw	s0,8(sp)
1c004704:	0141                	addi	sp,sp,16
1c004706:	8082                	ret
    __rt_freq_domains[RT_FREQ_DOMAIN_FC] = 40000000;
1c004708:	026267b7          	lui	a5,0x2626
1c00470c:	a0078793          	addi	a5,a5,-1536 # 2625a00 <__L2+0x25a5a00>
1c004710:	1af42a23          	sw	a5,436(s0)
1c004714:	b7d5                	j	1c0046f8 <__rt_freq_init+0x20>

1c004716 <SetFllMultDivFactors>:
  if (PMURetentionState.Fields.BootType != COLD_BOOT && PMURetentionState.Fields.ClusterWakeUpState) {
          // ChangePowerSystemState(POWER_SYSTEM_STATE(PMURetentionState.Fields.WakeupState, PMURetentionState.Fields.ClusterWakeUpState), 0);
    __rt_pmu_cluster_power_up(NULL, NULL);
    if (PMU_ClusterIsRunning() && PMURetentionState.Fields.FllClusterRetention) InitOneFll(FLL_CLUSTER, 1);
  }
}
1c004716:	100517b3          	p.fl1	a5,a0
1c00471a:	4769                	li	a4,26
1c00471c:	8f1d                	sub	a4,a4,a5
1c00471e:	4785                	li	a5,1
1c004720:	04f76733          	p.max	a4,a4,a5
1c004724:	47a1                	li	a5,8
1c004726:	04f74733          	p.min	a4,a4,a5
1c00472a:	fff70693          	addi	a3,a4,-1
1c00472e:	00f55793          	srli	a5,a0,0xf
1c004732:	00d797b3          	sll	a5,a5,a3
1c004736:	c19c                	sw	a5,0(a1)
1c004738:	07be                	slli	a5,a5,0xf
1c00473a:	c218                	sw	a4,0(a2)
1c00473c:	00d7d533          	srl	a0,a5,a3
1c004740:	8082                	ret

1c004742 <soc_eu_fcEventMask_setEvent>:
1c004742:	47fd                	li	a5,31
1c004744:	4721                	li	a4,8
1c004746:	00f50463          	beq	a0,a5,1c00474e <soc_eu_fcEventMask_setEvent+0xc>
1c00474a:	1501                	addi	a0,a0,-32
1c00474c:	4711                	li	a4,4
1c00474e:	1a1066b7          	lui	a3,0x1a106
1c004752:	20e6f603          	p.lw	a2,a4(a3)
1c004756:	4785                	li	a5,1
1c004758:	00a79533          	sll	a0,a5,a0
1c00475c:	fff54513          	not	a0,a0
1c004760:	8d71                	and	a0,a0,a2
1c004762:	00a6e723          	p.sw	a0,a4(a3)
1c004766:	8082                	ret

1c004768 <__rt_pmu_cluster_power_down>:
1c004768:	1c0107b7          	lui	a5,0x1c010
1c00476c:	d287a783          	lw	a5,-728(a5) # 1c00fd28 <__rt_platform>
1c004770:	0817a163          	p.beqimm	a5,1,1c0047f2 <__rt_pmu_cluster_power_down+0x8a>
1c004774:	1141                	addi	sp,sp,-16
1c004776:	1a1046b7          	lui	a3,0x1a104
1c00477a:	c606                	sw	ra,12(sp)
1c00477c:	c422                	sw	s0,8(sp)
1c00477e:	c226                	sw	s1,4(sp)
1c004780:	c04a                	sw	s2,0(sp)
1c004782:	0706a683          	lw	a3,112(a3) # 1a104070 <__l1_end+0xa104050>
1c004786:	1c010737          	lui	a4,0x1c010
1c00478a:	d3870713          	addi	a4,a4,-712 # 1c00fd38 <SystemStateToSCUFastSeq>
1c00478e:	00874783          	lbu	a5,8(a4)
1c004792:	8436                	mv	s0,a3
1c004794:	c0079933          	p.extractu	s2,a5,0,0
1c004798:	04193763          	p.bneimm	s2,1,1c0047e6 <__rt_pmu_cluster_power_down+0x7e>
1c00479c:	01069613          	slli	a2,a3,0x10
1c0047a0:	04064363          	bltz	a2,1c0047e6 <__rt_pmu_cluster_power_down+0x7e>
1c0047a4:	c007b7b3          	p.bclr	a5,a5,0,0
1c0047a8:	c0a92433          	p.insert	s0,s2,0,10
1c0047ac:	1a1044b7          	lui	s1,0x1a104
1c0047b0:	00f70423          	sb	a5,8(a4)
1c0047b4:	0684a823          	sw	s0,112(s1) # 1a104070 <__l1_end+0xa104050>
1c0047b8:	4585                	li	a1,1
1c0047ba:	02300513          	li	a0,35
1c0047be:	3d31                	jal	1c0045da <__rt_periph_wait_event>
1c0047c0:	4785                	li	a5,1
1c0047c2:	00f4a623          	sw	a5,12(s1)
1c0047c6:	c0302433          	p.insert	s0,zero,0,3
1c0047ca:	0684a823          	sw	s0,112(s1)
1c0047ce:	c0d92433          	p.insert	s0,s2,0,13
1c0047d2:	0684a823          	sw	s0,112(s1)
1c0047d6:	4422                	lw	s0,8(sp)
1c0047d8:	40b2                	lw	ra,12(sp)
1c0047da:	4492                	lw	s1,4(sp)
1c0047dc:	4902                	lw	s2,0(sp)
1c0047de:	4585                	li	a1,1
1c0047e0:	457d                	li	a0,31
1c0047e2:	0141                	addi	sp,sp,16
1c0047e4:	bbdd                	j	1c0045da <__rt_periph_wait_event>
1c0047e6:	40b2                	lw	ra,12(sp)
1c0047e8:	4422                	lw	s0,8(sp)
1c0047ea:	4492                	lw	s1,4(sp)
1c0047ec:	4902                	lw	s2,0(sp)
1c0047ee:	0141                	addi	sp,sp,16
1c0047f0:	8082                	ret
1c0047f2:	8082                	ret

1c0047f4 <SetFllFrequency>:
1c0047f4:	7179                	addi	sp,sp,-48
1c0047f6:	d422                	sw	s0,40(sp)
1c0047f8:	d226                	sw	s1,36(sp)
1c0047fa:	1c010437          	lui	s0,0x1c010
1c0047fe:	84aa                	mv	s1,a0
1c004800:	d606                	sw	ra,44(sp)
1c004802:	852e                	mv	a0,a1
1c004804:	d3840413          	addi	s0,s0,-712 # 1c00fd38 <SystemStateToSCUFastSeq>
1c004808:	0014be63          	p.bneimm	s1,1,1c004824 <SetFllFrequency+0x30>
1c00480c:	00844783          	lbu	a5,8(s0)
1c004810:	c0079733          	p.extractu	a4,a5,0,0
1c004814:	08172663          	p.beqimm	a4,1,1c0048a0 <SetFllFrequency+0xac>
1c004818:	4501                	li	a0,0
1c00481a:	50b2                	lw	ra,44(sp)
1c00481c:	5422                	lw	s0,40(sp)
1c00481e:	5492                	lw	s1,36(sp)
1c004820:	6145                	addi	sp,sp,48
1c004822:	8082                	ret
1c004824:	ce25                	beqz	a2,1c00489c <SetFllFrequency+0xa8>
1c004826:	00844783          	lbu	a5,8(s0)
1c00482a:	03200713          	li	a4,50
1c00482e:	c21797b3          	p.extractu	a5,a5,1,1
1c004832:	97a2                	add	a5,a5,s0
1c004834:	00a7c783          	lbu	a5,10(a5)
1c004838:	00e787db          	p.mac	a5,a5,a4,zero
1c00483c:	22678793          	addi	a5,a5,550
1c004840:	eca5                	bnez	s1,1c0048b8 <SetFllFrequency+0xc4>
1c004842:	0007a6b7          	lui	a3,0x7a
1c004846:	eb237737          	lui	a4,0xeb237
1c00484a:	12068693          	addi	a3,a3,288 # 7a120 <__L1Cl+0x6a120>
1c00484e:	c8070713          	addi	a4,a4,-896 # eb236c80 <pulp__FC+0xeb236c81>
1c004852:	42d78733          	p.mac	a4,a5,a3
1c004856:	fcb761e3          	bltu	a4,a1,1c004818 <SetFllFrequency+0x24>
1c00485a:	c62a                	sw	a0,12(sp)
1c00485c:	e00ff0ef          	jal	ra,1c003e5c <__rt_bridge_req_shutdown>
1c004860:	4532                	lw	a0,12(sp)
1c004862:	0870                	addi	a2,sp,28
1c004864:	082c                	addi	a1,sp,24
1c004866:	3d45                	jal	1c004716 <SetFllMultDivFactors>
1c004868:	4762                	lw	a4,24(sp)
1c00486a:	800007b7          	lui	a5,0x80000
1c00486e:	1a1006b7          	lui	a3,0x1a100
1c004872:	de0727b3          	p.insert	a5,a4,15,0
1c004876:	4772                	lw	a4,28(sp)
1c004878:	c7a727b3          	p.insert	a5,a4,3,26
1c00487c:	00449713          	slli	a4,s1,0x4
1c004880:	0711                	addi	a4,a4,4
1c004882:	00f6e723          	p.sw	a5,a4(a3)
1c004886:	00249793          	slli	a5,s1,0x2
1c00488a:	943e                	add	s0,s0,a5
1c00488c:	d008                	sw	a0,32(s0)
1c00488e:	c808                	sw	a0,16(s0)
1c004890:	f4c9                	bnez	s1,1c00481a <SetFllFrequency+0x26>
1c004892:	c62a                	sw	a0,12(sp)
1c004894:	d32ff0ef          	jal	ra,1c003dc6 <__rt_bridge_set_available>
1c004898:	4532                	lw	a0,12(sp)
1c00489a:	b741                	j	1c00481a <SetFllFrequency+0x26>
1c00489c:	f0f9                	bnez	s1,1c004862 <SetFllFrequency+0x6e>
1c00489e:	bf75                	j	1c00485a <SetFllFrequency+0x66>
1c0048a0:	d269                	beqz	a2,1c004862 <SetFllFrequency+0x6e>
1c0048a2:	c21797b3          	p.extractu	a5,a5,1,1
1c0048a6:	97a2                	add	a5,a5,s0
1c0048a8:	00a7c783          	lbu	a5,10(a5) # 8000000a <pulp__FC+0x8000000b>
1c0048ac:	03200713          	li	a4,50
1c0048b0:	00e787db          	p.mac	a5,a5,a4,zero
1c0048b4:	22678793          	addi	a5,a5,550
1c0048b8:	0006b6b7          	lui	a3,0x6b
1c0048bc:	eaf5a737          	lui	a4,0xeaf5a
1c0048c0:	6c068693          	addi	a3,a3,1728 # 6b6c0 <__L1Cl+0x5b6c0>
1c0048c4:	5c070713          	addi	a4,a4,1472 # eaf5a5c0 <pulp__FC+0xeaf5a5c1>
1c0048c8:	42d78733          	p.mac	a4,a5,a3
1c0048cc:	f8a77be3          	bleu	a0,a4,1c004862 <SetFllFrequency+0x6e>
1c0048d0:	b7a1                	j	1c004818 <SetFllFrequency+0x24>

1c0048d2 <InitOneFll>:
1c0048d2:	7179                	addi	sp,sp,-48
1c0048d4:	00451713          	slli	a4,a0,0x4
1c0048d8:	ce4e                	sw	s3,28(sp)
1c0048da:	1a1007b7          	lui	a5,0x1a100
1c0048de:	00470993          	addi	s3,a4,4
1c0048e2:	d606                	sw	ra,44(sp)
1c0048e4:	d422                	sw	s0,40(sp)
1c0048e6:	d226                	sw	s1,36(sp)
1c0048e8:	d04a                	sw	s2,32(sp)
1c0048ea:	2137f783          	p.lw	a5,s3(a5)
1c0048ee:	1c010437          	lui	s0,0x1c010
1c0048f2:	d3840413          	addi	s0,s0,-712 # 1c00fd38 <SystemStateToSCUFastSeq>
1c0048f6:	00251913          	slli	s2,a0,0x2
1c0048fa:	c585                	beqz	a1,1c004922 <InitOneFll+0x50>
1c0048fc:	c7a79733          	p.extractu	a4,a5,3,26
1c004900:	1007d7b3          	p.exthz	a5,a5
1c004904:	07be                	slli	a5,a5,0xf
1c004906:	c701                	beqz	a4,1c00490e <InitOneFll+0x3c>
1c004908:	177d                	addi	a4,a4,-1
1c00490a:	00e7d7b3          	srl	a5,a5,a4
1c00490e:	944a                	add	s0,s0,s2
1c004910:	d01c                	sw	a5,32(s0)
1c004912:	c81c                	sw	a5,16(s0)
1c004914:	50b2                	lw	ra,44(sp)
1c004916:	5422                	lw	s0,40(sp)
1c004918:	5492                	lw	s1,36(sp)
1c00491a:	5902                	lw	s2,32(sp)
1c00491c:	49f2                	lw	s3,28(sp)
1c00491e:	6145                	addi	sp,sp,48
1c004920:	8082                	ret
1c004922:	0007d363          	bgez	a5,1c004928 <InitOneFll+0x56>
1c004926:	c105                	beqz	a0,1c004946 <InitOneFll+0x74>
1c004928:	810047b7          	lui	a5,0x81004
1c00492c:	1a1006b7          	lui	a3,0x1a100
1c004930:	00870613          	addi	a2,a4,8
1c004934:	10778793          	addi	a5,a5,263 # 81004107 <pulp__FC+0x81004108>
1c004938:	00f6e623          	p.sw	a5,a2(a3)
1c00493c:	014c04b7          	lui	s1,0x14c0
1c004940:	0731                	addi	a4,a4,12
1c004942:	0096e723          	p.sw	s1,a4(a3)
1c004946:	02faf537          	lui	a0,0x2faf
1c00494a:	0070                	addi	a2,sp,12
1c00494c:	002c                	addi	a1,sp,8
1c00494e:	08050513          	addi	a0,a0,128 # 2faf080 <__L2+0x2f2f080>
1c004952:	33d1                	jal	1c004716 <SetFllMultDivFactors>
1c004954:	47a2                	lw	a5,8(sp)
1c004956:	c00004b7          	lui	s1,0xc0000
1c00495a:	de07a4b3          	p.insert	s1,a5,15,0
1c00495e:	47b2                	lw	a5,12(sp)
1c004960:	c7a7a4b3          	p.insert	s1,a5,3,26
1c004964:	1a1007b7          	lui	a5,0x1a100
1c004968:	0097e9a3          	p.sw	s1,s3(a5)
1c00496c:	944a                	add	s0,s0,s2
1c00496e:	d008                	sw	a0,32(s0)
1c004970:	c808                	sw	a0,16(s0)
1c004972:	b74d                	j	1c004914 <InitOneFll+0x42>

1c004974 <__rt_pmu_cluster_power_up>:
1c004974:	1141                	addi	sp,sp,-16
1c004976:	c226                	sw	s1,4(sp)
1c004978:	1c0104b7          	lui	s1,0x1c010
1c00497c:	c606                	sw	ra,12(sp)
1c00497e:	c422                	sw	s0,8(sp)
1c004980:	c04a                	sw	s2,0(sp)
1c004982:	d3848793          	addi	a5,s1,-712 # 1c00fd38 <SystemStateToSCUFastSeq>
1c004986:	0087c783          	lbu	a5,8(a5) # 1a100008 <__l1_end+0xa0fffe8>
1c00498a:	4501                	li	a0,0
1c00498c:	c00797b3          	p.extractu	a5,a5,0,0
1c004990:	e785                	bnez	a5,1c0049b8 <__rt_pmu_cluster_power_up+0x44>
1c004992:	1c0107b7          	lui	a5,0x1c010
1c004996:	d287a783          	lw	a5,-728(a5) # 1c00fd28 <__rt_platform>
1c00499a:	d3848493          	addi	s1,s1,-712
1c00499e:	0217b363          	p.bneimm	a5,1,1c0049c4 <__rt_pmu_cluster_power_up+0x50>
1c0049a2:	1a1047b7          	lui	a5,0x1a104
1c0049a6:	0007a623          	sw	zero,12(a5) # 1a10400c <__l1_end+0xa103fec>
1c0049aa:	0084c783          	lbu	a5,8(s1)
1c0049ae:	4505                	li	a0,1
1c0049b0:	c007c7b3          	p.bset	a5,a5,0,0
1c0049b4:	00f48423          	sb	a5,8(s1)
1c0049b8:	40b2                	lw	ra,12(sp)
1c0049ba:	4422                	lw	s0,8(sp)
1c0049bc:	4492                	lw	s1,4(sp)
1c0049be:	4902                	lw	s2,0(sp)
1c0049c0:	0141                	addi	sp,sp,16
1c0049c2:	8082                	ret
1c0049c4:	1a104437          	lui	s0,0x1a104
1c0049c8:	07042403          	lw	s0,112(s0) # 1a104070 <__l1_end+0xa104050>
1c0049cc:	c0a417b3          	p.extractu	a5,s0,0,10
1c0049d0:	ef89                	bnez	a5,1c0049ea <__rt_pmu_cluster_power_up+0x76>
1c0049d2:	4785                	li	a5,1
1c0049d4:	c0a7a433          	p.insert	s0,a5,0,10
1c0049d8:	1a1047b7          	lui	a5,0x1a104
1c0049dc:	0687a823          	sw	s0,112(a5) # 1a104070 <__l1_end+0xa104050>
1c0049e0:	4585                	li	a1,1
1c0049e2:	02300513          	li	a0,35
1c0049e6:	bf5ff0ef          	jal	ra,1c0045da <__rt_periph_wait_event>
1c0049ea:	4785                	li	a5,1
1c0049ec:	c037a433          	p.insert	s0,a5,0,3
1c0049f0:	1a104937          	lui	s2,0x1a104
1c0049f4:	06892823          	sw	s0,112(s2) # 1a104070 <__l1_end+0xa104050>
1c0049f8:	4585                	li	a1,1
1c0049fa:	457d                	li	a0,31
1c0049fc:	bdfff0ef          	jal	ra,1c0045da <__rt_periph_wait_event>
1c004a00:	00092623          	sw	zero,12(s2)
1c004a04:	c0d02433          	p.insert	s0,zero,0,13
1c004a08:	06892823          	sw	s0,112(s2)
1c004a0c:	c0a02433          	p.insert	s0,zero,0,10
1c004a10:	06892823          	sw	s0,112(s2)
1c004a14:	4585                	li	a1,1
1c004a16:	02300513          	li	a0,35
1c004a1a:	bc1ff0ef          	jal	ra,1c0045da <__rt_periph_wait_event>
1c004a1e:	01c4c783          	lbu	a5,28(s1)
1c004a22:	0207f793          	andi	a5,a5,32
1c004a26:	e781                	bnez	a5,1c004a2e <__rt_pmu_cluster_power_up+0xba>
1c004a28:	4581                	li	a1,0
1c004a2a:	4505                	li	a0,1
1c004a2c:	355d                	jal	1c0048d2 <InitOneFll>
1c004a2e:	c0e44433          	p.bset	s0,s0,0,14
1c004a32:	1a1047b7          	lui	a5,0x1a104
1c004a36:	0687a823          	sw	s0,112(a5) # 1a104070 <__l1_end+0xa104050>
1c004a3a:	bf85                	j	1c0049aa <__rt_pmu_cluster_power_up+0x36>

1c004a3c <InitFlls>:

  }
}

void  __attribute__ ((noinline)) InitFlls()
{
1c004a3c:	1141                	addi	sp,sp,-16
1c004a3e:	c422                	sw	s0,8(sp)
  __rt_bridge_req_shutdown();

  InitOneFll(FLL_SOC, PMURetentionState.Fields.FllSoCRetention);
1c004a40:	1c010437          	lui	s0,0x1c010
{
1c004a44:	c606                	sw	ra,12(sp)
  InitOneFll(FLL_SOC, PMURetentionState.Fields.FllSoCRetention);
1c004a46:	d3840413          	addi	s0,s0,-712 # 1c00fd38 <SystemStateToSCUFastSeq>
  __rt_bridge_req_shutdown();
1c004a4a:	c12ff0ef          	jal	ra,1c003e5c <__rt_bridge_req_shutdown>
  InitOneFll(FLL_SOC, PMURetentionState.Fields.FllSoCRetention);
1c004a4e:	01c44583          	lbu	a1,28(s0)
1c004a52:	4501                	li	a0,0
1c004a54:	c04595b3          	p.extractu	a1,a1,0,4
1c004a58:	3dad                	jal	1c0048d2 <InitOneFll>
#define PMU_ERROR_CLUSTER_STATE_CHANGE_FAILED   (0x1<<4)

extern void 		   InitPMUDriver();

static inline int 	   PMU_ClusterIsDown()    { return (CLUSTER_STATE(PMUState.State)==CLUSTER_OFF);}
static inline int 	   PMU_ClusterIsRunning() { return (CLUSTER_STATE(PMUState.State)==CLUSTER_ON);}
1c004a5a:	00844783          	lbu	a5,8(s0)
1c004a5e:	c00797b3          	p.extractu	a5,a5,0,0
  if (PMU_ClusterIsRunning()) InitOneFll(FLL_CLUSTER, PMURetentionState.Fields.FllClusterRetention);
1c004a62:	0017b863          	p.bneimm	a5,1,1c004a72 <InitFlls+0x36>
1c004a66:	01c44583          	lbu	a1,28(s0)
1c004a6a:	4505                	li	a0,1
1c004a6c:	c05595b3          	p.extractu	a1,a1,0,5
1c004a70:	358d                	jal	1c0048d2 <InitOneFll>

#ifdef __RT_USE_BRIDGE
  __rt_bridge_set_available();
#endif
}
1c004a72:	4422                	lw	s0,8(sp)
1c004a74:	40b2                	lw	ra,12(sp)
1c004a76:	0141                	addi	sp,sp,16
  __rt_bridge_set_available();
1c004a78:	b4eff06f          	j	1c003dc6 <__rt_bridge_set_available>

1c004a7c <__rt_pmu_init>:
1c004a7c:	1c0107b7          	lui	a5,0x1c010
  if (rt_platform() == ARCHI_PLATFORM_FPGA) {
1c004a80:	d287a783          	lw	a5,-728(a5) # 1c00fd28 <__rt_platform>
1c004a84:	0a17a863          	p.beqimm	a5,1,1c004b34 <__rt_pmu_init+0xb8>
{
1c004a88:	1141                	addi	sp,sp,-16
  __rt_wakeup_use_fast = 0;
1c004a8a:	1c0107b7          	lui	a5,0x1c010
  return IP_READ(ARCHI_APB_SOC_CTRL_ADDR, PMU_DCDC_CONFIG_OFFSET);
1c004a8e:	1a104637          	lui	a2,0x1a104
{
1c004a92:	c606                	sw	ra,12(sp)
  __rt_wakeup_use_fast = 0;
1c004a94:	1a07ae23          	sw	zero,444(a5) # 1c0101bc <__rt_wakeup_use_fast>
1c004a98:	10062703          	lw	a4,256(a2) # 1a104100 <__l1_end+0xa1040e0>
  return IP_READ(ARCHI_APB_SOC_CTRL_ADDR, PMU_RETENTION_CONFIG_OFFSET);
1c004a9c:	10462683          	lw	a3,260(a2)
  PMURetentionState.Raw = GetRetentiveState();
1c004aa0:	1c0107b7          	lui	a5,0x1c010
1c004aa4:	d3878793          	addi	a5,a5,-712 # 1c00fd38 <SystemStateToSCUFastSeq>
1c004aa8:	cfd4                	sw	a3,28(a5)
  PMUState.State = RetPMUStateToPMUState[PMURetentionState.Fields.WakeupState];
1c004aaa:	c2e696b3          	p.extractu	a3,a3,1,14
1c004aae:	96be                	add	a3,a3,a5
1c004ab0:	0286c683          	lbu	a3,40(a3) # 1a100028 <__l1_end+0xa100008>
  PMUState.DCDC_Settings[REGU_OFF] = 0;
1c004ab4:	000786a3          	sb	zero,13(a5)
  PMUState.State = RetPMUStateToPMUState[PMURetentionState.Fields.WakeupState];
1c004ab8:	00d78423          	sb	a3,8(a5)
  PMUState.DCDC_Settings[REGU_NV]  = __builtin_bitextractu(DCDCValue, DCDC_RANGE, DCDC_Nominal*8);
1c004abc:	c80716b3          	p.extractu	a3,a4,4,0
1c004ac0:	00d78523          	sb	a3,10(a5)
  PMUState.DCDC_Settings[REGU_LV]  = __builtin_bitextractu(DCDCValue, DCDC_RANGE, DCDC_Low*8);
1c004ac4:	c90716b3          	p.extractu	a3,a4,4,16
  PMUState.DCDC_Settings[REGU_RET] = __builtin_bitextractu(DCDCValue, DCDC_RANGE, DCDC_Retentive*8);
1c004ac8:	c9871733          	p.extractu	a4,a4,4,24
  PMUState.DCDC_Settings[REGU_LV]  = __builtin_bitextractu(DCDCValue, DCDC_RANGE, DCDC_Low*8);
1c004acc:	00d785a3          	sb	a3,11(a5)
  PMUState.DCDC_Settings[REGU_RET] = __builtin_bitextractu(DCDCValue, DCDC_RANGE, DCDC_Retentive*8);
1c004ad0:	00e78623          	sb	a4,12(a5)
  Bypass.Raw = GetPMUBypass();
1c004ad4:	07062783          	lw	a5,112(a2)
  Bypass.Fields.Bypass = 1;
1c004ad8:	4705                	li	a4,1
1c004ada:	c00727b3          	p.insert	a5,a4,0,0
  Bypass.Fields.BypassClock = 1;
1c004ade:	c09727b3          	p.insert	a5,a4,0,9
  IP_WRITE(ARCHI_APB_SOC_CTRL_ADDR, APB_SOC_CL_BYPASS_OFFSET, Value);
1c004ae2:	06f62823          	sw	a5,112(a2)
  InitFlls();
1c004ae6:	3f99                	jal	1c004a3c <InitFlls>
  soc_eu_fcEventMask_setEvent(ARCHI_SOC_EVENT_CLUSTER_ON_OFF);
1c004ae8:	457d                	li	a0,31
1c004aea:	c59ff0ef          	jal	ra,1c004742 <soc_eu_fcEventMask_setEvent>
  soc_eu_fcEventMask_setEvent(ARCHI_SOC_EVENT_MSP);
1c004aee:	02000513          	li	a0,32
1c004af2:	c51ff0ef          	jal	ra,1c004742 <soc_eu_fcEventMask_setEvent>
  soc_eu_fcEventMask_setEvent(ARCHI_SOC_EVENT_ICU_MODE_CHANGED);
1c004af6:	02100513          	li	a0,33
1c004afa:	c49ff0ef          	jal	ra,1c004742 <soc_eu_fcEventMask_setEvent>
  soc_eu_fcEventMask_setEvent(ARCHI_SOC_EVENT_ICU_OK);
1c004afe:	02200513          	li	a0,34
1c004b02:	c41ff0ef          	jal	ra,1c004742 <soc_eu_fcEventMask_setEvent>
  soc_eu_fcEventMask_setEvent(ARCHI_SOC_EVENT_ICU_DELAYED);
1c004b06:	02300513          	li	a0,35
1c004b0a:	c39ff0ef          	jal	ra,1c004742 <soc_eu_fcEventMask_setEvent>
  soc_eu_fcEventMask_setEvent(ARCHI_SOC_EVENT_PICL_OK);
1c004b0e:	02400513          	li	a0,36
1c004b12:	c31ff0ef          	jal	ra,1c004742 <soc_eu_fcEventMask_setEvent>
  soc_eu_fcEventMask_setEvent(ARCHI_SOC_EVENT_SCU_OK);
1c004b16:	02500513          	li	a0,37
1c004b1a:	c29ff0ef          	jal	ra,1c004742 <soc_eu_fcEventMask_setEvent>
  PMU_Write(DLC_IMR, 0x7);
1c004b1e:	1a1077b7          	lui	a5,0x1a107
1c004b22:	471d                	li	a4,7
1c004b24:	00e7a623          	sw	a4,12(a5) # 1a10700c <__l1_end+0xa106fec>
  PMU_Write(DLC_IFR, (MAESTRO_EVENT_PICL_OK|MAESTRO_EVENT_SCU_OK));
1c004b28:	4761                	li	a4,24
1c004b2a:	00e7a823          	sw	a4,16(a5)
}
1c004b2e:	40b2                	lw	ra,12(sp)
1c004b30:	0141                	addi	sp,sp,16
1c004b32:	8082                	ret
1c004b34:	8082                	ret

1c004b36 <__rt_fll_init>:


unsigned int __rt_fll_init(int fll)
{
  return FllsFrequency[fll];
1c004b36:	00251793          	slli	a5,a0,0x2
1c004b3a:	1c010537          	lui	a0,0x1c010
1c004b3e:	d3850513          	addi	a0,a0,-712 # 1c00fd38 <SystemStateToSCUFastSeq>
1c004b42:	953e                	add	a0,a0,a5
}
1c004b44:	5108                	lw	a0,32(a0)
1c004b46:	8082                	ret

1c004b48 <__rt_fll_deinit>:

void __rt_fll_deinit(int fll)
{
}
1c004b48:	8082                	ret

1c004b4a <__rt_flls_constructor>:

void __rt_flls_constructor()
{
}
1c004b4a:	8082                	ret

1c004b4c <__rt_fll_set_freq>:

unsigned int __rt_fll_set_freq(int fll, unsigned int frequency)
{
  return SetFllFrequency(fll, frequency, 0);
1c004b4c:	4601                	li	a2,0
1c004b4e:	ca7ff06f          	j	1c0047f4 <SetFllFrequency>

1c004b52 <__rt_init_cluster_data>:
{
#if defined(EU_VERSION) && EU_VERSION >= 3
  eu_evt_maskSet((1<<PULP_DISPATCH_EVENT) | (1<<PULP_HW_BAR_EVENT) | (1<<PULP_MUTEX_EVENT));
  rt_team_fork(rt_nb_pe(), cluster_pe_start, NULL);
#endif
}
1c004b52:	04050713          	addi	a4,a0,64
1c004b56:	00400793          	li	a5,4
1c004b5a:	01671613          	slli	a2,a4,0x16
1c004b5e:	e6c7b7b3          	p.bclr	a5,a5,19,12
1c004b62:	1c0106b7          	lui	a3,0x1c010
1c004b66:	97b2                	add	a5,a5,a2
1c004b68:	1ec68693          	addi	a3,a3,492 # 1c0101ec <_bss_end>
1c004b6c:	01c00713          	li	a4,28
1c004b70:	8f95                	sub	a5,a5,a3
1c004b72:	00f685b3          	add	a1,a3,a5
1c004b76:	02e04963          	bgtz	a4,1c004ba8 <__rt_init_cluster_data+0x56>
1c004b7a:	1c0107b7          	lui	a5,0x1c010
1c004b7e:	02800713          	li	a4,40
1c004b82:	1c478793          	addi	a5,a5,452 # 1c0101c4 <__rt_fc_cluster_data>
1c004b86:	42e507b3          	p.mac	a5,a0,a4
1c004b8a:	00201737          	lui	a4,0x201
1c004b8e:	e0470713          	addi	a4,a4,-508 # 200e04 <__L2+0x180e04>
1c004b92:	9732                	add	a4,a4,a2
1c004b94:	cb98                	sw	a4,16(a5)
1c004b96:	00400713          	li	a4,4
1c004b9a:	e6c73733          	p.bclr	a4,a4,19,12
1c004b9e:	9732                	add	a4,a4,a2
1c004ba0:	0007a423          	sw	zero,8(a5)
1c004ba4:	cbd8                	sw	a4,20(a5)
1c004ba6:	8082                	ret
1c004ba8:	0046a80b          	p.lw	a6,4(a3!)
1c004bac:	1771                	addi	a4,a4,-4
1c004bae:	0105a023          	sw	a6,0(a1)
1c004bb2:	b7c1                	j	1c004b72 <__rt_init_cluster_data+0x20>

1c004bb4 <__rt_cluster_init>:
1c004bb4:	1c010537          	lui	a0,0x1c010
1c004bb8:	1141                	addi	sp,sp,-16
1c004bba:	02800613          	li	a2,40
1c004bbe:	4581                	li	a1,0
1c004bc0:	1c450513          	addi	a0,a0,452 # 1c0101c4 <__rt_fc_cluster_data>
1c004bc4:	c606                	sw	ra,12(sp)
1c004bc6:	72d000ef          	jal	ra,1c005af2 <memset>
1c004bca:	1c0075b7          	lui	a1,0x1c007
1c004bce:	e5458593          	addi	a1,a1,-428 # 1c006e54 <__rt_dma_2d>
1c004bd2:	4525                	li	a0,9
1c004bd4:	de5fe0ef          	jal	ra,1c0039b8 <rt_irq_set_handler>
1c004bd8:	1c0005b7          	lui	a1,0x1c000
1c004bdc:	17458593          	addi	a1,a1,372 # 1c000174 <__rt_remote_enqueue_event>
1c004be0:	4505                	li	a0,1
1c004be2:	dd7fe0ef          	jal	ra,1c0039b8 <rt_irq_set_handler>
1c004be6:	4789                	li	a5,2
1c004be8:	00204737          	lui	a4,0x204
1c004bec:	00f72a23          	sw	a5,20(a4) # 204014 <__L2+0x184014>
1c004bf0:	00f72423          	sw	a5,8(a4)
1c004bf4:	1c0005b7          	lui	a1,0x1c000
1c004bf8:	13c58593          	addi	a1,a1,316 # 1c00013c <__rt_bridge_enqueue_event>
1c004bfc:	4511                	li	a0,4
1c004bfe:	dbbfe0ef          	jal	ra,1c0039b8 <rt_irq_set_handler>
1c004c02:	47c1                	li	a5,16
1c004c04:	00204737          	lui	a4,0x204
1c004c08:	00f72a23          	sw	a5,20(a4) # 204014 <__L2+0x184014>
1c004c0c:	00f72423          	sw	a5,8(a4)
1c004c10:	40b2                	lw	ra,12(sp)
1c004c12:	4501                	li	a0,0
1c004c14:	0141                	addi	sp,sp,16
1c004c16:	8082                	ret

1c004c18 <__rt_cluster_mount_step>:
{
1c004c18:	7179                	addi	sp,sp,-48
1c004c1a:	ce4e                	sw	s3,28(sp)
1c004c1c:	cc52                	sw	s4,24(sp)
      plp_ctrl_core_bootaddr_set_remote(cid, i, ((int)_start) & 0xffffff00);
1c004c1e:	1c000a37          	lui	s4,0x1c000
  return (void *)(ARCHI_CLUSTER_GLOBAL_ADDR(cid) + ((int)data & 0xFFF));
1c004c22:	00400993          	li	s3,4
1c004c26:	080a0a13          	addi	s4,s4,128 # 1c000080 <_start>
{
1c004c2a:	d422                	sw	s0,40(sp)
1c004c2c:	d606                	sw	ra,44(sp)
1c004c2e:	d226                	sw	s1,36(sp)
1c004c30:	d04a                	sw	s2,32(sp)
1c004c32:	ca56                	sw	s5,20(sp)
1c004c34:	842a                	mv	s0,a0
1c004c36:	e6c9b9b3          	p.bclr	s3,s3,19,12
      plp_ctrl_core_bootaddr_set_remote(cid, i, ((int)_start) & 0xffffff00);
1c004c3a:	ce0a3a33          	p.bclr	s4,s4,7,0
    switch (cluster->state)
1c004c3e:	4c5c                	lw	a5,28(s0)
1c004c40:	0217ad63          	p.beqimm	a5,1,1c004c7a <__rt_cluster_mount_step+0x62>
1c004c44:	0c27a463          	p.beqimm	a5,2,1c004d0c <__rt_cluster_mount_step+0xf4>
1c004c48:	efd5                	bnez	a5,1c004d04 <__rt_cluster_mount_step+0xec>
  int cid = cluster->cid;
1c004c4a:	5018                	lw	a4,32(s0)
  cluster->powered_up = 0;
1c004c4c:	00042c23          	sw	zero,24(s0)
  if (cid == 0)
1c004c50:	eb01                	bnez	a4,1c004c60 <__rt_cluster_mount_step+0x48>
    cluster->powered_up = __rt_pmu_cluster_power_up(cluster->mount_event, &pending);
1c004c52:	5048                	lw	a0,36(s0)
1c004c54:	006c                	addi	a1,sp,12
    int pending = 0;
1c004c56:	c602                	sw	zero,12(sp)
    cluster->powered_up = __rt_pmu_cluster_power_up(cluster->mount_event, &pending);
1c004c58:	d1dff0ef          	jal	ra,1c004974 <__rt_pmu_cluster_power_up>
    return pending;
1c004c5c:	47b2                	lw	a5,12(sp)
    cluster->powered_up = __rt_pmu_cluster_power_up(cluster->mount_event, &pending);
1c004c5e:	cc08                	sw	a0,24(s0)
    cluster->state++;
1c004c60:	4c58                	lw	a4,28(s0)
1c004c62:	0705                	addi	a4,a4,1
1c004c64:	cc58                	sw	a4,28(s0)
  while(!end)
1c004c66:	dfe1                	beqz	a5,1c004c3e <__rt_cluster_mount_step+0x26>
}
1c004c68:	50b2                	lw	ra,44(sp)
1c004c6a:	5422                	lw	s0,40(sp)
1c004c6c:	5492                	lw	s1,36(sp)
1c004c6e:	5902                	lw	s2,32(sp)
1c004c70:	49f2                	lw	s3,28(sp)
1c004c72:	4a62                	lw	s4,24(sp)
1c004c74:	4ad2                	lw	s5,20(sp)
1c004c76:	6145                	addi	sp,sp,48
1c004c78:	8082                	ret
1c004c7a:	02042a83          	lw	s5,32(s0)
1c004c7e:	040a8493          	addi	s1,s5,64
1c004c82:	04da                	slli	s1,s1,0x16
1c004c84:	009987b3          	add	a5,s3,s1
  pool->first_call_fc_for_cl = NULL;
1c004c88:	0007a023          	sw	zero,0(a5)
  pool->first_call_fc = NULL;
1c004c8c:	0007a223          	sw	zero,4(a5)
  pool->last_call_fc = NULL;
1c004c90:	0007a423          	sw	zero,8(a5)
  __rt_cluster_fc_task_lock = 0;
1c004c94:	100007b7          	lui	a5,0x10000
1c004c98:	0007ae23          	sw	zero,28(a5) # 1000001c <__rt_cluster_fc_task_lock>
  return __rt_platform;
1c004c9c:	1c0107b7          	lui	a5,0x1c010
    if (rt_platform() != ARCHI_PLATFORM_FPGA)
1c004ca0:	d287a783          	lw	a5,-728(a5) # 1c00fd28 <__rt_platform>
1c004ca4:	0017ae63          	p.beqimm	a5,1,1c004cc0 <__rt_cluster_mount_step+0xa8>
      int init_freq = __rt_fll_init(__RT_FLL_CL);
1c004ca8:	4505                	li	a0,1
1c004caa:	3571                	jal	1c004b36 <__rt_fll_init>

  #if defined(FLL_VERSION)

  static inline int rt_freq_get(rt_freq_domain_e domain)
  {
    return __rt_freq_domains[domain];
1c004cac:	1c0107b7          	lui	a5,0x1c010
1c004cb0:	1b478793          	addi	a5,a5,436 # 1c0101b4 <__rt_freq_domains>
1c004cb4:	43cc                	lw	a1,4(a5)
      if (freq)
1c004cb6:	c9a9                	beqz	a1,1c004d08 <__rt_cluster_mount_step+0xf0>
    return rt_freq_set_and_get(domain, freq, NULL);
1c004cb8:	4601                	li	a2,0
1c004cba:	4505                	li	a0,1
1c004cbc:	9d3ff0ef          	jal	ra,1c00468e <rt_freq_set_and_get>
    IP_WRITE(ARCHI_CLUSTER_PERIPHERALS_GLOBAL_ADDR(cid), ARCHI_CLUSTER_CTRL_CLUSTER_CLK_GATE, 1);
1c004cc0:	00200937          	lui	s2,0x200
1c004cc4:	01248733          	add	a4,s1,s2
1c004cc8:	4785                	li	a5,1
1c004cca:	02f72023          	sw	a5,32(a4)
    __rt_init_cluster_data(cid);
1c004cce:	8556                	mv	a0,s5
1c004cd0:	3549                	jal	1c004b52 <__rt_init_cluster_data>
    __rt_alloc_init_l1(cid);
1c004cd2:	8556                	mv	a0,s5
1c004cd4:	cd8ff0ef          	jal	ra,1c0041ac <__rt_alloc_init_l1>
  pulp_write32(ARCHI_CLUSTER_PERIPHERALS_GLOBAL_ADDR(cid) + ARCHI_ICACHE_CTRL_OFFSET, 0xFFFFFFFF);
1c004cd8:	002017b7          	lui	a5,0x201
1c004cdc:	40078793          	addi	a5,a5,1024 # 201400 <__L2+0x181400>
1c004ce0:	577d                	li	a4,-1
1c004ce2:	04090913          	addi	s2,s2,64 # 200040 <__L2+0x180040>
1c004ce6:	00e4e7a3          	p.sw	a4,a5(s1)
1c004cea:	9926                	add	s2,s2,s1
1c004cec:	008250fb          	lp.setupi	x1,8,1c004cf4 <__rt_cluster_mount_step+0xdc>
  pulp_write32(ARCHI_CLUSTER_PERIPHERALS_GLOBAL_ADDR(cid) + ARCHI_CLUSTER_CTRL_OFFSET + 0x40 + core*4, bootAddr);
1c004cf0:	0149222b          	p.sw	s4,4(s2!)
1c004cf4:	0001                	nop
  pulp_write32(ARCHI_CLUSTER_PERIPHERALS_GLOBAL_ADDR(cid) + ARCHI_CLUSTER_CTRL_OFFSET + EOC_FETCH_OFFSET, mask);
1c004cf6:	002007b7          	lui	a5,0x200
1c004cfa:	07a1                	addi	a5,a5,8
1c004cfc:	0ff00713          	li	a4,255
1c004d00:	00e4e7a3          	p.sw	a4,a5(s1)
    switch (cluster->state)
1c004d04:	4781                	li	a5,0
1c004d06:	bfa9                	j	1c004c60 <__rt_cluster_mount_step+0x48>
    __rt_freq_domains[domain] = freq;
1c004d08:	c3c8                	sw	a0,4(a5)
1c004d0a:	bf5d                	j	1c004cc0 <__rt_cluster_mount_step+0xa8>
        __rt_event_restore(cluster->mount_event);
1c004d0c:	505c                	lw	a5,36(s0)
  event->implem.pending = event->implem.saved_pending;
1c004d0e:	5bd8                	lw	a4,52(a5)
1c004d10:	d3d8                	sw	a4,36(a5)
  event->arg[0] = (uintptr_t)event->implem.saved_callback;
1c004d12:	57d8                	lw	a4,44(a5)
1c004d14:	c3d8                	sw	a4,4(a5)
  event->arg[1] = (uintptr_t)event->implem.saved_arg;
1c004d16:	5b98                	lw	a4,48(a5)
1c004d18:	c798                	sw	a4,8(a5)
  event->implem.saved_pending = 0;
1c004d1a:	0207aa23          	sw	zero,52(a5) # 200034 <__L2+0x180034>
        __rt_event_enqueue(cluster->mount_event);
1c004d1e:	505c                	lw	a5,36(s0)
  if (sched->first) {
1c004d20:	01c02603          	lw	a2,28(zero) # 1c <_l1_preload_size>
1c004d24:	01c00693          	li	a3,28
  event->next = NULL;
1c004d28:	0007a023          	sw	zero,0(a5)
  if (sched->first) {
1c004d2c:	c611                	beqz	a2,1c004d38 <__rt_cluster_mount_step+0x120>
    sched->last->next = event;
1c004d2e:	42d8                	lw	a4,4(a3)
1c004d30:	c31c                	sw	a5,0(a4)
  sched->last = event;
1c004d32:	c2dc                	sw	a5,4(a3)
        end = 1;
1c004d34:	4785                	li	a5,1
1c004d36:	b72d                	j	1c004c60 <__rt_cluster_mount_step+0x48>
    sched->first = event;
1c004d38:	00f02e23          	sw	a5,28(zero) # 1c <_l1_preload_size>
1c004d3c:	bfdd                	j	1c004d32 <__rt_cluster_mount_step+0x11a>

1c004d3e <pi_cluster_conf_init>:
  conf->id = 0;
1c004d3e:	00052223          	sw	zero,4(a0)
}
1c004d42:	8082                	ret

1c004d44 <pi_cluster_open>:
{
1c004d44:	1101                	addi	sp,sp,-32
1c004d46:	ce06                	sw	ra,28(sp)
1c004d48:	cc22                	sw	s0,24(sp)
1c004d4a:	ca26                	sw	s1,20(sp)
1c004d4c:	c84a                	sw	s2,16(sp)
1c004d4e:	c64e                	sw	s3,12(sp)
  return __builtin_pulp_read_then_spr_bit_clr(reg, val);
1c004d50:	30047973          	csrrci	s2,mstatus,8
  struct pi_cluster_conf *conf = (struct pi_cluster_conf *)cluster_dev->config;
1c004d54:	00452983          	lw	s3,4(a0)
  cluster_dev->data = (void *)&__rt_fc_cluster_data[cid];
1c004d58:	1c0104b7          	lui	s1,0x1c010
1c004d5c:	02800793          	li	a5,40
  int cid = conf->id;
1c004d60:	0049a703          	lw	a4,4(s3)
  cluster_dev->data = (void *)&__rt_fc_cluster_data[cid];
1c004d64:	1c448493          	addi	s1,s1,452 # 1c0101c4 <__rt_fc_cluster_data>
1c004d68:	42f704b3          	p.mac	s1,a4,a5
1c004d6c:	c504                	sw	s1,8(a0)
  rt_event_t *event = __rt_wait_event_prepare_blocking();
1c004d6e:	9b8ff0ef          	jal	ra,1c003f26 <__rt_wait_event_prepare_blocking>
  if (rt_is_fc() || (cid && !rt_has_fc()))
1c004d72:	02000713          	li	a4,32
  asm("csrr %0, 0x014" : "=r" (hart_id) : );
1c004d76:	014027f3          	csrr	a5,uhartid
  return (hart_id >> 5) & 0x3f;
1c004d7a:	ca5797b3          	p.extractu	a5,a5,5,5
  rt_event_t *event = __rt_wait_event_prepare_blocking();
1c004d7e:	842a                	mv	s0,a0
  if (rt_is_fc() || (cid && !rt_has_fc()))
1c004d80:	04e79463          	bne	a5,a4,1c004dc8 <pi_cluster_open+0x84>
  event->implem.saved_pending = event->implem.pending;
1c004d84:	515c                	lw	a5,36(a0)
    cluster->state = RT_CLUSTER_MOUNT_START;
1c004d86:	0004ae23          	sw	zero,28(s1)
    cluster->mount_event = event;
1c004d8a:	d0c8                	sw	a0,36(s1)
1c004d8c:	d95c                	sw	a5,52(a0)
  event->implem.saved_callback = (void (*)(void *))event->arg[0];
1c004d8e:	415c                	lw	a5,4(a0)
  event->implem.keep = 0;
1c004d90:	02052423          	sw	zero,40(a0)
  event->implem.saved_callback = (void (*)(void *))event->arg[0];
1c004d94:	d55c                	sw	a5,44(a0)
  event->implem.saved_arg = (void *)event->arg[1];
1c004d96:	451c                	lw	a5,8(a0)
  event->arg[1] = (uintptr_t)arg;
1c004d98:	c504                	sw	s1,8(a0)
  event->implem.saved_arg = (void *)event->arg[1];
1c004d9a:	d91c                	sw	a5,48(a0)
  event->arg[0] = (uintptr_t)callback;
1c004d9c:	1c0057b7          	lui	a5,0x1c005
1c004da0:	c1878793          	addi	a5,a5,-1000 # 1c004c18 <__rt_cluster_mount_step>
1c004da4:	c15c                	sw	a5,4(a0)
  event->implem.pending = 1;
1c004da6:	4785                	li	a5,1
1c004da8:	d15c                	sw	a5,36(a0)
    __rt_cluster_mount_step((void *)cluster);
1c004daa:	8526                	mv	a0,s1
1c004dac:	35b5                	jal	1c004c18 <__rt_cluster_mount_step>
  __rt_wait_event(event);
1c004dae:	8522                	mv	a0,s0
1c004db0:	ac6ff0ef          	jal	ra,1c004076 <__rt_wait_event>
  __builtin_pulp_spr_write(reg, val);
1c004db4:	30091073          	csrw	mstatus,s2
}
1c004db8:	40f2                	lw	ra,28(sp)
1c004dba:	4462                	lw	s0,24(sp)
1c004dbc:	44d2                	lw	s1,20(sp)
1c004dbe:	4942                	lw	s2,16(sp)
1c004dc0:	49b2                	lw	s3,12(sp)
1c004dc2:	4501                	li	a0,0
1c004dc4:	6105                	addi	sp,sp,32
1c004dc6:	8082                	ret
  if (__rt_cluster_mount(&__rt_fc_cluster_data[cid], conf->id, 0, event))
1c004dc8:	0049a483          	lw	s1,4(s3)
    __rt_init_cluster_data(cid);
1c004dcc:	8526                	mv	a0,s1
1c004dce:	d85ff0ef          	jal	ra,1c004b52 <__rt_init_cluster_data>
1c004dd2:	04048513          	addi	a0,s1,64
1c004dd6:	002017b7          	lui	a5,0x201
1c004dda:	055a                	slli	a0,a0,0x16
1c004ddc:	40078793          	addi	a5,a5,1024 # 201400 <__L2+0x181400>
1c004de0:	577d                	li	a4,-1
1c004de2:	00e567a3          	p.sw	a4,a5(a0)
1c004de6:	002007b7          	lui	a5,0x200
      plp_ctrl_core_bootaddr_set_remote(cid, i, ((int)_start) & 0xffffff00);
1c004dea:	1c000737          	lui	a4,0x1c000
1c004dee:	04478793          	addi	a5,a5,68 # 200044 <__L2+0x180044>
1c004df2:	08070713          	addi	a4,a4,128 # 1c000080 <_start>
1c004df6:	97aa                	add	a5,a5,a0
1c004df8:	ce073733          	p.bclr	a4,a4,7,0
1c004dfc:	007250fb          	lp.setupi	x1,7,1c004e04 <pi_cluster_open+0xc0>
  pulp_write32(ARCHI_CLUSTER_PERIPHERALS_GLOBAL_ADDR(cid) + ARCHI_CLUSTER_CTRL_OFFSET + 0x40 + core*4, bootAddr);
1c004e00:	00e7a22b          	p.sw	a4,4(a5!)
1c004e04:	0001                	nop
  pulp_write32(ARCHI_CLUSTER_PERIPHERALS_GLOBAL_ADDR(cid) + ARCHI_CLUSTER_CTRL_OFFSET + EOC_FETCH_OFFSET, mask);
1c004e06:	002007b7          	lui	a5,0x200
1c004e0a:	07a1                	addi	a5,a5,8
1c004e0c:	577d                	li	a4,-1
1c004e0e:	00e567a3          	p.sw	a4,a5(a0)
    rt_event_push(event);
1c004e12:	8522                	mv	a0,s0
1c004e14:	9daff0ef          	jal	ra,1c003fee <rt_event_push>
1c004e18:	bf59                	j	1c004dae <pi_cluster_open+0x6a>

1c004e1a <pi_cluster_close>:
  __rt_cluster_unmount(data->cid, 0, NULL);
1c004e1a:	451c                	lw	a5,8(a0)
{
1c004e1c:	1101                	addi	sp,sp,-32
1c004e1e:	cc22                	sw	s0,24(sp)
  __rt_cluster_unmount(data->cid, 0, NULL);
1c004e20:	5380                	lw	s0,32(a5)
1c004e22:	1c0107b7          	lui	a5,0x1c010
    if (rt_platform() != ARCHI_PLATFORM_FPGA)
1c004e26:	d287a783          	lw	a5,-728(a5) # 1c00fd28 <__rt_platform>
{
1c004e2a:	ce06                	sw	ra,28(sp)
    if (rt_platform() != ARCHI_PLATFORM_FPGA)
1c004e2c:	0017a563          	p.beqimm	a5,1,1c004e36 <pi_cluster_close+0x1c>
      __rt_fll_deinit(__RT_FLL_CL);
1c004e30:	4505                	li	a0,1
1c004e32:	d17ff0ef          	jal	ra,1c004b48 <__rt_fll_deinit>
    int pending = 0;
1c004e36:	c602                	sw	zero,12(sp)
  if (cid == 0) __rt_pmu_cluster_power_down(event, &pending);
1c004e38:	e409                	bnez	s0,1c004e42 <pi_cluster_close+0x28>
1c004e3a:	006c                	addi	a1,sp,12
1c004e3c:	4501                	li	a0,0
1c004e3e:	92bff0ef          	jal	ra,1c004768 <__rt_pmu_cluster_power_down>
}
1c004e42:	40f2                	lw	ra,28(sp)
1c004e44:	4462                	lw	s0,24(sp)
1c004e46:	4501                	li	a0,0
1c004e48:	6105                	addi	sp,sp,32
1c004e4a:	8082                	ret

1c004e4c <__rt_cluster_push_fc_event>:
  while (rt_tas_lock_32((int)&__rt_cluster_fc_task_lock) == -1)
1c004e4c:	100006b7          	lui	a3,0x10000
1c004e50:	01c68693          	addi	a3,a3,28 # 1000001c <__rt_cluster_fc_task_lock>
  return addr | (1<<ARCHI_L1_TAS_BIT);
1c004e54:	c146c5b3          	p.bset	a1,a3,0,20
  ARCHI_WRITE(ARCHI_EU_DEMUX_ADDR, EU_CORE_MASK_OR, evtMask);
1c004e58:	4709                	li	a4,2
1c004e5a:	002047b7          	lui	a5,0x204
  signed int result = *(volatile signed int *)__rt_tas_addr(addr);
1c004e5e:	4190                	lw	a2,0(a1)
1c004e60:	05f62063          	p.beqimm	a2,-1,1c004ea0 <__rt_cluster_push_fc_event+0x54>
  asm("csrr %0, 0x014" : "=r" (hart_id) : );
1c004e64:	01402773          	csrr	a4,uhartid
  while(data->events != NULL)
1c004e68:	1c0107b7          	lui	a5,0x1c010
  return (hart_id >> 5) & 0x3f;
1c004e6c:	8715                	srai	a4,a4,0x5
1c004e6e:	f2673733          	p.bclr	a4,a4,25,6
1c004e72:	02800613          	li	a2,40
1c004e76:	1c478793          	addi	a5,a5,452 # 1c0101c4 <__rt_fc_cluster_data>
1c004e7a:	42c707b3          	p.mac	a5,a4,a2
1c004e7e:	4609                	li	a2,2
1c004e80:	00204737          	lui	a4,0x204
1c004e84:	43cc                	lw	a1,4(a5)
1c004e86:	e585                	bnez	a1,1c004eae <__rt_cluster_push_fc_event+0x62>
  data->events = event;
1c004e88:	c3c8                	sw	a0,4(a5)
  pulp_write32(evtAddr, coreSet);
1c004e8a:	1b2017b7          	lui	a5,0x1b201
1c004e8e:	e007a223          	sw	zero,-508(a5) # 1b200e04 <__fc_tcdm_end+0x1ffa34>
  *(volatile signed int *)addr = value;
1c004e92:	0006a023          	sw	zero,0(a3)
1c004e96:	002047b7          	lui	a5,0x204
1c004e9a:	1007a223          	sw	zero,260(a5) # 204104 <__L2+0x184104>
}
1c004e9e:	8082                	ret
  ARCHI_WRITE(ARCHI_EU_DEMUX_ADDR, EU_CORE_MASK_OR, evtMask);
1c004ea0:	00e7a423          	sw	a4,8(a5)
  value = __builtin_pulp_event_unit_read_fenced((int *)base, offset);
1c004ea4:	03c7e603          	p.elw	a2,60(a5)
  ARCHI_WRITE(ARCHI_EU_DEMUX_ADDR, EU_CORE_MASK_AND, evtMask);
1c004ea8:	00e7a223          	sw	a4,4(a5)
1c004eac:	bf4d                	j	1c004e5e <__rt_cluster_push_fc_event+0x12>
  ARCHI_WRITE(ARCHI_EU_DEMUX_ADDR, EU_CORE_MASK_OR, evtMask);
1c004eae:	00c72423          	sw	a2,8(a4) # 204008 <__L2+0x184008>
  value = __builtin_pulp_event_unit_read_fenced((int *)base, offset);
1c004eb2:	03c76583          	p.elw	a1,60(a4)
  ARCHI_WRITE(ARCHI_EU_DEMUX_ADDR, EU_CORE_MASK_AND, evtMask);
1c004eb6:	00c72223          	sw	a2,4(a4)
1c004eba:	b7e9                	j	1c004e84 <__rt_cluster_push_fc_event+0x38>

1c004ebc <__rt_cluster_new>:
  err |= __rt_cbsys_add(RT_CBSYS_START, __rt_cluster_init, NULL);
1c004ebc:	1c0055b7          	lui	a1,0x1c005
{
1c004ec0:	1141                	addi	sp,sp,-16
  err |= __rt_cbsys_add(RT_CBSYS_START, __rt_cluster_init, NULL);
1c004ec2:	4601                	li	a2,0
1c004ec4:	bb458593          	addi	a1,a1,-1100 # 1c004bb4 <__rt_cluster_init>
1c004ec8:	4501                	li	a0,0
{
1c004eca:	c606                	sw	ra,12(sp)
  err |= __rt_cbsys_add(RT_CBSYS_START, __rt_cluster_init, NULL);
1c004ecc:	c59fe0ef          	jal	ra,1c003b24 <__rt_cbsys_add>
  if (err) rt_fatal("Unable to initialize time driver\n");
1c004ed0:	c10d                	beqz	a0,1c004ef2 <__rt_cluster_new+0x36>
  asm("csrr %0, 0x014" : "=r" (hart_id) : );
1c004ed2:	01402673          	csrr	a2,uhartid
1c004ed6:	1c007537          	lui	a0,0x1c007
  return (hart_id >> 5) & 0x3f;
1c004eda:	40565593          	srai	a1,a2,0x5
1c004ede:	f265b5b3          	p.bclr	a1,a1,25,6
1c004ee2:	f4563633          	p.bclr	a2,a2,26,5
1c004ee6:	38450513          	addi	a0,a0,900 # 1c007384 <sbox+0x1b4>
1c004eea:	725000ef          	jal	ra,1c005e0e <printf>
1c004eee:	68b000ef          	jal	ra,1c005d78 <abort>
}
1c004ef2:	40b2                	lw	ra,12(sp)
1c004ef4:	0141                	addi	sp,sp,16
1c004ef6:	8082                	ret

1c004ef8 <__rt_cluster_pulpos_emu_init>:
static struct pi_device *__rt_fc_cluster_device;
static struct pi_cluster_task __rt_pulpos_emu_global_cluster_task;


static void __attribute__((constructor)) __rt_cluster_pulpos_emu_init()
{
1c004ef8:	1141                	addi	sp,sp,-16
  int nb_cluster = rt_nb_cluster();

  __rt_fc_cluster_device = rt_alloc(RT_ALLOC_FC_DATA, sizeof(struct pi_device)*nb_cluster);
1c004efa:	45b1                	li	a1,12
1c004efc:	4505                	li	a0,1
{
1c004efe:	c606                	sw	ra,12(sp)
  __rt_fc_cluster_device = rt_alloc(RT_ALLOC_FC_DATA, sizeof(struct pi_device)*nb_cluster);
1c004f00:	a7eff0ef          	jal	ra,1c00417e <rt_alloc>
1c004f04:	1c0107b7          	lui	a5,0x1c010
1c004f08:	fca7a223          	sw	a0,-60(a5) # 1c00ffc4 <__rt_fc_cluster_device>
  if (__rt_fc_cluster_device == NULL) {
1c004f0c:	e10d                	bnez	a0,1c004f2e <__rt_cluster_pulpos_emu_init+0x36>
  asm("csrr %0, 0x014" : "=r" (hart_id) : );
1c004f0e:	01402673          	csrr	a2,uhartid
    rt_fatal("Unable to allocate cluster control structure\n");
1c004f12:	1c007537          	lui	a0,0x1c007
  return (hart_id >> 5) & 0x3f;
1c004f16:	40565593          	srai	a1,a2,0x5
1c004f1a:	f265b5b3          	p.bclr	a1,a1,25,6
1c004f1e:	f4563633          	p.bclr	a2,a2,26,5
1c004f22:	3cc50513          	addi	a0,a0,972 # 1c0073cc <sbox+0x1fc>
1c004f26:	6e9000ef          	jal	ra,1c005e0e <printf>
1c004f2a:	64f000ef          	jal	ra,1c005d78 <abort>
    return;
  }
}
1c004f2e:	40b2                	lw	ra,12(sp)
1c004f30:	0141                	addi	sp,sp,16
1c004f32:	8082                	ret

1c004f34 <rt_cluster_call>:

int rt_cluster_call(rt_cluster_call_t *_call, int cid, void (*entry)(void *arg), void *arg, void *stacks, int master_stack_size, int slave_stack_size, int nb_pe, rt_event_t *event)
{
1c004f34:	7139                	addi	sp,sp,-64
1c004f36:	d84a                	sw	s2,48(sp)
1c004f38:	4906                	lw	s2,64(sp)
1c004f3a:	dc22                	sw	s0,56(sp)
1c004f3c:	842e                	mv	s0,a1
1c004f3e:	de06                	sw	ra,60(sp)
1c004f40:	da26                	sw	s1,52(sp)
1c004f42:	d64e                	sw	s3,44(sp)
  return __builtin_pulp_read_then_spr_bit_clr(reg, val);
1c004f44:	300479f3          	csrrci	s3,mstatus,8
  __asm__ __volatile__ ("" : : : "memory");
1c004f48:	84ca                	mv	s1,s2
  if (likely(event != NULL)) return event;
1c004f4a:	02091163          	bnez	s2,1c004f6c <rt_cluster_call+0x38>
  return __rt_wait_event_prepare_blocking();
1c004f4e:	ce32                	sw	a2,28(sp)
1c004f50:	cc36                	sw	a3,24(sp)
1c004f52:	ca3a                	sw	a4,20(sp)
1c004f54:	c83e                	sw	a5,16(sp)
1c004f56:	c642                	sw	a6,12(sp)
1c004f58:	c446                	sw	a7,8(sp)
1c004f5a:	fcdfe0ef          	jal	ra,1c003f26 <__rt_wait_event_prepare_blocking>
1c004f5e:	48a2                	lw	a7,8(sp)
1c004f60:	4832                	lw	a6,12(sp)
1c004f62:	47c2                	lw	a5,16(sp)
1c004f64:	4752                	lw	a4,20(sp)
1c004f66:	46e2                	lw	a3,24(sp)
1c004f68:	4672                	lw	a2,28(sp)
1c004f6a:	84aa                	mv	s1,a0
static inline struct pi_cluster_task *pi_cluster_task(struct pi_cluster_task *task, void (*entry)(void*), void *arg)
{
    #if defined(PMSIS_DRIVERS)
    memset(task, 0, sizeof(struct pi_cluster_task));
    #endif  /* PMSIS_DRIVERS */
    task->entry = entry;
1c004f6c:	1c0105b7          	lui	a1,0x1c010
1c004f70:	de858513          	addi	a0,a1,-536 # 1c00fde8 <_bss_start>
  struct pi_cluster_task *task = &__rt_pulpos_emu_global_cluster_task;

  pi_cluster_task(task, entry, arg);

  task->stacks = stacks;
  task->stack_size = master_stack_size;
1c004f74:	c55c                	sw	a5,12(a0)
  task->slave_stack_size = slave_stack_size;
  task->nb_cores = nb_pe;

  if (pi_cluster_send_task_to_cl_async(&__rt_fc_cluster_device[cid], task, call_event))
1c004f76:	1c0107b7          	lui	a5,0x1c010
1c004f7a:	c110                	sw	a2,0(a0)
    task->arg = arg;
1c004f7c:	c154                	sw	a3,4(a0)
  task->stacks = stacks;
1c004f7e:	c518                	sw	a4,8(a0)
  task->slave_stack_size = slave_stack_size;
1c004f80:	01052823          	sw	a6,16(a0)
  task->nb_cores = nb_pe;
1c004f84:	01152a23          	sw	a7,20(a0)
  if (pi_cluster_send_task_to_cl_async(&__rt_fc_cluster_device[cid], task, call_event))
1c004f88:	fc47a503          	lw	a0,-60(a5) # 1c00ffc4 <__rt_fc_cluster_device>
1c004f8c:	47b1                	li	a5,12
1c004f8e:	8626                	mv	a2,s1
1c004f90:	42f40533          	p.mac	a0,s0,a5
1c004f94:	de858593          	addi	a1,a1,-536
1c004f98:	2061                	jal	1c005020 <pi_cluster_send_task_to_cl_async>
1c004f9a:	842a                	mv	s0,a0
1c004f9c:	cd01                	beqz	a0,1c004fb4 <rt_cluster_call+0x80>
  __builtin_pulp_spr_write(reg, val);
1c004f9e:	30099073          	csrw	mstatus,s3
  {
  	rt_irq_restore(irq);
  	return -1;
1c004fa2:	547d                	li	s0,-1
  __rt_wait_event_check(event, call_event);

  rt_irq_restore(irq);

  return 0;
}
1c004fa4:	8522                	mv	a0,s0
1c004fa6:	50f2                	lw	ra,60(sp)
1c004fa8:	5462                	lw	s0,56(sp)
1c004faa:	54d2                	lw	s1,52(sp)
1c004fac:	5942                	lw	s2,48(sp)
1c004fae:	59b2                	lw	s3,44(sp)
1c004fb0:	6121                	addi	sp,sp,64
1c004fb2:	8082                	ret
  if (event == NULL) __rt_wait_event(call_event);
1c004fb4:	00091563          	bnez	s2,1c004fbe <rt_cluster_call+0x8a>
1c004fb8:	8526                	mv	a0,s1
1c004fba:	8bcff0ef          	jal	ra,1c004076 <__rt_wait_event>
1c004fbe:	30099073          	csrw	mstatus,s3
  return 0;
1c004fc2:	b7cd                	j	1c004fa4 <rt_cluster_call+0x70>

1c004fc4 <rt_cluster_mount>:

void rt_cluster_mount(int mount, int cid, int flags, rt_event_t *event)
{
1c004fc4:	7139                	addi	sp,sp,-64
1c004fc6:	dc22                	sw	s0,56(sp)
1c004fc8:	da26                	sw	s1,52(sp)
1c004fca:	d84a                	sw	s2,48(sp)
1c004fcc:	4431                	li	s0,12
1c004fce:	1c0104b7          	lui	s1,0x1c010
1c004fd2:	de06                	sw	ra,60(sp)
1c004fd4:	d64e                	sw	s3,44(sp)
1c004fd6:	8936                	mv	s2,a3
1c004fd8:	02858433          	mul	s0,a1,s0
1c004fdc:	fc448493          	addi	s1,s1,-60 # 1c00ffc4 <__rt_fc_cluster_device>
  if (mount)
1c004fe0:	c91d                	beqz	a0,1c005016 <rt_cluster_mount+0x52>
  {
    struct pi_cluster_conf conf;
    pi_cluster_conf_init(&conf);
1c004fe2:	850a                	mv	a0,sp
1c004fe4:	89ae                	mv	s3,a1
1c004fe6:	d59ff0ef          	jal	ra,1c004d3e <pi_cluster_conf_init>
    pi_open_from_conf(&__rt_fc_cluster_device[cid], &conf);
1c004fea:	4088                	lw	a0,0(s1)
1c004fec:	858a                	mv	a1,sp
1c004fee:	9522                	add	a0,a0,s0
1c004ff0:	9c5fe0ef          	jal	ra,1c0039b4 <pi_open_from_conf>
    conf.id = cid;
    pi_cluster_open(&__rt_fc_cluster_device[cid]);
1c004ff4:	4088                	lw	a0,0(s1)
    conf.id = cid;
1c004ff6:	c24e                	sw	s3,4(sp)
    pi_cluster_open(&__rt_fc_cluster_device[cid]);
1c004ff8:	9522                	add	a0,a0,s0
1c004ffa:	d4bff0ef          	jal	ra,1c004d44 <pi_cluster_open>
  else
  {
    pi_cluster_close(&__rt_fc_cluster_device[cid]);
  }

  if (event)
1c004ffe:	00090563          	beqz	s2,1c005008 <rt_cluster_mount+0x44>
    rt_event_push(event);
1c005002:	854a                	mv	a0,s2
1c005004:	febfe0ef          	jal	ra,1c003fee <rt_event_push>
}
1c005008:	50f2                	lw	ra,60(sp)
1c00500a:	5462                	lw	s0,56(sp)
1c00500c:	54d2                	lw	s1,52(sp)
1c00500e:	5942                	lw	s2,48(sp)
1c005010:	59b2                	lw	s3,44(sp)
1c005012:	6121                	addi	sp,sp,64
1c005014:	8082                	ret
    pi_cluster_close(&__rt_fc_cluster_device[cid]);
1c005016:	4088                	lw	a0,0(s1)
1c005018:	9522                	add	a0,a0,s0
1c00501a:	e01ff0ef          	jal	ra,1c004e1a <pi_cluster_close>
1c00501e:	b7c5                	j	1c004ffe <rt_cluster_mount+0x3a>

1c005020 <pi_cluster_send_task_to_cl_async>:
  }
}
#endif

int pi_cluster_send_task_to_cl_async(struct pi_device *device, struct pi_cluster_task *task, pi_task_t *async_task)
{
1c005020:	1101                	addi	sp,sp,-32
1c005022:	ca26                	sw	s1,20(sp)
  rt_fc_cluster_data_t *data = (rt_fc_cluster_data_t *)device->data;
1c005024:	4504                	lw	s1,8(a0)
{
1c005026:	cc22                	sw	s0,24(sp)
1c005028:	c256                	sw	s5,4(sp)
1c00502a:	842e                	mv	s0,a1
1c00502c:	8ab2                	mv	s5,a2
1c00502e:	ce06                	sw	ra,28(sp)
1c005030:	c84a                	sw	s2,16(sp)
1c005032:	c64e                	sw	s3,12(sp)
1c005034:	c452                	sw	s4,8(sp)
  return __builtin_pulp_read_then_spr_bit_clr(reg, val);
1c005036:	30047a73          	csrrci	s4,mstatus,8

  int lock = __rt_cluster_lock(data);

  __rt_task_init(async_task);
  
  task->implem.pending = 1;
1c00503a:	4785                	li	a5,1

void __rt_event_sched_init();

static inline void __rt_task_init(pi_task_t *task)
{
  task->done = 0;
1c00503c:	00060a23          	sb	zero,20(a2)
1c005040:	d1dc                	sw	a5,36(a1)

  rt_cluster_call_pool_t *cl_data = data->pool;

  if (task->nb_cores == 0)
1c005042:	49dc                	lw	a5,20(a1)
  rt_cluster_call_pool_t *cl_data = data->pool;
1c005044:	0144a983          	lw	s3,20(s1)
  if (task->nb_cores == 0)
1c005048:	e399                	bnez	a5,1c00504e <pi_cluster_send_task_to_cl_async+0x2e>
    task->nb_cores = pi_cl_cluster_nb_cores();
1c00504a:	47a1                	li	a5,8
1c00504c:	c9dc                	sw	a5,20(a1)

  if (task->stacks == NULL)
1c00504e:	441c                	lw	a5,8(s0)
1c005050:	ef85                	bnez	a5,1c005088 <pi_cluster_send_task_to_cl_async+0x68>
  {
    if (task->stack_size == 0)
1c005052:	445c                	lw	a5,12(s0)
1c005054:	eb81                	bnez	a5,1c005064 <pi_cluster_send_task_to_cl_async+0x44>
    {
      task->stack_size = 0x800;
1c005056:	6785                	lui	a5,0x1
1c005058:	80078793          	addi	a5,a5,-2048 # 800 <__rt_stack_size>
1c00505c:	c45c                	sw	a5,12(s0)
      task->slave_stack_size = 0x400;
1c00505e:	40000793          	li	a5,1024
1c005062:	c81c                	sw	a5,16(s0)
    }

    if (task->slave_stack_size == 0)
1c005064:	481c                	lw	a5,16(s0)
1c005066:	00c42903          	lw	s2,12(s0)
1c00506a:	e399                	bnez	a5,1c005070 <pi_cluster_send_task_to_cl_async+0x50>
      task->slave_stack_size = task->stack_size;
1c00506c:	01242823          	sw	s2,16(s0)

    int stacks_size = task->stack_size + task->slave_stack_size * (task->nb_cores - 1);
1c005070:	485c                	lw	a5,20(s0)
1c005072:	4818                	lw	a4,16(s0)

    if (data->stacks == NULL || stacks_size != data->stacks_size)
1c005074:	448c                	lw	a1,8(s1)
    int stacks_size = task->stack_size + task->slave_stack_size * (task->nb_cores - 1);
1c005076:	17fd                	addi	a5,a5,-1
1c005078:	42e78933          	p.mac	s2,a5,a4
    if (data->stacks == NULL || stacks_size != data->stacks_size)
1c00507c:	c9b5                	beqz	a1,1c0050f0 <pi_cluster_send_task_to_cl_async+0xd0>
1c00507e:	44d0                	lw	a2,12(s1)
1c005080:	05261f63          	bne	a2,s2,1c0050de <pi_cluster_send_task_to_cl_async+0xbe>

      if (data->stacks == NULL)
        goto error;
    }

    task->stacks = data->stacks;
1c005084:	449c                	lw	a5,8(s1)
1c005086:	c41c                	sw	a5,8(s0)

  task->completion_callback = async_task;
#ifdef ARCHI_HAS_CC
  task->implem.core_mask = (1<<(task->nb_cores-1)) - 1;
#else
  task->implem.core_mask = (1<<task->nb_cores) - 1;
1c005088:	4858                	lw	a4,20(s0)
1c00508a:	4785                	li	a5,1
  task->completion_callback = async_task;
1c00508c:	01542c23          	sw	s5,24(s0)
  task->implem.core_mask = (1<<task->nb_cores) - 1;
1c005090:	00e797b3          	sll	a5,a5,a4
1c005094:	17fd                	addi	a5,a5,-1
1c005096:	d41c                	sw	a5,40(s0)
#endif

  task->next = NULL;
1c005098:	02042023          	sw	zero,32(s0)

  rt_compiler_barrier();

  if (cl_data->last_call_fc)
1c00509c:	0089a783          	lw	a5,8(s3)
1c0050a0:	cbb5                	beqz	a5,1c005114 <pi_cluster_send_task_to_cl_async+0xf4>
  {
    cl_data->last_call_fc->next = task;
1c0050a2:	d380                	sw	s0,32(a5)
  else
  {
    cl_data->first_call_fc = task;
  }

  cl_data->last_call_fc = task;
1c0050a4:	0089a423          	sw	s0,8(s3)

  rt_compiler_barrier();
  
  if (cl_data->first_call_fc_for_cl == NULL)
1c0050a8:	0009a783          	lw	a5,0(s3)
1c0050ac:	e399                	bnez	a5,1c0050b2 <pi_cluster_send_task_to_cl_async+0x92>
    cl_data->first_call_fc_for_cl = task;
1c0050ae:	0089a023          	sw	s0,0(s3)
  return ARCHI_CLUSTER_PERIPHERALS_GLOBAL_ADDR(cluster) + ARCHI_EU_OFFSET + EU_SW_EVENTS_AREA_BASE + EU_CORE_TRIGG_SW_EVENT + (event << 2);
1c0050b2:	509c                	lw	a5,32(s1)
  pulp_write32(evtAddr, coreSet);
1c0050b4:	00201737          	lui	a4,0x201
1c0050b8:	e0470713          	addi	a4,a4,-508 # 200e04 <__L2+0x180e04>
  return ARCHI_CLUSTER_PERIPHERALS_GLOBAL_ADDR(cluster) + ARCHI_EU_OFFSET + EU_SW_EVENTS_AREA_BASE + EU_CORE_TRIGG_SW_EVENT + (event << 2);
1c0050bc:	04078793          	addi	a5,a5,64
1c0050c0:	07da                	slli	a5,a5,0x16
  pulp_write32(evtAddr, coreSet);
1c0050c2:	0007e723          	p.sw	zero,a4(a5)
  __builtin_pulp_spr_write(reg, val);
1c0050c6:	300a1073          	csrw	mstatus,s4
  rt_compiler_barrier();
  eu_evt_trig(eu_evt_trig_cluster_addr(data->cid, RT_CLUSTER_CALL_EVT), 0);

  __rt_cluster_unlock(data, lock);

  return 0;
1c0050ca:	4501                	li	a0,0

error:
  __rt_cluster_unlock(data, lock);
  return -1;
}
1c0050cc:	40f2                	lw	ra,28(sp)
1c0050ce:	4462                	lw	s0,24(sp)
1c0050d0:	44d2                	lw	s1,20(sp)
1c0050d2:	4942                	lw	s2,16(sp)
1c0050d4:	49b2                	lw	s3,12(sp)
1c0050d6:	4a22                	lw	s4,8(sp)
1c0050d8:	4a92                	lw	s5,4(sp)
1c0050da:	6105                	addi	sp,sp,32
1c0050dc:	8082                	ret

#if defined(ARCHI_HAS_L1)

extern rt_alloc_t *__rt_alloc_l1;

static inline rt_alloc_t *rt_alloc_l1(int cid) { return &__rt_alloc_l1[cid]; }
1c0050de:	509c                	lw	a5,32(s1)
1c0050e0:	1c010737          	lui	a4,0x1c010
1c0050e4:	1a472503          	lw	a0,420(a4) # 1c0101a4 <__rt_alloc_l1>
1c0050e8:	078a                	slli	a5,a5,0x2
        rt_user_free(rt_alloc_l1(data->cid), data->stacks, data->stacks_size);
1c0050ea:	953e                	add	a0,a0,a5
1c0050ec:	846ff0ef          	jal	ra,1c004132 <rt_user_free>
1c0050f0:	509c                	lw	a5,32(s1)
1c0050f2:	1c010737          	lui	a4,0x1c010
1c0050f6:	1a472503          	lw	a0,420(a4) # 1c0101a4 <__rt_alloc_l1>
1c0050fa:	078a                	slli	a5,a5,0x2
      data->stacks_size = stacks_size;
1c0050fc:	0124a623          	sw	s2,12(s1)
      data->stacks = rt_user_alloc(rt_alloc_l1(data->cid), stacks_size);
1c005100:	85ca                	mv	a1,s2
1c005102:	953e                	add	a0,a0,a5
1c005104:	fe7fe0ef          	jal	ra,1c0040ea <rt_user_alloc>
1c005108:	c488                	sw	a0,8(s1)
      if (data->stacks == NULL)
1c00510a:	fd2d                	bnez	a0,1c005084 <pi_cluster_send_task_to_cl_async+0x64>
1c00510c:	300a1073          	csrw	mstatus,s4
  return -1;
1c005110:	557d                	li	a0,-1
1c005112:	bf6d                	j	1c0050cc <pi_cluster_send_task_to_cl_async+0xac>
    cl_data->first_call_fc = task;
1c005114:	0089a223          	sw	s0,4(s3)
1c005118:	b771                	j	1c0050a4 <pi_cluster_send_task_to_cl_async+0x84>

1c00511a <pi_cluster_send_task_to_cl>:



int pi_cluster_send_task_to_cl(struct pi_device *device, struct pi_cluster_task *task)
{
1c00511a:	7175                	addi	sp,sp,-144
  return 0;
}

static inline struct pi_task *pi_task_block(struct pi_task *task)
{
  task->id = PI_TASK_NONE_ID;
1c00511c:	4785                	li	a5,1
  pi_task_t fc_task;

  pi_task_block(&fc_task);

  if (pi_cluster_send_task_to_cl_async(device, task, &fc_task))
1c00511e:	860a                	mv	a2,sp
{
1c005120:	c522                	sw	s0,136(sp)
1c005122:	c706                	sw	ra,140(sp)
1c005124:	c326                	sw	s1,132(sp)
1c005126:	c14a                	sw	s2,128(sp)
1c005128:	cc3e                	sw	a5,24(sp)
  task->arg[0] = (uint32_t)0;
1c00512a:	c202                	sw	zero,4(sp)
  task->implem.keep = 1;
1c00512c:	d43e                	sw	a5,40(sp)
1c00512e:	00010a23          	sb	zero,20(sp)
  if (pi_cluster_send_task_to_cl_async(device, task, &fc_task))
1c005132:	35fd                	jal	1c005020 <pi_cluster_send_task_to_cl_async>
  {
    return -1;
1c005134:	547d                	li	s0,-1
  if (pi_cluster_send_task_to_cl_async(device, task, &fc_task))
1c005136:	e509                	bnez	a0,1c005140 <pi_cluster_send_task_to_cl+0x26>
1c005138:	842a                	mv	s0,a0

#endif

static inline void pi_task_wait_on(struct pi_task *task)
{
  while(!task->done)
1c00513a:	01410783          	lb	a5,20(sp)
1c00513e:	cb81                	beqz	a5,1c00514e <pi_cluster_send_task_to_cl+0x34>
  }

  pi_task_wait_on(&fc_task);

  return 0;
}
1c005140:	8522                	mv	a0,s0
1c005142:	40ba                	lw	ra,140(sp)
1c005144:	442a                	lw	s0,136(sp)
1c005146:	449a                	lw	s1,132(sp)
1c005148:	490a                	lw	s2,128(sp)
1c00514a:	6149                	addi	sp,sp,144
1c00514c:	8082                	ret
  return __builtin_pulp_read_then_spr_bit_clr(reg, val);
1c00514e:	30047973          	csrrci	s2,mstatus,8
  __rt_event_execute(__rt_event_get_current_sched(), wait);
1c005152:	4585                	li	a1,1
1c005154:	01c00513          	li	a0,28
1c005158:	ebbfe0ef          	jal	ra,1c004012 <__rt_event_execute>
  __builtin_pulp_spr_write(reg, val);
1c00515c:	30091073          	csrw	mstatus,s2
1c005160:	bfe9                	j	1c00513a <pi_cluster_send_task_to_cl+0x20>

1c005162 <rt_padframe_set>:
  return __builtin_pulp_read_then_spr_bit_clr(reg, val);
1c005162:	300476f3          	csrrci	a3,mstatus,8

void rt_padframe_set(rt_padframe_profile_t *profile)
{
  int irq = rt_irq_disable();

  unsigned int *config = profile->config;
1c005166:	4158                	lw	a4,4(a0)
  pulp_write32(ARCHI_APB_SOC_CTRL_ADDR + APB_SOC_PADFUN_OFFSET(id), value);
1c005168:	1a1047b7          	lui	a5,0x1a104
1c00516c:	14078613          	addi	a2,a5,320 # 1a104140 <__l1_end+0xa104120>

  for (int i=0; i<ARCHI_APB_SOC_PADFUN_NB; i++)
  {
    hal_apb_soc_padfun_set(i, config[i]);
1c005170:	430c                	lw	a1,0(a4)
1c005172:	c20c                	sw	a1,0(a2)
1c005174:	434c                	lw	a1,4(a4)
1c005176:	14478613          	addi	a2,a5,324
1c00517a:	14878793          	addi	a5,a5,328
1c00517e:	c20c                	sw	a1,0(a2)
1c005180:	4718                	lw	a4,8(a4)
1c005182:	c398                	sw	a4,0(a5)
  __builtin_pulp_spr_write(reg, val);
1c005184:	30069073          	csrw	mstatus,a3
  }

  rt_irq_restore(irq);
}
1c005188:	8082                	ret

1c00518a <__rt_padframe_init>:
  rt_padframe_set(&__rt_padframe_profiles[0]);
1c00518a:	1c010537          	lui	a0,0x1c010
1c00518e:	c4050513          	addi	a0,a0,-960 # 1c00fc40 <__rt_padframe_profiles>
1c005192:	bfc1                	j	1c005162 <rt_padframe_set>

1c005194 <l2_memcpy>:
  req = __pi_hyper_cluster_reqs_first;
  if (req)
  {
    __pi_hyper_cluster_req_exec(req);
  }
}
1c005194:	87aa                	mv	a5,a0
1c005196:	962e                	add	a2,a2,a1
1c005198:	00c59363          	bne	a1,a2,1c00519e <l2_memcpy+0xa>
1c00519c:	8082                	ret
1c00519e:	0015c70b          	p.lbu	a4,1(a1!)
1c0051a2:	00e780ab          	p.sb	a4,1(a5!)
1c0051a6:	bfcd                	j	1c005198 <l2_memcpy+0x4>

1c0051a8 <rt_event_enqueue>:
1c0051a8:	300476f3          	csrrci	a3,mstatus,8
1c0051ac:	01c02603          	lw	a2,28(zero) # 1c <_l1_preload_size>
1c0051b0:	00052023          	sw	zero,0(a0)
1c0051b4:	01c00713          	li	a4,28
1c0051b8:	c619                	beqz	a2,1c0051c6 <rt_event_enqueue+0x1e>
1c0051ba:	435c                	lw	a5,4(a4)
1c0051bc:	c388                	sw	a0,0(a5)
1c0051be:	c348                	sw	a0,4(a4)
1c0051c0:	30069073          	csrw	mstatus,a3
1c0051c4:	8082                	ret
1c0051c6:	00a02e23          	sw	a0,28(zero) # 1c <_l1_preload_size>
1c0051ca:	bfd5                	j	1c0051be <rt_event_enqueue+0x16>

1c0051cc <__pi_hyper_copy_aligned>:
1c0051cc:	40155793          	srai	a5,a0,0x1
1c0051d0:	1a102837          	lui	a6,0x1a102
1c0051d4:	079e                	slli	a5,a5,0x7
1c0051d6:	0512                	slli	a0,a0,0x4
1c0051d8:	97c2                	add	a5,a5,a6
1c0051da:	8941                	andi	a0,a0,16
1c0051dc:	953e                	add	a0,a0,a5
1c0051de:	20000813          	li	a6,512
1c0051e2:	30800793          	li	a5,776
1c0051e6:	02d87c63          	bleu	a3,a6,1c00521e <__pi_hyper_copy_aligned+0x52>
1c0051ea:	cbd4                	sw	a3,20(a5)
1c0051ec:	1c0006b7          	lui	a3,0x1c000
1c0051f0:	5c868693          	addi	a3,a3,1480 # 1c0005c8 <__rt_hyper_handle_burst>
1c0051f4:	c394                	sw	a3,0(a5)
1c0051f6:	c3c8                	sw	a0,4(a5)
1c0051f8:	c790                	sw	a2,8(a5)
1c0051fa:	c7cc                	sw	a1,12(a5)
1c0051fc:	0107a823          	sw	a6,16(a5)
1c005200:	20000693          	li	a3,512
1c005204:	cf98                	sw	a4,24(a5)
1c005206:	1a1027b7          	lui	a5,0x1a102
1c00520a:	1ac7a023          	sw	a2,416(a5) # 1a1021a0 <__l1_end+0xa102180>
1c00520e:	00b52023          	sw	a1,0(a0)
1c005212:	00d52223          	sw	a3,4(a0)
1c005216:	47c1                	li	a5,16
1c005218:	00f52423          	sw	a5,8(a0)
1c00521c:	8082                	ret
1c00521e:	0007a823          	sw	zero,16(a5)
1c005222:	b7cd                	j	1c005204 <__pi_hyper_copy_aligned+0x38>

1c005224 <__pi_hyper_copy_exec>:
1c005224:	30800813          	li	a6,776
1c005228:	00e82e23          	sw	a4,28(a6) # 1a10201c <__l1_end+0xa101ffc>
1c00522c:	fa25b833          	p.bclr	a6,a1,29,2
1c005230:	30800793          	li	a5,776
1c005234:	00081a63          	bnez	a6,1c005248 <__pi_hyper_copy_exec+0x24>
1c005238:	fc163833          	p.bclr	a6,a2,30,1
1c00523c:	00081663          	bnez	a6,1c005248 <__pi_hyper_copy_exec+0x24>
1c005240:	fa26b833          	p.bclr	a6,a3,29,2
1c005244:	00080863          	beqz	a6,1c005254 <__pi_hyper_copy_exec+0x30>
1c005248:	fc153833          	p.bclr	a6,a0,30,1
1c00524c:	00080563          	beqz	a6,1c005256 <__pi_hyper_copy_exec+0x32>
1c005250:	0026b363          	p.bneimm	a3,2,1c005256 <__pi_hyper_copy_exec+0x32>
1c005254:	bfa5                	j	1c0051cc <__pi_hyper_copy_aligned>
1c005256:	d388                	sw	a0,32(a5)
1c005258:	853a                	mv	a0,a4
1c00525a:	d3d0                	sw	a2,36(a5)
1c00525c:	d78c                	sw	a1,40(a5)
1c00525e:	d7d4                	sw	a3,44(a5)
1c005260:	02078823          	sb	zero,48(a5)
1c005264:	dbd8                	sw	a4,52(a5)
1c005266:	a889                	j	1c0052b8 <__pi_hyper_copy_misaligned>

1c005268 <exec_pending_task>:
1c005268:	30800793          	li	a5,776
1c00526c:	5f98                	lw	a4,56(a5)
1c00526e:	c721                	beqz	a4,1c0052b6 <exec_pending_task+0x4e>
1c005270:	4f54                	lw	a3,28(a4)
1c005272:	03872803          	lw	a6,56(a4)
1c005276:	5f4c                	lw	a1,60(a4)
1c005278:	df94                	sw	a3,56(a5)
1c00527a:	ee883533          	p.bclr	a0,a6,23,8
1c00527e:	ce881833          	p.extractu	a6,a6,7,8
1c005282:	4330                	lw	a2,64(a4)
1c005284:	4374                	lw	a3,68(a4)
1c005286:	00081363          	bnez	a6,1c00528c <exec_pending_task+0x24>
1c00528a:	bf69                	j	1c005224 <__pi_hyper_copy_exec>
1c00528c:	04c72803          	lw	a6,76(a4)
1c005290:	04872883          	lw	a7,72(a4)
1c005294:	d388                	sw	a0,32(a5)
1c005296:	d3d0                	sw	a2,36(a5)
1c005298:	853a                	mv	a0,a4
1c00529a:	0506d633          	p.minu	a2,a3,a6
1c00529e:	cfd8                	sw	a4,28(a5)
1c0052a0:	d78c                	sw	a1,40(a5)
1c0052a2:	d7d0                	sw	a2,44(a5)
1c0052a4:	02078823          	sb	zero,48(a5)
1c0052a8:	dbd8                	sw	a4,52(a5)
1c0052aa:	c3b4                	sw	a3,64(a5)
1c0052ac:	0507a223          	sw	a6,68(a5)
1c0052b0:	0517a423          	sw	a7,72(a5)
1c0052b4:	a011                	j	1c0052b8 <__pi_hyper_copy_misaligned>
1c0052b6:	8082                	ret

1c0052b8 <__pi_hyper_copy_misaligned>:
1c0052b8:	7179                	addi	sp,sp,-48
1c0052ba:	d422                	sw	s0,40(sp)
1c0052bc:	30800793          	li	a5,776
1c0052c0:	ce4e                	sw	s3,28(sp)
1c0052c2:	89aa                	mv	s3,a0
1c0052c4:	5388                	lw	a0,32(a5)
1c0052c6:	d606                	sw	ra,44(sp)
1c0052c8:	d226                	sw	s1,36(sp)
1c0052ca:	d04a                	sw	s2,32(sp)
1c0052cc:	cc52                	sw	s4,24(sp)
1c0052ce:	ca56                	sw	s5,20(sp)
1c0052d0:	c85a                	sw	s6,16(sp)
1c0052d2:	c65e                	sw	s7,12(sp)
1c0052d4:	c462                	sw	s8,8(sp)
1c0052d6:	fc1537b3          	p.bclr	a5,a0,30,1
1c0052da:	30800413          	li	s0,776
1c0052de:	e7a1                	bnez	a5,1c005326 <__pi_hyper_copy_misaligned+0x6e>
1c0052e0:	1c010c37          	lui	s8,0x1c010
1c0052e4:	e14c0913          	addi	s2,s8,-492 # 1c00fe14 <__pi_hyper_temp_buffer>
1c0052e8:	4a0d                	li	s4,3
1c0052ea:	07c00a93          	li	s5,124
1c0052ee:	00190b13          	addi	s6,s2,1
1c0052f2:	5408                	lw	a0,40(s0)
1c0052f4:	5444                	lw	s1,44(s0)
1c0052f6:	5050                	lw	a2,36(s0)
1c0052f8:	00350793          	addi	a5,a0,3
1c0052fc:	c207b7b3          	p.bclr	a5,a5,1,0
1c005300:	8f89                	sub	a5,a5,a0
1c005302:	8bbe                	mv	s7,a5
1c005304:	009a6363          	bltu	s4,s1,1c00530a <__pi_hyper_copy_misaligned+0x52>
1c005308:	8ba6                	mv	s7,s1
1c00530a:	1c0b8663          	beqz	s7,1c0054d6 <__pi_hyper_copy_misaligned+0x21e>
1c00530e:	03044783          	lbu	a5,48(s0)
1c005312:	16079f63          	bnez	a5,1c005490 <__pi_hyper_copy_misaligned+0x1d8>
1c005316:	4701                	li	a4,0
1c005318:	4691                	li	a3,4
1c00531a:	c0063633          	p.bclr	a2,a2,0,0
1c00531e:	e14c0593          	addi	a1,s8,-492
1c005322:	5008                	lw	a0,32(s0)
1c005324:	a889                	j	1c005376 <__pi_hyper_copy_misaligned+0xbe>
1c005326:	540c                	lw	a1,40(s0)
1c005328:	04442883          	lw	a7,68(s0)
1c00532c:	04842303          	lw	t1,72(s0)
1c005330:	00358793          	addi	a5,a1,3
1c005334:	5050                	lw	a2,36(s0)
1c005336:	5454                	lw	a3,44(s0)
1c005338:	4038                	lw	a4,64(s0)
1c00533a:	c207b7b3          	p.bclr	a5,a5,1,0
1c00533e:	8f8d                	sub	a5,a5,a1
1c005340:	41130333          	sub	t1,t1,a7
1c005344:	4801                	li	a6,0
1c005346:	4e0d                	li	t3,3
1c005348:	84be                	mv	s1,a5
1c00534a:	00de6363          	bltu	t3,a3,1c005350 <__pi_hyper_copy_misaligned+0x98>
1c00534e:	84b6                	mv	s1,a3
1c005350:	c4b5                	beqz	s1,1c0053bc <__pi_hyper_copy_misaligned+0x104>
1c005352:	00080563          	beqz	a6,1c00535c <__pi_hyper_copy_misaligned+0xa4>
1c005356:	d050                	sw	a2,36(s0)
1c005358:	d454                	sw	a3,44(s0)
1c00535a:	c038                	sw	a4,64(s0)
1c00535c:	03044703          	lbu	a4,48(s0)
1c005360:	1c010937          	lui	s2,0x1c010
1c005364:	e1490793          	addi	a5,s2,-492 # 1c00fe14 <__pi_hyper_temp_buffer>
1c005368:	ef09                	bnez	a4,1c005382 <__pi_hyper_copy_misaligned+0xca>
1c00536a:	4691                	li	a3,4
1c00536c:	c0063633          	p.bclr	a2,a2,0,0
1c005370:	e1490593          	addi	a1,s2,-492
1c005374:	157d                	addi	a0,a0,-1
1c005376:	e57ff0ef          	jal	ra,1c0051cc <__pi_hyper_copy_aligned>
1c00537a:	4785                	li	a5,1
1c00537c:	02f40823          	sb	a5,48(s0)
1c005380:	aa3d                	j	1c0054be <__pi_hyper_copy_misaligned+0x206>
1c005382:	fc163533          	p.bclr	a0,a2,30,1
1c005386:	953e                	add	a0,a0,a5
1c005388:	8626                	mv	a2,s1
1c00538a:	02040823          	sb	zero,48(s0)
1c00538e:	e07ff0ef          	jal	ra,1c005194 <l2_memcpy>
1c005392:	5050                	lw	a2,36(s0)
1c005394:	5008                	lw	a0,32(s0)
1c005396:	4701                	li	a4,0
1c005398:	4691                	li	a3,4
1c00539a:	c0063633          	p.bclr	a2,a2,0,0
1c00539e:	e1490593          	addi	a1,s2,-492
1c0053a2:	e2bff0ef          	jal	ra,1c0051cc <__pi_hyper_copy_aligned>
1c0053a6:	505c                	lw	a5,36(s0)
1c0053a8:	97a6                	add	a5,a5,s1
1c0053aa:	d05c                	sw	a5,36(s0)
1c0053ac:	541c                	lw	a5,40(s0)
1c0053ae:	97a6                	add	a5,a5,s1
1c0053b0:	d41c                	sw	a5,40(s0)
1c0053b2:	545c                	lw	a5,44(s0)
1c0053b4:	409784b3          	sub	s1,a5,s1
1c0053b8:	d444                	sw	s1,44(s0)
1c0053ba:	a211                	j	1c0054be <__pi_hyper_copy_misaligned+0x206>
1c0053bc:	c2d1                	beqz	a3,1c005440 <__pi_hyper_copy_misaligned+0x188>
1c0053be:	00080563          	beqz	a6,1c0053c8 <__pi_hyper_copy_misaligned+0x110>
1c0053c2:	d050                	sw	a2,36(s0)
1c0053c4:	d454                	sw	a3,44(s0)
1c0053c6:	c038                	sw	a4,64(s0)
1c0053c8:	97b2                	add	a5,a5,a2
1c0053ca:	fc17b7b3          	p.bclr	a5,a5,30,1
1c0053ce:	c206b4b3          	p.bclr	s1,a3,1,0
1c0053d2:	ef89                	bnez	a5,1c0053ec <__pi_hyper_copy_misaligned+0x134>
1c0053d4:	4701                	li	a4,0
1c0053d6:	86a6                	mv	a3,s1
1c0053d8:	df5ff0ef          	jal	ra,1c0051cc <__pi_hyper_copy_aligned>
1c0053dc:	505c                	lw	a5,36(s0)
1c0053de:	5454                	lw	a3,44(s0)
1c0053e0:	97a6                	add	a5,a5,s1
1c0053e2:	d05c                	sw	a5,36(s0)
1c0053e4:	541c                	lw	a5,40(s0)
1c0053e6:	97a6                	add	a5,a5,s1
1c0053e8:	d41c                	sw	a5,40(s0)
1c0053ea:	a881                	j	1c00543a <__pi_hyper_copy_misaligned+0x182>
1c0053ec:	03044703          	lbu	a4,48(s0)
1c0053f0:	1c010937          	lui	s2,0x1c010
1c0053f4:	e1490793          	addi	a5,s2,-492 # 1c00fe14 <__pi_hyper_temp_buffer>
1c0053f8:	db2d                	beqz	a4,1c00536a <__pi_hyper_copy_misaligned+0xb2>
1c0053fa:	07c00693          	li	a3,124
1c0053fe:	04d4d4b3          	p.minu	s1,s1,a3
1c005402:	00178513          	addi	a0,a5,1
1c005406:	fff48613          	addi	a2,s1,-1
1c00540a:	02040823          	sb	zero,48(s0)
1c00540e:	d87ff0ef          	jal	ra,1c005194 <l2_memcpy>
1c005412:	5050                	lw	a2,36(s0)
1c005414:	5008                	lw	a0,32(s0)
1c005416:	86a6                	mv	a3,s1
1c005418:	4701                	li	a4,0
1c00541a:	c0063633          	p.bclr	a2,a2,0,0
1c00541e:	e1490593          	addi	a1,s2,-492
1c005422:	dabff0ef          	jal	ra,1c0051cc <__pi_hyper_copy_aligned>
1c005426:	505c                	lw	a5,36(s0)
1c005428:	5454                	lw	a3,44(s0)
1c00542a:	17fd                	addi	a5,a5,-1
1c00542c:	97a6                	add	a5,a5,s1
1c00542e:	d05c                	sw	a5,36(s0)
1c005430:	541c                	lw	a5,40(s0)
1c005432:	0685                	addi	a3,a3,1
1c005434:	17fd                	addi	a5,a5,-1
1c005436:	97a6                	add	a5,a5,s1
1c005438:	d41c                	sw	a5,40(s0)
1c00543a:	409684b3          	sub	s1,a3,s1
1c00543e:	bfad                	j	1c0053b8 <__pi_hyper_copy_misaligned+0x100>
1c005440:	e719                	bnez	a4,1c00544e <__pi_hyper_copy_misaligned+0x196>
1c005442:	00080c63          	beqz	a6,1c00545a <__pi_hyper_copy_misaligned+0x1a2>
1c005446:	d050                	sw	a2,36(s0)
1c005448:	02042623          	sw	zero,44(s0)
1c00544c:	a029                	j	1c005456 <__pi_hyper_copy_misaligned+0x19e>
1c00544e:	02e8ea63          	bltu	a7,a4,1c005482 <__pi_hyper_copy_misaligned+0x1ca>
1c005452:	fe081ae3          	bnez	a6,1c005446 <__pi_hyper_copy_misaligned+0x18e>
1c005456:	04042023          	sw	zero,64(s0)
1c00545a:	854e                	mv	a0,s3
1c00545c:	02042a23          	sw	zero,52(s0)
1c005460:	00042e23          	sw	zero,28(s0)
1c005464:	d45ff0ef          	jal	ra,1c0051a8 <rt_event_enqueue>
1c005468:	5422                	lw	s0,40(sp)
1c00546a:	50b2                	lw	ra,44(sp)
1c00546c:	5492                	lw	s1,36(sp)
1c00546e:	5902                	lw	s2,32(sp)
1c005470:	49f2                	lw	s3,28(sp)
1c005472:	4a62                	lw	s4,24(sp)
1c005474:	4ad2                	lw	s5,20(sp)
1c005476:	4b42                	lw	s6,16(sp)
1c005478:	4bb2                	lw	s7,12(sp)
1c00547a:	4c22                	lw	s8,8(sp)
1c00547c:	6145                	addi	sp,sp,48
1c00547e:	debff06f          	j	1c005268 <exec_pending_task>
1c005482:	41170733          	sub	a4,a4,a7
1c005486:	961a                	add	a2,a2,t1
1c005488:	4805                	li	a6,1
1c00548a:	04e8d6b3          	p.minu	a3,a7,a4
1c00548e:	bd6d                	j	1c005348 <__pi_hyper_copy_misaligned+0x90>
1c005490:	fc1635b3          	p.bclr	a1,a2,30,1
1c005494:	95ca                	add	a1,a1,s2
1c005496:	865e                	mv	a2,s7
1c005498:	02040823          	sb	zero,48(s0)
1c00549c:	cf9ff0ef          	jal	ra,1c005194 <l2_memcpy>
1c0054a0:	505c                	lw	a5,36(s0)
1c0054a2:	97de                	add	a5,a5,s7
1c0054a4:	d05c                	sw	a5,36(s0)
1c0054a6:	541c                	lw	a5,40(s0)
1c0054a8:	97de                	add	a5,a5,s7
1c0054aa:	d41c                	sw	a5,40(s0)
1c0054ac:	545c                	lw	a5,44(s0)
1c0054ae:	41778bb3          	sub	s7,a5,s7
1c0054b2:	03742623          	sw	s7,44(s0)
1c0054b6:	e20b9ee3          	bnez	s7,1c0052f2 <__pi_hyper_copy_misaligned+0x3a>
1c0054ba:	545c                	lw	a5,44(s0)
1c0054bc:	c7a5                	beqz	a5,1c005524 <__pi_hyper_copy_misaligned+0x26c>
1c0054be:	50b2                	lw	ra,44(sp)
1c0054c0:	5422                	lw	s0,40(sp)
1c0054c2:	5492                	lw	s1,36(sp)
1c0054c4:	5902                	lw	s2,32(sp)
1c0054c6:	49f2                	lw	s3,28(sp)
1c0054c8:	4a62                	lw	s4,24(sp)
1c0054ca:	4ad2                	lw	s5,20(sp)
1c0054cc:	4b42                	lw	s6,16(sp)
1c0054ce:	4bb2                	lw	s7,12(sp)
1c0054d0:	4c22                	lw	s8,8(sp)
1c0054d2:	6145                	addi	sp,sp,48
1c0054d4:	8082                	ret
1c0054d6:	d0f5                	beqz	s1,1c0054ba <__pi_hyper_copy_misaligned+0x202>
1c0054d8:	97b2                	add	a5,a5,a2
1c0054da:	fc17b7b3          	p.bclr	a5,a5,30,1
1c0054de:	c204b4b3          	p.bclr	s1,s1,1,0
1c0054e2:	e791                	bnez	a5,1c0054ee <__pi_hyper_copy_misaligned+0x236>
1c0054e4:	85aa                	mv	a1,a0
1c0054e6:	4701                	li	a4,0
1c0054e8:	86a6                	mv	a3,s1
1c0054ea:	5008                	lw	a0,32(s0)
1c0054ec:	b5f5                	j	1c0053d8 <__pi_hyper_copy_misaligned+0x120>
1c0054ee:	03044783          	lbu	a5,48(s0)
1c0054f2:	0554d4b3          	p.minu	s1,s1,s5
1c0054f6:	e789                	bnez	a5,1c005500 <__pi_hyper_copy_misaligned+0x248>
1c0054f8:	4701                	li	a4,0
1c0054fa:	00448693          	addi	a3,s1,4
1c0054fe:	bd31                	j	1c00531a <__pi_hyper_copy_misaligned+0x62>
1c005500:	8626                	mv	a2,s1
1c005502:	85da                	mv	a1,s6
1c005504:	02040823          	sb	zero,48(s0)
1c005508:	c8dff0ef          	jal	ra,1c005194 <l2_memcpy>
1c00550c:	505c                	lw	a5,36(s0)
1c00550e:	5454                	lw	a3,44(s0)
1c005510:	97a6                	add	a5,a5,s1
1c005512:	d05c                	sw	a5,36(s0)
1c005514:	541c                	lw	a5,40(s0)
1c005516:	97a6                	add	a5,a5,s1
1c005518:	409684b3          	sub	s1,a3,s1
1c00551c:	d41c                	sw	a5,40(s0)
1c00551e:	d444                	sw	s1,44(s0)
1c005520:	dcc9                	beqz	s1,1c0054ba <__pi_hyper_copy_misaligned+0x202>
1c005522:	bbc1                	j	1c0052f2 <__pi_hyper_copy_misaligned+0x3a>
1c005524:	4038                	lw	a4,64(s0)
1c005526:	db15                	beqz	a4,1c00545a <__pi_hyper_copy_misaligned+0x1a2>
1c005528:	407c                	lw	a5,68(s0)
1c00552a:	00e7ff63          	bleu	a4,a5,1c005548 <__pi_hyper_copy_misaligned+0x290>
1c00552e:	8f1d                	sub	a4,a4,a5
1c005530:	c038                	sw	a4,64(s0)
1c005532:	4034                	lw	a3,64(s0)
1c005534:	d29d                	beqz	a3,1c00545a <__pi_hyper_copy_misaligned+0x1a2>
1c005536:	5058                	lw	a4,36(s0)
1c005538:	4430                	lw	a2,72(s0)
1c00553a:	9732                	add	a4,a4,a2
1c00553c:	8f1d                	sub	a4,a4,a5
1c00553e:	04d7d7b3          	p.minu	a5,a5,a3
1c005542:	d058                	sw	a4,36(s0)
1c005544:	d45c                	sw	a5,44(s0)
1c005546:	b375                	j	1c0052f2 <__pi_hyper_copy_misaligned+0x3a>
1c005548:	04042023          	sw	zero,64(s0)
1c00554c:	b7dd                	j	1c005532 <__pi_hyper_copy_misaligned+0x27a>

1c00554e <__rt_hyper_resume_emu_task>:
  __pi_hyper_copy_misaligned(__rt_hyper_pending_emu_task);
1c00554e:	33c02503          	lw	a0,828(zero) # 33c <__rt_hyper_pending_emu_task>
1c005552:	d67ff06f          	j	1c0052b8 <__pi_hyper_copy_misaligned>

1c005556 <__rt_hyper_resume_copy>:
  exec_pending_task();
1c005556:	d13ff06f          	j	1c005268 <exec_pending_task>

1c00555a <__rt_hyper_init>:
{
1c00555a:	1141                	addi	sp,sp,-16
  __pi_hyper_cluster_reqs_first = NULL;
1c00555c:	1c010737          	lui	a4,0x1c010
{
1c005560:	c422                	sw	s0,8(sp)
1c005562:	c606                	sw	ra,12(sp)
  __rt_hyper_end_task = NULL;
1c005564:	30800793          	li	a5,776
  rt_irq_set_handler(ARCHI_FC_IRQ_HYPER_RX, __rt_hyper_handler);
1c005568:	1c000437          	lui	s0,0x1c000
  __pi_hyper_cluster_reqs_first = NULL;
1c00556c:	fc072423          	sw	zero,-56(a4) # 1c00ffc8 <__pi_hyper_cluster_reqs_first>
  __rt_hyper_pending_emu_channel = -1;
1c005570:	577d                	li	a4,-1
  rt_irq_set_handler(ARCHI_FC_IRQ_HYPER_RX, __rt_hyper_handler);
1c005572:	5b240593          	addi	a1,s0,1458 # 1c0005b2 <__rt_hyper_handler>
  __rt_hyper_pending_emu_channel = -1;
1c005576:	d398                	sw	a4,32(a5)
  rt_irq_set_handler(ARCHI_FC_IRQ_HYPER_RX, __rt_hyper_handler);
1c005578:	4579                	li	a0,30
  __rt_hyper_open_count = 0;
1c00557a:	1c010737          	lui	a4,0x1c010
  __rt_hyper_end_task = NULL;
1c00557e:	0007ac23          	sw	zero,24(a5)
  __rt_hyper_current_task = NULL;
1c005582:	0007ae23          	sw	zero,28(a5)
  __rt_hyper_pending_tasks = NULL;
1c005586:	0207ac23          	sw	zero,56(a5)
  __rt_hyper_open_count = 0;
1c00558a:	fc072623          	sw	zero,-52(a4) # 1c00ffcc <__rt_hyper_open_count>
  __rt_hyper_pending_emu_size = 0;
1c00558e:	0207a623          	sw	zero,44(a5)
  __rt_hyper_pending_emu_size_2d = 0;
1c005592:	0407a023          	sw	zero,64(a5)
  rt_irq_set_handler(ARCHI_FC_IRQ_HYPER_RX, __rt_hyper_handler);
1c005596:	c22fe0ef          	jal	ra,1c0039b8 <rt_irq_set_handler>
  rt_irq_set_handler(ARCHI_FC_IRQ_HYPER_TX, __rt_hyper_handler);
1c00559a:	5b240593          	addi	a1,s0,1458
}
1c00559e:	4422                	lw	s0,8(sp)
1c0055a0:	40b2                	lw	ra,12(sp)
  rt_irq_set_handler(ARCHI_FC_IRQ_HYPER_TX, __rt_hyper_handler);
1c0055a2:	4575                	li	a0,29
}
1c0055a4:	0141                	addi	sp,sp,16
  rt_irq_set_handler(ARCHI_FC_IRQ_HYPER_TX, __rt_hyper_handler);
1c0055a6:	c12fe06f          	j	1c0039b8 <rt_irq_set_handler>

1c0055aa <__pi_gpio_handler>:
  }
}


void __pi_gpio_handler(void *arg)
{
1c0055aa:	1141                	addi	sp,sp,-16
  return pulp_read32(ARCHI_GPIO_ADDR + ARCHI_GPIO_INTTYPE(id));
}

static inline unsigned int hal_gpio_intstatus_get()
{
  return pulp_read32(ARCHI_GPIO_ADDR + ARCHI_GPIO_INTSTATUS);
1c0055ac:	1a1017b7          	lui	a5,0x1a101
  (void) arg;

  /* Retrieve IRQ status from GPIO. Handle task if needed. */
  pi_gpio_t *gpio = &__rt_gpio[0];
  gpio->irq_status = hal_gpio_intstatus_get();
1c0055b0:	1c0106b7          	lui	a3,0x1c010
{
1c0055b4:	c422                	sw	s0,8(sp)
1c0055b6:	4f80                	lw	s0,24(a5)
  gpio->irq_status = hal_gpio_intstatus_get();
1c0055b8:	e9468793          	addi	a5,a3,-364 # 1c00fe94 <__rt_gpio>
{
1c0055bc:	c226                	sw	s1,4(sp)

  if (gpio->cb != NULL)
1c0055be:	4bc4                	lw	s1,20(a5)
{
1c0055c0:	c606                	sw	ra,12(sp)
  gpio->irq_status = hal_gpio_intstatus_get();
1c0055c2:	c780                	sw	s0,8(a5)
  if (gpio->cb != NULL)
1c0055c4:	cc91                	beqz	s1,1c0055e0 <__pi_gpio_handler+0x36>
    if (irq_mask & tmp_cb->pin_mask)
1c0055c6:	409c                	lw	a5,0(s1)
1c0055c8:	8fe1                	and	a5,a5,s0
1c0055ca:	c781                	beqz	a5,1c0055d2 <__pi_gpio_handler+0x28>
      tmp_cb->handler(tmp_cb->args);
1c0055cc:	40dc                	lw	a5,4(s1)
1c0055ce:	4488                	lw	a0,8(s1)
1c0055d0:	9782                	jalr	a5
    tmp_cb = tmp_cb->next;
1c0055d2:	44c4                	lw	s1,12(s1)
  while (tmp_cb != NULL)
1c0055d4:	f8ed                	bnez	s1,1c0055c6 <__pi_gpio_handler+0x1c>
      }
      irq_mask = irq_mask >> 1;
      pin++;
    }
  }
}
1c0055d6:	40b2                	lw	ra,12(sp)
1c0055d8:	4422                	lw	s0,8(sp)
1c0055da:	4492                	lw	s1,4(sp)
1c0055dc:	0141                	addi	sp,sp,16
1c0055de:	8082                	ret
1c0055e0:	e9468693          	addi	a3,a3,-364
    irq_mask = (gpio->irq_status & gpio->input_mask);
1c0055e4:	46dc                	lw	a5,12(a3)
    uint8_t pin = 0;
1c0055e6:	4701                	li	a4,0
    irq_mask = (gpio->irq_status & gpio->input_mask);
1c0055e8:	8fe1                	and	a5,a5,s0
1c0055ea:	01c00513          	li	a0,28
    while (irq_mask)
1c0055ee:	d7e5                	beqz	a5,1c0055d6 <__pi_gpio_handler+0x2c>
      if (irq_mask & 0x1)
1c0055f0:	fc17b633          	p.bclr	a2,a5,30,1
1c0055f4:	c615                	beqz	a2,1c005620 <__pi_gpio_handler+0x76>
        task = gpio->event_task[pin];
1c0055f6:	00470613          	addi	a2,a4,4
1c0055fa:	060a                	slli	a2,a2,0x2
1c0055fc:	9636                	add	a2,a2,a3
1c0055fe:	4610                	lw	a2,8(a2)
        if (task != NULL)
1c005600:	c205                	beqz	a2,1c005620 <__pi_gpio_handler+0x76>
  return __builtin_pulp_read_then_spr_bit_clr(reg, val);
1c005602:	30047873          	csrrci	a6,mstatus,8
  if (sched->first) {
1c005606:	01c02883          	lw	a7,28(zero) # 1c <_l1_preload_size>
  event->next = NULL;
1c00560a:	00062023          	sw	zero,0(a2)
  if (sched->first) {
1c00560e:	00088e63          	beqz	a7,1c00562a <__pi_gpio_handler+0x80>
    sched->last->next = event;
1c005612:	00452883          	lw	a7,4(a0)
1c005616:	00c8a023          	sw	a2,0(a7) # 1a102000 <__l1_end+0xa101fe0>
  sched->last = event;
1c00561a:	c150                	sw	a2,4(a0)
  __builtin_pulp_spr_write(reg, val);
1c00561c:	30081073          	csrw	mstatus,a6
      pin++;
1c005620:	0705                	addi	a4,a4,1
      irq_mask = irq_mask >> 1;
1c005622:	8385                	srli	a5,a5,0x1
      pin++;
1c005624:	0ff77713          	andi	a4,a4,255
1c005628:	b7d9                	j	1c0055ee <__pi_gpio_handler+0x44>
    sched->first = event;
1c00562a:	00c02e23          	sw	a2,28(zero) # 1c <_l1_preload_size>
1c00562e:	b7f5                	j	1c00561a <__pi_gpio_handler+0x70>

1c005630 <__rt_i2s_resume>:
  conf->pdm = 1;
  conf->dual = 0;
  conf->width = 16;
  conf->id = -1;
  conf->flags = 0;
}
1c005630:	1c0107b7          	lui	a5,0x1c010
1c005634:	4d18                	lw	a4,24(a0)
1c005636:	1b47a783          	lw	a5,436(a5) # 1c0101b4 <__rt_freq_domains>
1c00563a:	068416b7          	lui	a3,0x6841
1c00563e:	90968693          	addi	a3,a3,-1783 # 6840909 <__L2+0x67c0909>
1c005642:	02e7c7b3          	div	a5,a5,a4
1c005646:	02954703          	lbu	a4,41(a0)
1c00564a:	177d                	addi	a4,a4,-1
1c00564c:	c0874733          	p.bset	a4,a4,0,8
1c005650:	17fd                	addi	a5,a5,-1
1c005652:	8785                	srai	a5,a5,0x1
1c005654:	07c2                	slli	a5,a5,0x10
1c005656:	8fd9                	or	a5,a5,a4
1c005658:	02554703          	lbu	a4,37(a0)
1c00565c:	9736                	add	a4,a4,a3
1c00565e:	070a                	slli	a4,a4,0x2
1c005660:	c31c                	sw	a5,0(a4)
1c005662:	8082                	ret

1c005664 <__rt_i2s_setfreq_after>:
1c005664:	1141                	addi	sp,sp,-16
1c005666:	1c0107b7          	lui	a5,0x1c010
1c00566a:	c422                	sw	s0,8(sp)
1c00566c:	fd07a403          	lw	s0,-48(a5) # 1c00ffd0 <__rt_i2s_first>
1c005670:	c606                	sw	ra,12(sp)
1c005672:	e411                	bnez	s0,1c00567e <__rt_i2s_setfreq_after+0x1a>
1c005674:	40b2                	lw	ra,12(sp)
1c005676:	4422                	lw	s0,8(sp)
1c005678:	4501                	li	a0,0
1c00567a:	0141                	addi	sp,sp,16
1c00567c:	8082                	ret
1c00567e:	02844783          	lbu	a5,40(s0)
1c005682:	c399                	beqz	a5,1c005688 <__rt_i2s_setfreq_after+0x24>
1c005684:	8522                	mv	a0,s0
1c005686:	376d                	jal	1c005630 <__rt_i2s_resume>
1c005688:	4c40                	lw	s0,28(s0)
1c00568a:	b7e5                	j	1c005672 <__rt_i2s_setfreq_after+0xe>

1c00568c <__rt_i2s_setfreq_before>:
1c00568c:	1c0107b7          	lui	a5,0x1c010
1c005690:	fd07a783          	lw	a5,-48(a5) # 1c00ffd0 <__rt_i2s_first>
1c005694:	068416b7          	lui	a3,0x6841
1c005698:	90968693          	addi	a3,a3,-1783 # 6840909 <__L2+0x67c0909>
1c00569c:	e399                	bnez	a5,1c0056a2 <__rt_i2s_setfreq_before+0x16>
1c00569e:	4501                	li	a0,0
1c0056a0:	8082                	ret
1c0056a2:	0287c703          	lbu	a4,40(a5)
1c0056a6:	c719                	beqz	a4,1c0056b4 <__rt_i2s_setfreq_before+0x28>
1c0056a8:	0257c703          	lbu	a4,37(a5)
1c0056ac:	9736                	add	a4,a4,a3
1c0056ae:	070a                	slli	a4,a4,0x2
1c0056b0:	00072023          	sw	zero,0(a4)
1c0056b4:	4fdc                	lw	a5,28(a5)
1c0056b6:	b7dd                	j	1c00569c <__rt_i2s_setfreq_before+0x10>

1c0056b8 <__rt_i2s_init>:
{
  // In case the peripheral clock can dynamically change, we need to be notified
  // when this happens so that the I2S channels are stopped and resumed
  int err = 0;

  err |= __rt_cbsys_add(RT_CBSYS_PERIPH_SETFREQ_BEFORE, __rt_i2s_setfreq_before, NULL);
1c0056b8:	1c0055b7          	lui	a1,0x1c005
{
1c0056bc:	1141                	addi	sp,sp,-16
  err |= __rt_cbsys_add(RT_CBSYS_PERIPH_SETFREQ_BEFORE, __rt_i2s_setfreq_before, NULL);
1c0056be:	4601                	li	a2,0
1c0056c0:	68c58593          	addi	a1,a1,1676 # 1c00568c <__rt_i2s_setfreq_before>
1c0056c4:	4511                	li	a0,4
{
1c0056c6:	c606                	sw	ra,12(sp)
1c0056c8:	c422                	sw	s0,8(sp)
  err |= __rt_cbsys_add(RT_CBSYS_PERIPH_SETFREQ_BEFORE, __rt_i2s_setfreq_before, NULL);
1c0056ca:	c5afe0ef          	jal	ra,1c003b24 <__rt_cbsys_add>

  err |= __rt_cbsys_add(RT_CBSYS_PERIPH_SETFREQ_AFTER, __rt_i2s_setfreq_after, NULL);
1c0056ce:	1c0055b7          	lui	a1,0x1c005
  err |= __rt_cbsys_add(RT_CBSYS_PERIPH_SETFREQ_BEFORE, __rt_i2s_setfreq_before, NULL);
1c0056d2:	842a                	mv	s0,a0
  err |= __rt_cbsys_add(RT_CBSYS_PERIPH_SETFREQ_AFTER, __rt_i2s_setfreq_after, NULL);
1c0056d4:	4601                	li	a2,0
1c0056d6:	66458593          	addi	a1,a1,1636 # 1c005664 <__rt_i2s_setfreq_after>
1c0056da:	4515                	li	a0,5
1c0056dc:	c48fe0ef          	jal	ra,1c003b24 <__rt_cbsys_add>
1c0056e0:	8d41                	or	a0,a0,s0

  if (err) rt_fatal("Unable to initialize i2s driver\n");
1c0056e2:	c105                	beqz	a0,1c005702 <__rt_i2s_init+0x4a>
  asm("csrr %0, 0x014" : "=r" (hart_id) : );
1c0056e4:	01402673          	csrr	a2,uhartid
1c0056e8:	1c007537          	lui	a0,0x1c007
  return (hart_id >> 5) & 0x3f;
1c0056ec:	40565593          	srai	a1,a2,0x5
1c0056f0:	f265b5b3          	p.bclr	a1,a1,25,6
1c0056f4:	f4563633          	p.bclr	a2,a2,26,5
1c0056f8:	43c50513          	addi	a0,a0,1084 # 1c00743c <sbox+0x26c>
1c0056fc:	712000ef          	jal	ra,1c005e0e <printf>
1c005700:	2da5                	jal	1c005d78 <abort>
}
1c005702:	40b2                	lw	ra,12(sp)
1c005704:	4422                	lw	s0,8(sp)
1c005706:	0141                	addi	sp,sp,16
1c005708:	8082                	ret

1c00570a <__rt_himax_init>:
    .capture   = &__rt_himax_capture
};

RT_FC_BOOT_CODE void __attribute__((constructor)) __rt_himax_init()
{
  camera_isAwaked = 0;
1c00570a:	1b0017b7          	lui	a5,0x1b001
1c00570e:	ba078c23          	sb	zero,-1096(a5) # 1b000bb8 <camera_isAwaked>
}
1c005712:	8082                	ret

1c005714 <__rt_rtc_init>:
}


RT_FC_BOOT_CODE void __attribute__((constructor)) __rt_rtc_init()
{
  __rtc_handler = NULL;
1c005714:	35800793          	li	a5,856
1c005718:	0207ac23          	sw	zero,56(a5)
  dev_rtc.open_count = 0;
1c00571c:	02078823          	sb	zero,48(a5)
  __rt_rtc_init_done = 0;
1c005720:	0207aa23          	sw	zero,52(a5)
}
1c005724:	8082                	ret

1c005726 <__rt_spim_init>:

RT_FC_BOOT_CODE void __attribute__((constructor)) __rt_spim_init()
{
  for (int i=0; i<ARCHI_UDMA_NB_SPIM; i++)
  {
    __rt_spim_open_count[i] = 0;
1c005726:	1c0107b7          	lui	a5,0x1c010
1c00572a:	fd478793          	addi	a5,a5,-44 # 1c00ffd4 <__rt_spim_open_count>
1c00572e:	0007a023          	sw	zero,0(a5)
1c005732:	0007a223          	sw	zero,4(a5)
  }
}
1c005736:	8082                	ret

1c005738 <__rt_io_end_of_flush>:
  if (rt_iodev() == RT_IODEV_UART)
  {
    __rt_io_start(NULL);
    __rt_cbsys_add(RT_CBSYS_STOP, __rt_io_stop, NULL);
    __rt_io_pending_flush = 0;
    rt_event_alloc(NULL, 1);
1c005738:	1c0107b7          	lui	a5,0x1c010
1c00573c:	fe07a023          	sw	zero,-32(a5) # 1c00ffe0 <__rt_io_pending_flush>
1c005740:	00052c23          	sw	zero,24(a0)
1c005744:	8082                	ret

1c005746 <__rt_io_uart_wait_req>:
1c005746:	1141                	addi	sp,sp,-16
1c005748:	c226                	sw	s1,4(sp)
1c00574a:	84aa                	mv	s1,a0
1c00574c:	c606                	sw	ra,12(sp)
1c00574e:	c422                	sw	s0,8(sp)
1c005750:	c04a                	sw	s2,0(sp)
1c005752:	30047973          	csrrci	s2,mstatus,8
1c005756:	1c010437          	lui	s0,0x1c010
1c00575a:	fdc40413          	addi	s0,s0,-36 # 1c00ffdc <__rt_io_event_current>
1c00575e:	4008                	lw	a0,0(s0)
1c005760:	c509                	beqz	a0,1c00576a <__rt_io_uart_wait_req+0x24>
1c005762:	93ffe0ef          	jal	ra,1c0040a0 <rt_event_wait>
1c005766:	00042023          	sw	zero,0(s0)
1c00576a:	4785                	li	a5,1
1c00576c:	08f48023          	sb	a5,128(s1)
1c005770:	0814c783          	lbu	a5,129(s1)
1c005774:	00201737          	lui	a4,0x201
1c005778:	e0470713          	addi	a4,a4,-508 # 200e04 <__L2+0x180e04>
1c00577c:	04078793          	addi	a5,a5,64
1c005780:	07da                	slli	a5,a5,0x16
1c005782:	0007e723          	p.sw	zero,a4(a5)
1c005786:	30091073          	csrw	mstatus,s2
1c00578a:	40b2                	lw	ra,12(sp)
1c00578c:	4422                	lw	s0,8(sp)
1c00578e:	4492                	lw	s1,4(sp)
1c005790:	4902                	lw	s2,0(sp)
1c005792:	0141                	addi	sp,sp,16
1c005794:	8082                	ret

1c005796 <__rt_do_putc_host>:
1c005796:	1c010737          	lui	a4,0x1c010
1c00579a:	fe470793          	addi	a5,a4,-28 # 1c00ffe4 <__rt_putc_host_buffer_index>
1c00579e:	4390                	lw	a2,0(a5)
1c0057a0:	fe470713          	addi	a4,a4,-28
1c0057a4:	00160693          	addi	a3,a2,1
1c0057a8:	c394                	sw	a3,0(a5)
1c0057aa:	1c0107b7          	lui	a5,0x1c010
1c0057ae:	d6478593          	addi	a1,a5,-668 # 1c00fd64 <__rt_putc_host_buffer>
1c0057b2:	00a5c623          	p.sb	a0,a2(a1)
1c0057b6:	07f00593          	li	a1,127
1c0057ba:	d6478613          	addi	a2,a5,-668
1c0057be:	00b68463          	beq	a3,a1,1c0057c6 <__rt_do_putc_host+0x30>
1c0057c2:	00a53963          	p.bneimm	a0,10,1c0057d4 <__rt_do_putc_host+0x3e>
1c0057c6:	d6478513          	addi	a0,a5,-668
1c0057ca:	000646a3          	p.sb	zero,a3(a2)
1c0057ce:	00072023          	sw	zero,0(a4)
1c0057d2:	ad05                	j	1c005e02 <semihost_write0>
1c0057d4:	8082                	ret

1c0057d6 <__rt_io_start>:
1c0057d6:	1101                	addi	sp,sp,-32
1c0057d8:	0028                	addi	a0,sp,8
1c0057da:	ce06                	sw	ra,28(sp)
1c0057dc:	cc22                	sw	s0,24(sp)
1c0057de:	37e010ef          	jal	ra,1c006b5c <rt_uart_conf_init>
1c0057e2:	4585                	li	a1,1
1c0057e4:	4501                	li	a0,0
1c0057e6:	f58fe0ef          	jal	ra,1c003f3e <rt_event_alloc>
1c0057ea:	547d                	li	s0,-1
1c0057ec:	ed0d                	bnez	a0,1c005826 <__rt_io_start+0x50>
1c0057ee:	1c0107b7          	lui	a5,0x1c010
1c0057f2:	d307a783          	lw	a5,-720(a5) # 1c00fd30 <__rt_iodev_uart_baudrate>
1c0057f6:	842a                	mv	s0,a0
1c0057f8:	1c010537          	lui	a0,0x1c010
1c0057fc:	01c00593          	li	a1,28
1c005800:	f2c50513          	addi	a0,a0,-212 # 1c00ff2c <__rt_io_event>
1c005804:	c43e                	sw	a5,8(sp)
1c005806:	ef8fe0ef          	jal	ra,1c003efe <__rt_event_init>
1c00580a:	1c0107b7          	lui	a5,0x1c010
1c00580e:	fbc7a503          	lw	a0,-68(a5) # 1c00ffbc <__rt_iodev_uart_channel>
1c005812:	4681                	li	a3,0
1c005814:	4601                	li	a2,0
1c005816:	002c                	addi	a1,sp,8
1c005818:	0511                	addi	a0,a0,4
1c00581a:	352010ef          	jal	ra,1c006b6c <__rt_uart_open>
1c00581e:	1c0107b7          	lui	a5,0x1c010
1c005822:	fea7a423          	sw	a0,-24(a5) # 1c00ffe8 <_rt_io_uart>
1c005826:	8522                	mv	a0,s0
1c005828:	40f2                	lw	ra,28(sp)
1c00582a:	4462                	lw	s0,24(sp)
1c00582c:	6105                	addi	sp,sp,32
1c00582e:	8082                	ret

1c005830 <rt_event_execute.isra.4.constprop.12>:
1c005830:	1141                	addi	sp,sp,-16
1c005832:	c606                	sw	ra,12(sp)
1c005834:	c422                	sw	s0,8(sp)
1c005836:	30047473          	csrrci	s0,mstatus,8
1c00583a:	4585                	li	a1,1
1c00583c:	01c00513          	li	a0,28
1c005840:	fd2fe0ef          	jal	ra,1c004012 <__rt_event_execute>
1c005844:	30041073          	csrw	mstatus,s0
1c005848:	40b2                	lw	ra,12(sp)
1c00584a:	4422                	lw	s0,8(sp)
1c00584c:	0141                	addi	sp,sp,16
1c00584e:	8082                	ret

1c005850 <__rt_io_lock>:
1c005850:	1c0107b7          	lui	a5,0x1c010
1c005854:	c687a783          	lw	a5,-920(a5) # 1c00fc68 <__hal_debug_struct+0x10>
1c005858:	cf81                	beqz	a5,1c005870 <__rt_io_lock+0x20>
1c00585a:	1c0107b7          	lui	a5,0x1c010
1c00585e:	fe87a783          	lw	a5,-24(a5) # 1c00ffe8 <_rt_io_uart>
1c005862:	e799                	bnez	a5,1c005870 <__rt_io_lock+0x20>
1c005864:	1c0107b7          	lui	a5,0x1c010
1c005868:	d2c7a783          	lw	a5,-724(a5) # 1c00fd2c <__rt_iodev>
1c00586c:	0427b963          	p.bneimm	a5,2,1c0058be <__rt_io_lock+0x6e>
1c005870:	7135                	addi	sp,sp,-160
1c005872:	014027f3          	csrr	a5,uhartid
1c005876:	cf06                	sw	ra,156(sp)
1c005878:	ca5797b3          	p.extractu	a5,a5,5,5
1c00587c:	02000713          	li	a4,32
1c005880:	1b001537          	lui	a0,0x1b001
1c005884:	00e79963          	bne	a5,a4,1c005896 <__rt_io_lock+0x46>
1c005888:	bbc50513          	addi	a0,a0,-1092 # 1b000bbc <__rt_io_fc_lock>
1c00588c:	b28fe0ef          	jal	ra,1c003bb4 <__rt_fc_lock>
1c005890:	40fa                	lw	ra,156(sp)
1c005892:	610d                	addi	sp,sp,160
1c005894:	8082                	ret
1c005896:	004c                	addi	a1,sp,4
1c005898:	bbc50513          	addi	a0,a0,-1092
1c00589c:	b7efe0ef          	jal	ra,1c003c1a <__rt_fc_cluster_lock>
1c0058a0:	4689                	li	a3,2
1c0058a2:	00204737          	lui	a4,0x204
1c0058a6:	08c14783          	lbu	a5,140(sp)
1c0058aa:	0ff7f793          	andi	a5,a5,255
1c0058ae:	f3ed                	bnez	a5,1c005890 <__rt_io_lock+0x40>
1c0058b0:	00d72423          	sw	a3,8(a4) # 204008 <__L2+0x184008>
1c0058b4:	03c76783          	p.elw	a5,60(a4)
1c0058b8:	00d72223          	sw	a3,4(a4)
1c0058bc:	b7ed                	j	1c0058a6 <__rt_io_lock+0x56>
1c0058be:	8082                	ret

1c0058c0 <__rt_putc_host_cluster_req>:
1c0058c0:	1141                	addi	sp,sp,-16
1c0058c2:	c422                	sw	s0,8(sp)
1c0058c4:	c606                	sw	ra,12(sp)
1c0058c6:	842a                	mv	s0,a0
1c0058c8:	08954503          	lbu	a0,137(a0)
1c0058cc:	ecbff0ef          	jal	ra,1c005796 <__rt_do_putc_host>
1c0058d0:	08844783          	lbu	a5,136(s0)
1c0058d4:	4705                	li	a4,1
1c0058d6:	08e42223          	sw	a4,132(s0)
1c0058da:	00201737          	lui	a4,0x201
1c0058de:	40b2                	lw	ra,12(sp)
1c0058e0:	4422                	lw	s0,8(sp)
1c0058e2:	04078793          	addi	a5,a5,64
1c0058e6:	07da                	slli	a5,a5,0x16
1c0058e8:	e0470713          	addi	a4,a4,-508 # 200e04 <__L2+0x180e04>
1c0058ec:	0007e723          	p.sw	zero,a4(a5)
1c0058f0:	0141                	addi	sp,sp,16
1c0058f2:	8082                	ret

1c0058f4 <__rt_io_unlock>:
1c0058f4:	1c0107b7          	lui	a5,0x1c010
1c0058f8:	c687a783          	lw	a5,-920(a5) # 1c00fc68 <__hal_debug_struct+0x10>
1c0058fc:	cf81                	beqz	a5,1c005914 <__rt_io_unlock+0x20>
1c0058fe:	1c0107b7          	lui	a5,0x1c010
1c005902:	fe87a783          	lw	a5,-24(a5) # 1c00ffe8 <_rt_io_uart>
1c005906:	e799                	bnez	a5,1c005914 <__rt_io_unlock+0x20>
1c005908:	1c0107b7          	lui	a5,0x1c010
1c00590c:	d2c7a783          	lw	a5,-724(a5) # 1c00fd2c <__rt_iodev>
1c005910:	0427b963          	p.bneimm	a5,2,1c005962 <__rt_io_unlock+0x6e>
1c005914:	7135                	addi	sp,sp,-160
1c005916:	014027f3          	csrr	a5,uhartid
1c00591a:	cf06                	sw	ra,156(sp)
1c00591c:	ca5797b3          	p.extractu	a5,a5,5,5
1c005920:	02000713          	li	a4,32
1c005924:	1b001537          	lui	a0,0x1b001
1c005928:	00e79963          	bne	a5,a4,1c00593a <__rt_io_unlock+0x46>
1c00592c:	bbc50513          	addi	a0,a0,-1092 # 1b000bbc <__rt_io_fc_lock>
1c005930:	ab6fe0ef          	jal	ra,1c003be6 <__rt_fc_unlock>
1c005934:	40fa                	lw	ra,156(sp)
1c005936:	610d                	addi	sp,sp,160
1c005938:	8082                	ret
1c00593a:	004c                	addi	a1,sp,4
1c00593c:	bbc50513          	addi	a0,a0,-1092
1c005940:	b12fe0ef          	jal	ra,1c003c52 <__rt_fc_cluster_unlock>
1c005944:	4689                	li	a3,2
1c005946:	00204737          	lui	a4,0x204
1c00594a:	08c14783          	lbu	a5,140(sp)
1c00594e:	0ff7f793          	andi	a5,a5,255
1c005952:	f3ed                	bnez	a5,1c005934 <__rt_io_unlock+0x40>
1c005954:	00d72423          	sw	a3,8(a4) # 204008 <__L2+0x184008>
1c005958:	03c76783          	p.elw	a5,60(a4)
1c00595c:	00d72223          	sw	a3,4(a4)
1c005960:	b7ed                	j	1c00594a <__rt_io_unlock+0x56>
1c005962:	8082                	ret

1c005964 <__rt_io_uart_flush.constprop.11>:
1c005964:	7171                	addi	sp,sp,-176
1c005966:	d522                	sw	s0,168(sp)
1c005968:	d706                	sw	ra,172(sp)
1c00596a:	d326                	sw	s1,164(sp)
1c00596c:	d14a                	sw	s2,160(sp)
1c00596e:	cf4e                	sw	s3,156(sp)
1c005970:	cd52                	sw	s4,152(sp)
1c005972:	1c010437          	lui	s0,0x1c010
1c005976:	fe042783          	lw	a5,-32(s0) # 1c00ffe0 <__rt_io_pending_flush>
1c00597a:	fe040993          	addi	s3,s0,-32
1c00597e:	efa5                	bnez	a5,1c0059f6 <__rt_io_uart_flush.constprop.11+0x92>
1c005980:	1c010637          	lui	a2,0x1c010
1c005984:	c5860793          	addi	a5,a2,-936 # 1c00fc58 <__hal_debug_struct>
1c005988:	4f80                	lw	s0,24(a5)
1c00598a:	c5860a13          	addi	s4,a2,-936
1c00598e:	cc21                	beqz	s0,1c0059e6 <__rt_io_uart_flush.constprop.11+0x82>
1c005990:	1c010737          	lui	a4,0x1c010
1c005994:	014027f3          	csrr	a5,uhartid
1c005998:	fe872483          	lw	s1,-24(a4) # 1c00ffe8 <_rt_io_uart>
1c00599c:	ca5797b3          	p.extractu	a5,a5,5,5
1c0059a0:	02000713          	li	a4,32
1c0059a4:	1c010937          	lui	s2,0x1c010
1c0059a8:	06e79063          	bne	a5,a4,1c005a08 <__rt_io_uart_flush.constprop.11+0xa4>
1c0059ac:	1c0055b7          	lui	a1,0x1c005
1c0059b0:	4785                	li	a5,1
1c0059b2:	c5860613          	addi	a2,a2,-936
1c0059b6:	73858593          	addi	a1,a1,1848 # 1c005738 <__rt_io_end_of_flush>
1c0059ba:	4501                	li	a0,0
1c0059bc:	00f9a023          	sw	a5,0(s3)
1c0059c0:	df2fe0ef          	jal	ra,1c003fb2 <rt_event_get>
1c0059c4:	40cc                	lw	a1,4(s1)
1c0059c6:	87aa                	mv	a5,a0
1c0059c8:	4701                	li	a4,0
1c0059ca:	0586                	slli	a1,a1,0x1
1c0059cc:	86a2                	mv	a3,s0
1c0059ce:	c7490613          	addi	a2,s2,-908 # 1c00fc74 <__hal_debug_struct+0x1c>
1c0059d2:	0585                	addi	a1,a1,1
1c0059d4:	4501                	li	a0,0
1c0059d6:	ad1fe0ef          	jal	ra,1c0044a6 <rt_periph_copy>
1c0059da:	3f29                	jal	1c0058f4 <__rt_io_unlock>
1c0059dc:	0009a783          	lw	a5,0(s3)
1c0059e0:	e38d                	bnez	a5,1c005a02 <__rt_io_uart_flush.constprop.11+0x9e>
1c0059e2:	e6fff0ef          	jal	ra,1c005850 <__rt_io_lock>
1c0059e6:	50ba                	lw	ra,172(sp)
1c0059e8:	542a                	lw	s0,168(sp)
1c0059ea:	549a                	lw	s1,164(sp)
1c0059ec:	590a                	lw	s2,160(sp)
1c0059ee:	49fa                	lw	s3,156(sp)
1c0059f0:	4a6a                	lw	s4,152(sp)
1c0059f2:	614d                	addi	sp,sp,176
1c0059f4:	8082                	ret
1c0059f6:	3dfd                	jal	1c0058f4 <__rt_io_unlock>
1c0059f8:	e39ff0ef          	jal	ra,1c005830 <rt_event_execute.isra.4.constprop.12>
1c0059fc:	e55ff0ef          	jal	ra,1c005850 <__rt_io_lock>
1c005a00:	bf9d                	j	1c005976 <__rt_io_uart_flush.constprop.11+0x12>
1c005a02:	e2fff0ef          	jal	ra,1c005830 <rt_event_execute.isra.4.constprop.12>
1c005a06:	bfd9                	j	1c0059dc <__rt_io_uart_flush.constprop.11+0x78>
1c005a08:	868a                	mv	a3,sp
1c005a0a:	8622                	mv	a2,s0
1c005a0c:	c7490593          	addi	a1,s2,-908
1c005a10:	8526                	mv	a0,s1
1c005a12:	236010ef          	jal	ra,1c006c48 <rt_uart_cluster_write>
1c005a16:	4689                	li	a3,2
1c005a18:	00204737          	lui	a4,0x204
1c005a1c:	08c14783          	lbu	a5,140(sp)
1c005a20:	0ff7f793          	andi	a5,a5,255
1c005a24:	c781                	beqz	a5,1c005a2c <__rt_io_uart_flush.constprop.11+0xc8>
1c005a26:	000a2c23          	sw	zero,24(s4)
1c005a2a:	bf75                	j	1c0059e6 <__rt_io_uart_flush.constprop.11+0x82>
1c005a2c:	00d72423          	sw	a3,8(a4) # 204008 <__L2+0x184008>
1c005a30:	03c76783          	p.elw	a5,60(a4)
1c005a34:	00d72223          	sw	a3,4(a4)
1c005a38:	b7d5                	j	1c005a1c <__rt_io_uart_flush.constprop.11+0xb8>

1c005a3a <__rt_io_uart_wait_pending>:
1c005a3a:	7135                	addi	sp,sp,-160
1c005a3c:	cd22                	sw	s0,152(sp)
1c005a3e:	cf06                	sw	ra,156(sp)
1c005a40:	1c010437          	lui	s0,0x1c010
1c005a44:	fe042783          	lw	a5,-32(s0) # 1c00ffe0 <__rt_io_pending_flush>
1c005a48:	eb85                	bnez	a5,1c005a78 <__rt_io_uart_wait_pending+0x3e>
1c005a4a:	1c010437          	lui	s0,0x1c010
1c005a4e:	fdc40413          	addi	s0,s0,-36 # 1c00ffdc <__rt_io_event_current>
1c005a52:	4008                	lw	a0,0(s0)
1c005a54:	cd11                	beqz	a0,1c005a70 <__rt_io_uart_wait_pending+0x36>
1c005a56:	014027f3          	csrr	a5,uhartid
1c005a5a:	8795                	srai	a5,a5,0x5
1c005a5c:	f267b7b3          	p.bclr	a5,a5,25,6
1c005a60:	02000713          	li	a4,32
1c005a64:	02e79163          	bne	a5,a4,1c005a86 <__rt_io_uart_wait_pending+0x4c>
1c005a68:	e38fe0ef          	jal	ra,1c0040a0 <rt_event_wait>
1c005a6c:	00042023          	sw	zero,0(s0)
1c005a70:	40fa                	lw	ra,156(sp)
1c005a72:	446a                	lw	s0,152(sp)
1c005a74:	610d                	addi	sp,sp,160
1c005a76:	8082                	ret
1c005a78:	e7dff0ef          	jal	ra,1c0058f4 <__rt_io_unlock>
1c005a7c:	db5ff0ef          	jal	ra,1c005830 <rt_event_execute.isra.4.constprop.12>
1c005a80:	dd1ff0ef          	jal	ra,1c005850 <__rt_io_lock>
1c005a84:	b7c1                	j	1c005a44 <__rt_io_uart_wait_pending+0xa>
1c005a86:	08f106a3          	sb	a5,141(sp)
1c005a8a:	1c0057b7          	lui	a5,0x1c005
1c005a8e:	74678793          	addi	a5,a5,1862 # 1c005746 <__rt_io_uart_wait_req>
1c005a92:	4705                	li	a4,1
1c005a94:	c83e                	sw	a5,16(sp)
1c005a96:	0068                	addi	a0,sp,12
1c005a98:	1c0107b7          	lui	a5,0x1c010
1c005a9c:	f4e7a823          	sw	a4,-176(a5) # 1c00ff50 <__rt_io_event+0x24>
1c005aa0:	08010623          	sb	zero,140(sp)
1c005aa4:	d802                	sw	zero,48(sp)
1c005aa6:	da02                	sw	zero,52(sp)
1c005aa8:	ca2a                	sw	a0,20(sp)
1c005aaa:	ba2ff0ef          	jal	ra,1c004e4c <__rt_cluster_push_fc_event>
1c005aae:	4689                	li	a3,2
1c005ab0:	00204737          	lui	a4,0x204
1c005ab4:	08c14783          	lbu	a5,140(sp)
1c005ab8:	0ff7f793          	andi	a5,a5,255
1c005abc:	fbd5                	bnez	a5,1c005a70 <__rt_io_uart_wait_pending+0x36>
1c005abe:	00d72423          	sw	a3,8(a4) # 204008 <__L2+0x184008>
1c005ac2:	03c76783          	p.elw	a5,60(a4)
1c005ac6:	00d72223          	sw	a3,4(a4)
1c005aca:	b7ed                	j	1c005ab4 <__rt_io_uart_wait_pending+0x7a>

1c005acc <__rt_io_stop>:
1c005acc:	1141                	addi	sp,sp,-16
1c005ace:	c422                	sw	s0,8(sp)
1c005ad0:	1c010437          	lui	s0,0x1c010
1c005ad4:	c606                	sw	ra,12(sp)
1c005ad6:	fe840413          	addi	s0,s0,-24 # 1c00ffe8 <_rt_io_uart>
1c005ada:	3785                	jal	1c005a3a <__rt_io_uart_wait_pending>
1c005adc:	4008                	lw	a0,0(s0)
1c005ade:	4581                	li	a1,0
1c005ae0:	11a010ef          	jal	ra,1c006bfa <rt_uart_close>
1c005ae4:	40b2                	lw	ra,12(sp)
1c005ae6:	00042023          	sw	zero,0(s0)
1c005aea:	4422                	lw	s0,8(sp)
1c005aec:	4501                	li	a0,0
1c005aee:	0141                	addi	sp,sp,16
1c005af0:	8082                	ret

1c005af2 <memset>:
1c005af2:	962a                	add	a2,a2,a0
1c005af4:	87aa                	mv	a5,a0
1c005af6:	00c79363          	bne	a5,a2,1c005afc <memset+0xa>
1c005afa:	8082                	ret
1c005afc:	00b780ab          	p.sb	a1,1(a5!)
1c005b00:	bfdd                	j	1c005af6 <memset+0x4>

1c005b02 <memcpy>:
1c005b02:	00a5e733          	or	a4,a1,a0
1c005b06:	fa273733          	p.bclr	a4,a4,29,2
1c005b0a:	87aa                	mv	a5,a0
1c005b0c:	c709                	beqz	a4,1c005b16 <memcpy+0x14>
1c005b0e:	962e                	add	a2,a2,a1
1c005b10:	00c59f63          	bne	a1,a2,1c005b2e <memcpy+0x2c>
1c005b14:	8082                	ret
1c005b16:	fa263733          	p.bclr	a4,a2,29,2
1c005b1a:	fb75                	bnez	a4,1c005b0e <memcpy+0xc>
1c005b1c:	962e                	add	a2,a2,a1
1c005b1e:	00c59363          	bne	a1,a2,1c005b24 <memcpy+0x22>
1c005b22:	8082                	ret
1c005b24:	0045a70b          	p.lw	a4,4(a1!)
1c005b28:	00e7a22b          	p.sw	a4,4(a5!)
1c005b2c:	bfcd                	j	1c005b1e <memcpy+0x1c>
1c005b2e:	0015c70b          	p.lbu	a4,1(a1!)
1c005b32:	00e780ab          	p.sb	a4,1(a5!)
1c005b36:	bfe9                	j	1c005b10 <memcpy+0xe>

1c005b38 <strchr>:
1c005b38:	0ff5f593          	andi	a1,a1,255
1c005b3c:	00054703          	lbu	a4,0(a0)
1c005b40:	87aa                	mv	a5,a0
1c005b42:	0505                	addi	a0,a0,1
1c005b44:	00b70563          	beq	a4,a1,1c005b4e <strchr+0x16>
1c005b48:	fb75                	bnez	a4,1c005b3c <strchr+0x4>
1c005b4a:	c191                	beqz	a1,1c005b4e <strchr+0x16>
1c005b4c:	4781                	li	a5,0
1c005b4e:	853e                	mv	a0,a5
1c005b50:	8082                	ret

1c005b52 <__rt_putc_debug_bridge>:
1c005b52:	1141                	addi	sp,sp,-16
1c005b54:	c422                	sw	s0,8(sp)
1c005b56:	1c010437          	lui	s0,0x1c010
1c005b5a:	c226                	sw	s1,4(sp)
1c005b5c:	c606                	sw	ra,12(sp)
1c005b5e:	84aa                	mv	s1,a0
1c005b60:	c5840413          	addi	s0,s0,-936 # 1c00fc58 <__hal_debug_struct>
1c005b64:	485c                	lw	a5,20(s0)
1c005b66:	c791                	beqz	a5,1c005b72 <__rt_putc_debug_bridge+0x20>
1c005b68:	06400513          	li	a0,100
1c005b6c:	f9efe0ef          	jal	ra,1c00430a <rt_time_wait_us>
1c005b70:	bfd5                	j	1c005b64 <__rt_putc_debug_bridge+0x12>
1c005b72:	4c1c                	lw	a5,24(s0)
1c005b74:	00178713          	addi	a4,a5,1
1c005b78:	97a2                	add	a5,a5,s0
1c005b7a:	00978e23          	sb	s1,28(a5)
1c005b7e:	cc18                	sw	a4,24(s0)
1c005b80:	4c14                	lw	a3,24(s0)
1c005b82:	08000793          	li	a5,128
1c005b86:	00f68463          	beq	a3,a5,1c005b8e <__rt_putc_debug_bridge+0x3c>
1c005b8a:	00a4b663          	p.bneimm	s1,10,1c005b96 <__rt_putc_debug_bridge+0x44>
1c005b8e:	c701                	beqz	a4,1c005b96 <__rt_putc_debug_bridge+0x44>
1c005b90:	c858                	sw	a4,20(s0)
1c005b92:	00042c23          	sw	zero,24(s0)
1c005b96:	4c1c                	lw	a5,24(s0)
1c005b98:	e799                	bnez	a5,1c005ba6 <__rt_putc_debug_bridge+0x54>
1c005b9a:	4422                	lw	s0,8(sp)
1c005b9c:	40b2                	lw	ra,12(sp)
1c005b9e:	4492                	lw	s1,4(sp)
1c005ba0:	0141                	addi	sp,sp,16
1c005ba2:	a80fe06f          	j	1c003e22 <__rt_bridge_printf_flush>
1c005ba6:	40b2                	lw	ra,12(sp)
1c005ba8:	4422                	lw	s0,8(sp)
1c005baa:	4492                	lw	s1,4(sp)
1c005bac:	0141                	addi	sp,sp,16
1c005bae:	8082                	ret

1c005bb0 <__rt_putc_uart>:
1c005bb0:	1101                	addi	sp,sp,-32
1c005bb2:	c62a                	sw	a0,12(sp)
1c005bb4:	ce06                	sw	ra,28(sp)
1c005bb6:	e85ff0ef          	jal	ra,1c005a3a <__rt_io_uart_wait_pending>
1c005bba:	1c0107b7          	lui	a5,0x1c010
1c005bbe:	c5878793          	addi	a5,a5,-936 # 1c00fc58 <__hal_debug_struct>
1c005bc2:	4f94                	lw	a3,24(a5)
1c005bc4:	4532                	lw	a0,12(sp)
1c005bc6:	00168713          	addi	a4,a3,1
1c005bca:	cf98                	sw	a4,24(a5)
1c005bcc:	97b6                	add	a5,a5,a3
1c005bce:	00a78e23          	sb	a0,28(a5)
1c005bd2:	08000793          	li	a5,128
1c005bd6:	00f70463          	beq	a4,a5,1c005bde <__rt_putc_uart+0x2e>
1c005bda:	00a53663          	p.bneimm	a0,10,1c005be6 <__rt_putc_uart+0x36>
1c005bde:	40f2                	lw	ra,28(sp)
1c005be0:	6105                	addi	sp,sp,32
1c005be2:	d83ff06f          	j	1c005964 <__rt_io_uart_flush.constprop.11>
1c005be6:	40f2                	lw	ra,28(sp)
1c005be8:	6105                	addi	sp,sp,32
1c005bea:	8082                	ret

1c005bec <tfp_putc.isra.9>:
1c005bec:	1c0107b7          	lui	a5,0x1c010
1c005bf0:	d2c7a783          	lw	a5,-724(a5) # 1c00fd2c <__rt_iodev>
1c005bf4:	7135                	addi	sp,sp,-160
1c005bf6:	cf06                	sw	ra,156(sp)
1c005bf8:	0427bf63          	p.bneimm	a5,2,1c005c56 <tfp_putc.isra.9+0x6a>
1c005bfc:	014027f3          	csrr	a5,uhartid
1c005c00:	8795                	srai	a5,a5,0x5
1c005c02:	f267b7b3          	p.bclr	a5,a5,25,6
1c005c06:	02000713          	li	a4,32
1c005c0a:	00e79763          	bne	a5,a4,1c005c18 <tfp_putc.isra.9+0x2c>
1c005c0e:	b89ff0ef          	jal	ra,1c005796 <__rt_do_putc_host>
1c005c12:	40fa                	lw	ra,156(sp)
1c005c14:	610d                	addi	sp,sp,160
1c005c16:	8082                	ret
1c005c18:	08f10623          	sb	a5,140(sp)
1c005c1c:	1c0067b7          	lui	a5,0x1c006
1c005c20:	4705                	li	a4,1
1c005c22:	8c078793          	addi	a5,a5,-1856 # 1c0058c0 <__rt_putc_host_cluster_req>
1c005c26:	08a106a3          	sb	a0,141(sp)
1c005c2a:	0048                	addi	a0,sp,4
1c005c2c:	d63a                	sw	a4,44(sp)
1c005c2e:	c43e                	sw	a5,8(sp)
1c005c30:	c502                	sw	zero,136(sp)
1c005c32:	ce02                	sw	zero,28(sp)
1c005c34:	c62a                	sw	a0,12(sp)
1c005c36:	00010c23          	sb	zero,24(sp)
1c005c3a:	a12ff0ef          	jal	ra,1c004e4c <__rt_cluster_push_fc_event>
1c005c3e:	4709                	li	a4,2
1c005c40:	002047b7          	lui	a5,0x204
1c005c44:	46aa                	lw	a3,136(sp)
1c005c46:	f6f1                	bnez	a3,1c005c12 <tfp_putc.isra.9+0x26>
1c005c48:	00e7a423          	sw	a4,8(a5) # 204008 <__L2+0x184008>
1c005c4c:	03c7e683          	p.elw	a3,60(a5)
1c005c50:	00e7a223          	sw	a4,4(a5)
1c005c54:	bfc5                	j	1c005c44 <tfp_putc.isra.9+0x58>
1c005c56:	1c0107b7          	lui	a5,0x1c010
1c005c5a:	fe87a783          	lw	a5,-24(a5) # 1c00ffe8 <_rt_io_uart>
1c005c5e:	c399                	beqz	a5,1c005c64 <tfp_putc.isra.9+0x78>
1c005c60:	3f81                	jal	1c005bb0 <__rt_putc_uart>
1c005c62:	bf45                	j	1c005c12 <tfp_putc.isra.9+0x26>
1c005c64:	1c0107b7          	lui	a5,0x1c010
1c005c68:	c687a783          	lw	a5,-920(a5) # 1c00fc68 <__hal_debug_struct+0x10>
1c005c6c:	c395                	beqz	a5,1c005c90 <tfp_putc.isra.9+0xa4>
1c005c6e:	014027f3          	csrr	a5,uhartid
1c005c72:	00379713          	slli	a4,a5,0x3
1c005c76:	1a1106b7          	lui	a3,0x1a110
1c005c7a:	ee873733          	p.bclr	a4,a4,23,8
1c005c7e:	9736                	add	a4,a4,a3
1c005c80:	6689                	lui	a3,0x2
1c005c82:	078a                	slli	a5,a5,0x2
1c005c84:	f8068693          	addi	a3,a3,-128 # 1f80 <__rt_stack_size+0x1780>
1c005c88:	8ff5                	and	a5,a5,a3
1c005c8a:	00a767a3          	p.sw	a0,a5(a4)
1c005c8e:	b751                	j	1c005c12 <tfp_putc.isra.9+0x26>
1c005c90:	ec3ff0ef          	jal	ra,1c005b52 <__rt_putc_debug_bridge>
1c005c94:	bfbd                	j	1c005c12 <tfp_putc.isra.9+0x26>

1c005c96 <puts>:
1c005c96:	1141                	addi	sp,sp,-16
1c005c98:	c422                	sw	s0,8(sp)
1c005c9a:	c606                	sw	ra,12(sp)
1c005c9c:	842a                	mv	s0,a0
1c005c9e:	bb3ff0ef          	jal	ra,1c005850 <__rt_io_lock>
1c005ca2:	0014450b          	p.lbu	a0,1(s0!)
1c005ca6:	c501                	beqz	a0,1c005cae <puts+0x18>
1c005ca8:	f45ff0ef          	jal	ra,1c005bec <tfp_putc.isra.9>
1c005cac:	bfdd                	j	1c005ca2 <puts+0xc>
1c005cae:	4529                	li	a0,10
1c005cb0:	f3dff0ef          	jal	ra,1c005bec <tfp_putc.isra.9>
1c005cb4:	c41ff0ef          	jal	ra,1c0058f4 <__rt_io_unlock>
1c005cb8:	40b2                	lw	ra,12(sp)
1c005cba:	4422                	lw	s0,8(sp)
1c005cbc:	4501                	li	a0,0
1c005cbe:	0141                	addi	sp,sp,16
1c005cc0:	8082                	ret

1c005cc2 <fputc_locked>:
1c005cc2:	1141                	addi	sp,sp,-16
1c005cc4:	c422                	sw	s0,8(sp)
1c005cc6:	842a                	mv	s0,a0
1c005cc8:	0ff57513          	andi	a0,a0,255
1c005ccc:	c606                	sw	ra,12(sp)
1c005cce:	f1fff0ef          	jal	ra,1c005bec <tfp_putc.isra.9>
1c005cd2:	8522                	mv	a0,s0
1c005cd4:	40b2                	lw	ra,12(sp)
1c005cd6:	4422                	lw	s0,8(sp)
1c005cd8:	0141                	addi	sp,sp,16
1c005cda:	8082                	ret

1c005cdc <_prf_locked>:
1c005cdc:	1101                	addi	sp,sp,-32
1c005cde:	ce06                	sw	ra,28(sp)
1c005ce0:	c02a                	sw	a0,0(sp)
1c005ce2:	c62e                	sw	a1,12(sp)
1c005ce4:	c432                	sw	a2,8(sp)
1c005ce6:	c236                	sw	a3,4(sp)
1c005ce8:	b69ff0ef          	jal	ra,1c005850 <__rt_io_lock>
1c005cec:	4692                	lw	a3,4(sp)
1c005cee:	4622                	lw	a2,8(sp)
1c005cf0:	45b2                	lw	a1,12(sp)
1c005cf2:	4502                	lw	a0,0(sp)
1c005cf4:	2c85                	jal	1c005f64 <_prf>
1c005cf6:	c02a                	sw	a0,0(sp)
1c005cf8:	bfdff0ef          	jal	ra,1c0058f4 <__rt_io_unlock>
1c005cfc:	40f2                	lw	ra,28(sp)
1c005cfe:	4502                	lw	a0,0(sp)
1c005d00:	6105                	addi	sp,sp,32
1c005d02:	8082                	ret

1c005d04 <exit>:
1c005d04:	1101                	addi	sp,sp,-32
1c005d06:	cc22                	sw	s0,24(sp)
1c005d08:	c84a                	sw	s2,16(sp)
1c005d0a:	c62a                	sw	a0,12(sp)
1c005d0c:	ce06                	sw	ra,28(sp)
1c005d0e:	ca26                	sw	s1,20(sp)
1c005d10:	c7dfd0ef          	jal	ra,1c00398c <__rt_deinit>
1c005d14:	4532                	lw	a0,12(sp)
1c005d16:	1a104437          	lui	s0,0x1a104
1c005d1a:	0a040793          	addi	a5,s0,160 # 1a1040a0 <__l1_end+0xa104080>
1c005d1e:	c1f54933          	p.bset	s2,a0,0,31
1c005d22:	0127a023          	sw	s2,0(a5)
1c005d26:	1c0107b7          	lui	a5,0x1c010
1c005d2a:	d2c7a783          	lw	a5,-724(a5) # 1c00fd2c <__rt_iodev>
1c005d2e:	0027be63          	p.bneimm	a5,2,1c005d4a <exit+0x46>
1c005d32:	c519                	beqz	a0,1c005d40 <exit+0x3c>
1c005d34:	00020537          	lui	a0,0x20
1c005d38:	02350513          	addi	a0,a0,35 # 20023 <__L1Cl+0x10023>
1c005d3c:	20f1                	jal	1c005e08 <semihost_exit>
1c005d3e:	a001                	j	1c005d3e <exit+0x3a>
1c005d40:	00020537          	lui	a0,0x20
1c005d44:	02650513          	addi	a0,a0,38 # 20026 <__L1Cl+0x10026>
1c005d48:	bfd5                	j	1c005d3c <exit+0x38>
1c005d4a:	1c0104b7          	lui	s1,0x1c010
1c005d4e:	c5848493          	addi	s1,s1,-936 # 1c00fc58 <__hal_debug_struct>
1c005d52:	8d0fe0ef          	jal	ra,1c003e22 <__rt_bridge_printf_flush>
1c005d56:	0124a623          	sw	s2,12(s1)
1c005d5a:	88afe0ef          	jal	ra,1c003de4 <__rt_bridge_send_notif>
1c005d5e:	449c                	lw	a5,8(s1)
1c005d60:	dff9                	beqz	a5,1c005d3e <exit+0x3a>
1c005d62:	07440413          	addi	s0,s0,116
1c005d66:	401c                	lw	a5,0(s0)
1c005d68:	83a5                	srli	a5,a5,0x9
1c005d6a:	f837b7b3          	p.bclr	a5,a5,28,3
1c005d6e:	fe77bce3          	p.bneimm	a5,7,1c005d66 <exit+0x62>
1c005d72:	892fe0ef          	jal	ra,1c003e04 <__rt_bridge_clear_notif>
1c005d76:	b7e1                	j	1c005d3e <exit+0x3a>

1c005d78 <abort>:
1c005d78:	1141                	addi	sp,sp,-16
1c005d7a:	557d                	li	a0,-1
1c005d7c:	c606                	sw	ra,12(sp)
1c005d7e:	f87ff0ef          	jal	ra,1c005d04 <exit>

1c005d82 <__rt_io_init>:
#endif
}

RT_FC_BOOT_CODE void __attribute__((constructor)) __rt_io_init()
{
  __rt_putc_host_buffer_index = 0;
1c005d82:	1c0107b7          	lui	a5,0x1c010
1c005d86:	fe07a223          	sw	zero,-28(a5) # 1c00ffe4 <__rt_putc_host_buffer_index>
void __rt_fc_cluster_unlock(rt_fc_lock_t *lock, rt_fc_lock_req_t *req);

static inline void __rt_fc_lock_init(rt_fc_lock_t *lock)
{
#if defined(ARCHI_HAS_FC)
  lock->waiting = NULL;
1c005d8a:	1b0017b7          	lui	a5,0x1b001
1c005d8e:	bbc78793          	addi	a5,a5,-1092 # 1b000bbc <__rt_io_fc_lock>
1c005d92:	0007a223          	sw	zero,4(a5)
  lock->locked = 0;
1c005d96:	0007a023          	sw	zero,0(a5)
  lock->fc_wait = NULL;
1c005d9a:	0007a623          	sw	zero,12(a5)
  __rt_fc_lock_init(&__rt_io_fc_lock);

#if defined(__RT_USE_UART)
  _rt_io_uart = NULL;
1c005d9e:	1c0107b7          	lui	a5,0x1c010
1c005da2:	fe07a423          	sw	zero,-24(a5) # 1c00ffe8 <_rt_io_uart>
  __rt_io_event_current = NULL;
1c005da6:	1c0107b7          	lui	a5,0x1c010
1c005daa:	fc07ae23          	sw	zero,-36(a5) # 1c00ffdc <__rt_io_event_current>
  return __rt_iodev;
1c005dae:	1c0107b7          	lui	a5,0x1c010

  if (rt_iodev() == RT_IODEV_UART)
1c005db2:	d2c7a783          	lw	a5,-724(a5) # 1c00fd2c <__rt_iodev>
1c005db6:	0217be63          	p.bneimm	a5,1,1c005df2 <__rt_io_init+0x70>
  {
    __rt_cbsys_add(RT_CBSYS_START, __rt_io_start, NULL);
1c005dba:	1c0055b7          	lui	a1,0x1c005
{
1c005dbe:	1141                	addi	sp,sp,-16
    __rt_cbsys_add(RT_CBSYS_START, __rt_io_start, NULL);
1c005dc0:	4601                	li	a2,0
1c005dc2:	7d658593          	addi	a1,a1,2006 # 1c0057d6 <__rt_io_start>
1c005dc6:	4501                	li	a0,0
{
1c005dc8:	c606                	sw	ra,12(sp)
    __rt_cbsys_add(RT_CBSYS_START, __rt_io_start, NULL);
1c005dca:	d5bfd0ef          	jal	ra,1c003b24 <__rt_cbsys_add>
    __rt_cbsys_add(RT_CBSYS_STOP, __rt_io_stop, NULL);
1c005dce:	1c0065b7          	lui	a1,0x1c006
1c005dd2:	acc58593          	addi	a1,a1,-1332 # 1c005acc <__rt_io_stop>
1c005dd6:	4601                	li	a2,0
1c005dd8:	4505                	li	a0,1
1c005dda:	d4bfd0ef          	jal	ra,1c003b24 <__rt_cbsys_add>
    __rt_io_pending_flush = 0;
    rt_event_alloc(NULL, 1);
  }
#endif

}
1c005dde:	40b2                	lw	ra,12(sp)
    __rt_io_pending_flush = 0;
1c005de0:	1c0107b7          	lui	a5,0x1c010
1c005de4:	fe07a023          	sw	zero,-32(a5) # 1c00ffe0 <__rt_io_pending_flush>
    rt_event_alloc(NULL, 1);
1c005de8:	4585                	li	a1,1
1c005dea:	4501                	li	a0,0
}
1c005dec:	0141                	addi	sp,sp,16
    rt_event_alloc(NULL, 1);
1c005dee:	950fe06f          	j	1c003f3e <rt_event_alloc>
1c005df2:	8082                	ret

1c005df4 <__internal_semihost>:
    return __internal_semihost(SEMIHOSTING_SYS_SEEK, (long) args);
}

int semihost_flen(int fd)
{
    return __internal_semihost(SEMIHOSTING_SYS_FLEN, (long) fd);
1c005df4:	01f01013          	slli	zero,zero,0x1f
1c005df8:	00100073          	ebreak
1c005dfc:	40705013          	srai	zero,zero,0x7
1c005e00:	8082                	ret

1c005e02 <semihost_write0>:
1c005e02:	85aa                	mv	a1,a0
1c005e04:	4511                	li	a0,4
1c005e06:	b7fd                	j	1c005df4 <__internal_semihost>

1c005e08 <semihost_exit>:
}

int semihost_exit(int code)
{
    return __internal_semihost(SEMIHOSTING_SYS_EXIT, (long) code);
1c005e08:	85aa                	mv	a1,a0
1c005e0a:	4561                	li	a0,24
1c005e0c:	b7e5                	j	1c005df4 <__internal_semihost>

1c005e0e <printf>:

	return r;
}

int printf(const char *format, ...)
{
1c005e0e:	7139                	addi	sp,sp,-64
1c005e10:	d432                	sw	a2,40(sp)
	va_list vargs;
	int     r;

	va_start(vargs, format);
	r = _prf_locked(fputc_locked, DESC(stdout), format, vargs);
1c005e12:	862a                	mv	a2,a0
1c005e14:	1c006537          	lui	a0,0x1c006
{
1c005e18:	d22e                	sw	a1,36(sp)
1c005e1a:	d636                	sw	a3,44(sp)
	r = _prf_locked(fputc_locked, DESC(stdout), format, vargs);
1c005e1c:	4589                	li	a1,2
	va_start(vargs, format);
1c005e1e:	1054                	addi	a3,sp,36
	r = _prf_locked(fputc_locked, DESC(stdout), format, vargs);
1c005e20:	cc250513          	addi	a0,a0,-830 # 1c005cc2 <fputc_locked>
{
1c005e24:	ce06                	sw	ra,28(sp)
1c005e26:	d83a                	sw	a4,48(sp)
1c005e28:	da3e                	sw	a5,52(sp)
1c005e2a:	dc42                	sw	a6,56(sp)
1c005e2c:	de46                	sw	a7,60(sp)
	va_start(vargs, format);
1c005e2e:	c636                	sw	a3,12(sp)
	r = _prf_locked(fputc_locked, DESC(stdout), format, vargs);
1c005e30:	eadff0ef          	jal	ra,1c005cdc <_prf_locked>
	va_end(vargs);

	return r;
}
1c005e34:	40f2                	lw	ra,28(sp)
1c005e36:	6121                	addi	sp,sp,64
1c005e38:	8082                	ret

1c005e3a <_to_x>:
 * Writes the specified number into the buffer in the given base,
 * using the digit characters 0-9a-z (i.e. base>36 will start writing
 * odd bytes).
 */
static int _to_x(char *buf, unsigned VALTYPE n, unsigned int base)
{
1c005e3a:	7179                	addi	sp,sp,-48
1c005e3c:	d422                	sw	s0,40(sp)
1c005e3e:	d226                	sw	s1,36(sp)
1c005e40:	ce4e                	sw	s3,28(sp)
1c005e42:	cc52                	sw	s4,24(sp)
1c005e44:	ca56                	sw	s5,20(sp)
1c005e46:	c85a                	sw	s6,16(sp)
1c005e48:	d606                	sw	ra,44(sp)
1c005e4a:	d04a                	sw	s2,32(sp)
1c005e4c:	c65e                	sw	s7,12(sp)
1c005e4e:	84aa                	mv	s1,a0
1c005e50:	89ae                	mv	s3,a1
1c005e52:	8a32                	mv	s4,a2
1c005e54:	8ab6                	mv	s5,a3
1c005e56:	842a                	mv	s0,a0

	do {
		unsigned int d = n % base;

		n /= base;
		*buf++ = '0' + d + (d > 9 ? ('a' - '0' - 10) : 0);
1c005e58:	4b25                	li	s6,9
		unsigned int d = n % base;
1c005e5a:	8656                	mv	a2,s5
1c005e5c:	4681                	li	a3,0
1c005e5e:	854e                	mv	a0,s3
1c005e60:	85d2                	mv	a1,s4
1c005e62:	b0bfa0ef          	jal	ra,1c00096c <__umoddi3>
		n /= base;
1c005e66:	85d2                	mv	a1,s4
		unsigned int d = n % base;
1c005e68:	892a                	mv	s2,a0
		n /= base;
1c005e6a:	8656                	mv	a2,s5
1c005e6c:	854e                	mv	a0,s3
1c005e6e:	4681                	li	a3,0
1c005e70:	fc0fa0ef          	jal	ra,1c000630 <__udivdi3>
1c005e74:	89aa                	mv	s3,a0
1c005e76:	8a2e                	mv	s4,a1
		*buf++ = '0' + d + (d > 9 ? ('a' - '0' - 10) : 0);
1c005e78:	02700713          	li	a4,39
1c005e7c:	012b6363          	bltu	s6,s2,1c005e82 <_to_x+0x48>
1c005e80:	4701                	li	a4,0
1c005e82:	03090913          	addi	s2,s2,48
1c005e86:	974a                	add	a4,a4,s2
1c005e88:	00e40023          	sb	a4,0(s0)
	} while (n);
1c005e8c:	8dc9                	or	a1,a1,a0
		*buf++ = '0' + d + (d > 9 ? ('a' - '0' - 10) : 0);
1c005e8e:	00140793          	addi	a5,s0,1
	} while (n);
1c005e92:	e195                	bnez	a1,1c005eb6 <_to_x+0x7c>

	*buf = 0;
1c005e94:	00078023          	sb	zero,0(a5)
	len = buf - start;
1c005e98:	40978533          	sub	a0,a5,s1

	for (buf--; buf > start; buf--, start++) {
1c005e9c:	0084ef63          	bltu	s1,s0,1c005eba <_to_x+0x80>
		*buf = *start;
		*start = tmp;
	}

	return len;
}
1c005ea0:	50b2                	lw	ra,44(sp)
1c005ea2:	5422                	lw	s0,40(sp)
1c005ea4:	5492                	lw	s1,36(sp)
1c005ea6:	5902                	lw	s2,32(sp)
1c005ea8:	49f2                	lw	s3,28(sp)
1c005eaa:	4a62                	lw	s4,24(sp)
1c005eac:	4ad2                	lw	s5,20(sp)
1c005eae:	4b42                	lw	s6,16(sp)
1c005eb0:	4bb2                	lw	s7,12(sp)
1c005eb2:	6145                	addi	sp,sp,48
1c005eb4:	8082                	ret
1c005eb6:	843e                	mv	s0,a5
1c005eb8:	b74d                	j	1c005e5a <_to_x+0x20>
		*buf = *start;
1c005eba:	0004c703          	lbu	a4,0(s1)
		char tmp = *buf;
1c005ebe:	00044783          	lbu	a5,0(s0)
		*buf = *start;
1c005ec2:	fee40fab          	p.sb	a4,-1(s0!)
		*start = tmp;
1c005ec6:	00f480ab          	p.sb	a5,1(s1!)
1c005eca:	bfc9                	j	1c005e9c <_to_x+0x62>

1c005ecc <_rlrshift>:
	return (buf + _to_udec(buf, value)) - start;
}

static	void _rlrshift(uint64_t *v)
{
	*v = (*v & 1) + (*v >> 1);
1c005ecc:	411c                	lw	a5,0(a0)
1c005ece:	4154                	lw	a3,4(a0)
1c005ed0:	fc17b733          	p.bclr	a4,a5,30,1
1c005ed4:	01f69613          	slli	a2,a3,0x1f
1c005ed8:	8385                	srli	a5,a5,0x1
1c005eda:	8fd1                	or	a5,a5,a2
1c005edc:	97ba                	add	a5,a5,a4
1c005ede:	8285                	srli	a3,a3,0x1
1c005ee0:	00e7b733          	sltu	a4,a5,a4
1c005ee4:	9736                	add	a4,a4,a3
1c005ee6:	c11c                	sw	a5,0(a0)
1c005ee8:	c158                	sw	a4,4(a0)
}
1c005eea:	8082                	ret

1c005eec <_ldiv5>:
 * taken from the full 64 bit space.
 */
static void _ldiv5(uint64_t *v)
{
	uint32_t hi;
	uint64_t rem = *v, quot = 0U, q;
1c005eec:	4118                	lw	a4,0(a0)
1c005eee:	4154                	lw	a3,4(a0)
	 */
	rem += 2U;

	for (i = 0; i < 3; i++) {
		hi = rem >> shifts[i];
		q = (uint64_t)(hi / 5U) << shifts[i];
1c005ef0:	4615                	li	a2,5
	rem += 2U;
1c005ef2:	00270793          	addi	a5,a4,2
1c005ef6:	00e7b733          	sltu	a4,a5,a4
1c005efa:	9736                	add	a4,a4,a3
		q = (uint64_t)(hi / 5U) << shifts[i];
1c005efc:	02c755b3          	divu	a1,a4,a2
		rem -= q * 5U;
1c005f00:	42b61733          	p.msu	a4,a2,a1
		hi = rem >> shifts[i];
1c005f04:	01d71693          	slli	a3,a4,0x1d
1c005f08:	0037d713          	srli	a4,a5,0x3
1c005f0c:	8f55                	or	a4,a4,a3
		q = (uint64_t)(hi / 5U) << shifts[i];
1c005f0e:	02c75733          	divu	a4,a4,a2
1c005f12:	01d75693          	srli	a3,a4,0x1d
1c005f16:	070e                	slli	a4,a4,0x3
		rem -= q * 5U;
1c005f18:	42e617b3          	p.msu	a5,a2,a4
		quot += q;
1c005f1c:	95b6                	add	a1,a1,a3
		q = (uint64_t)(hi / 5U) << shifts[i];
1c005f1e:	02c7d7b3          	divu	a5,a5,a2
		quot += q;
1c005f22:	973e                	add	a4,a4,a5
1c005f24:	00f737b3          	sltu	a5,a4,a5
1c005f28:	97ae                	add	a5,a5,a1
	}

	*v = quot;
1c005f2a:	c118                	sw	a4,0(a0)
1c005f2c:	c15c                	sw	a5,4(a0)
}
1c005f2e:	8082                	ret

1c005f30 <_get_digit>:

static	char _get_digit(uint64_t *fr, int *digit_count)
{
	char rval;

	if (*digit_count > 0) {
1c005f30:	419c                	lw	a5,0(a1)
		*digit_count -= 1;
		*fr = *fr * 10U;
		rval = ((*fr >> 60) & 0xF) + '0';
		*fr &= 0x0FFFFFFFFFFFFFFFull;
	} else {
		rval = '0';
1c005f32:	03000713          	li	a4,48
	if (*digit_count > 0) {
1c005f36:	02f05563          	blez	a5,1c005f60 <_get_digit+0x30>
		*digit_count -= 1;
1c005f3a:	17fd                	addi	a5,a5,-1
1c005f3c:	c19c                	sw	a5,0(a1)
		*fr = *fr * 10U;
1c005f3e:	411c                	lw	a5,0(a0)
1c005f40:	4729                	li	a4,10
1c005f42:	4150                	lw	a2,4(a0)
1c005f44:	02f706b3          	mul	a3,a4,a5
1c005f48:	02f737b3          	mulhu	a5,a4,a5
		*fr &= 0x0FFFFFFFFFFFFFFFull;
1c005f4c:	c114                	sw	a3,0(a0)
		*fr = *fr * 10U;
1c005f4e:	42c707b3          	p.mac	a5,a4,a2
		rval = ((*fr >> 60) & 0xF) + '0';
1c005f52:	01c7d713          	srli	a4,a5,0x1c
		*fr &= 0x0FFFFFFFFFFFFFFFull;
1c005f56:	c7c7b7b3          	p.bclr	a5,a5,3,28
		rval = ((*fr >> 60) & 0xF) + '0';
1c005f5a:	03070713          	addi	a4,a4,48
		*fr &= 0x0FFFFFFFFFFFFFFFull;
1c005f5e:	c15c                	sw	a5,4(a0)
	}

	return rval;
}
1c005f60:	853a                	mv	a0,a4
1c005f62:	8082                	ret

1c005f64 <_prf>:
	*sptr = p;
	return i;
}

int _prf(int (*func)(), void *dest, const char *format, va_list vargs)
{
1c005f64:	7135                	addi	sp,sp,-160
1c005f66:	c94a                	sw	s2,144(sp)
1c005f68:	c74e                	sw	s3,140(sp)
1c005f6a:	c15a                	sw	s6,128(sp)
1c005f6c:	dede                	sw	s7,124(sp)
1c005f6e:	cf06                	sw	ra,156(sp)
1c005f70:	cd22                	sw	s0,152(sp)
1c005f72:	cb26                	sw	s1,148(sp)
1c005f74:	c552                	sw	s4,136(sp)
1c005f76:	c356                	sw	s5,132(sp)
1c005f78:	dce2                	sw	s8,120(sp)
1c005f7a:	dae6                	sw	s9,116(sp)
1c005f7c:	d8ea                	sw	s10,112(sp)
1c005f7e:	d6ee                	sw	s11,108(sp)
1c005f80:	8b2a                	mv	s6,a0
1c005f82:	8bae                	mv	s7,a1
1c005f84:	8936                	mv	s2,a3
	struct zero_padding zero;
	VALTYPE val;

#define PUTC(c)	do { if ((*func)(c, dest) == EOF) return EOF; } while (false)

	count = 0;
1c005f86:	4981                	li	s3,0

	while ((c = *format++)) {
1c005f88:	00064503          	lbu	a0,0(a2)
1c005f8c:	00160c13          	addi	s8,a2,1
1c005f90:	c911                	beqz	a0,1c005fa4 <_prf+0x40>
		if (c != '%') {
1c005f92:	02500793          	li	a5,37
1c005f96:	14f50563          	beq	a0,a5,1c0060e0 <_prf+0x17c>
			PUTC(c);
1c005f9a:	85de                	mv	a1,s7
1c005f9c:	9b02                	jalr	s6
1c005f9e:	13f53fe3          	p.bneimm	a0,-1,1c0068dc <_prf+0x978>
1c005fa2:	59fd                	li	s3,-1
		}
	}
	return count;

#undef PUTC
}
1c005fa4:	40fa                	lw	ra,156(sp)
1c005fa6:	446a                	lw	s0,152(sp)
1c005fa8:	854e                	mv	a0,s3
1c005faa:	44da                	lw	s1,148(sp)
1c005fac:	494a                	lw	s2,144(sp)
1c005fae:	49ba                	lw	s3,140(sp)
1c005fb0:	4a2a                	lw	s4,136(sp)
1c005fb2:	4a9a                	lw	s5,132(sp)
1c005fb4:	4b0a                	lw	s6,128(sp)
1c005fb6:	5bf6                	lw	s7,124(sp)
1c005fb8:	5c66                	lw	s8,120(sp)
1c005fba:	5cd6                	lw	s9,116(sp)
1c005fbc:	5d46                	lw	s10,112(sp)
1c005fbe:	5db6                	lw	s11,108(sp)
1c005fc0:	610d                	addi	sp,sp,160
1c005fc2:	8082                	ret
				switch (c) {
1c005fc4:	108d8663          	beq	s11,s0,1c0060d0 <_prf+0x16c>
1c005fc8:	0fb46863          	bltu	s0,s11,1c0060b8 <_prf+0x154>
1c005fcc:	fc0d8ce3          	beqz	s11,1c005fa4 <_prf+0x40>
1c005fd0:	0ecd8d63          	beq	s11,a2,1c0060ca <_prf+0x166>
					fplus = true;
1c005fd4:	8c52                	mv	s8,s4
			while (strchr("-+ #0", (c = *format++)) != NULL) {
1c005fd6:	000c4d83          	lbu	s11,0(s8)
1c005fda:	1c007737          	lui	a4,0x1c007
1c005fde:	48470513          	addi	a0,a4,1156 # 1c007484 <sbox+0x2b4>
1c005fe2:	85ee                	mv	a1,s11
1c005fe4:	c232                	sw	a2,4(sp)
1c005fe6:	b53ff0ef          	jal	ra,1c005b38 <strchr>
1c005fea:	001c0a13          	addi	s4,s8,1
1c005fee:	4612                	lw	a2,4(sp)
1c005ff0:	f971                	bnez	a0,1c005fc4 <_prf+0x60>
			if (c == '*') {
1c005ff2:	02a00713          	li	a4,42
1c005ff6:	10ed9563          	bne	s11,a4,1c006100 <_prf+0x19c>
				width = va_arg(vargs, int);
1c005ffa:	00092c83          	lw	s9,0(s2)
1c005ffe:	00490713          	addi	a4,s2,4
				if (width < 0) {
1c006002:	000cd663          	bgez	s9,1c00600e <_prf+0xaa>
					fminus = true;
1c006006:	4785                	li	a5,1
					width = -width;
1c006008:	41900cb3          	neg	s9,s9
					fminus = true;
1c00600c:	cc3e                	sw	a5,24(sp)
				c = *format++;
1c00600e:	000a4d83          	lbu	s11,0(s4)
				width = va_arg(vargs, int);
1c006012:	893a                	mv	s2,a4
				c = *format++;
1c006014:	002c0a13          	addi	s4,s8,2
			if (c == '.') {
1c006018:	02e00713          	li	a4,46
			precision = -1;
1c00601c:	547d                	li	s0,-1
			if (c == '.') {
1c00601e:	00ed9f63          	bne	s11,a4,1c00603c <_prf+0xd8>
				if (c == '*') {
1c006022:	000a4703          	lbu	a4,0(s4)
1c006026:	02a00793          	li	a5,42
1c00602a:	10f71e63          	bne	a4,a5,1c006146 <_prf+0x1e2>
					precision = va_arg(vargs, int);
1c00602e:	00092403          	lw	s0,0(s2)
				c = *format++;
1c006032:	0a05                	addi	s4,s4,1
					precision = va_arg(vargs, int);
1c006034:	0911                	addi	s2,s2,4
				c = *format++;
1c006036:	000a4d83          	lbu	s11,0(s4)
1c00603a:	0a05                	addi	s4,s4,1
			if (strchr("hlz", c) != NULL) {
1c00603c:	1c007737          	lui	a4,0x1c007
1c006040:	85ee                	mv	a1,s11
1c006042:	48c70513          	addi	a0,a4,1164 # 1c00748c <sbox+0x2bc>
1c006046:	84ee                	mv	s1,s11
1c006048:	af1ff0ef          	jal	ra,1c005b38 <strchr>
1c00604c:	10050e63          	beqz	a0,1c006168 <_prf+0x204>
				if (i == 'l' && c == 'l') {
1c006050:	06c00693          	li	a3,108
				c = *format++;
1c006054:	001a0c13          	addi	s8,s4,1
1c006058:	000a4d83          	lbu	s11,0(s4)
				if (i == 'l' && c == 'l') {
1c00605c:	0ed49963          	bne	s1,a3,1c00614e <_prf+0x1ea>
1c006060:	009d9863          	bne	s11,s1,1c006070 <_prf+0x10c>
					c = *format++;
1c006064:	001a4d83          	lbu	s11,1(s4)
1c006068:	002a0c13          	addi	s8,s4,2
					i = 'L';
1c00606c:	04c00493          	li	s1,76
			switch (c) {
1c006070:	06700693          	li	a3,103
1c006074:	17b6e263          	bltu	a3,s11,1c0061d8 <_prf+0x274>
1c006078:	06500693          	li	a3,101
1c00607c:	32ddfc63          	bleu	a3,s11,1c0063b4 <_prf+0x450>
1c006080:	04700693          	li	a3,71
1c006084:	0fb6e563          	bltu	a3,s11,1c00616e <_prf+0x20a>
1c006088:	04500713          	li	a4,69
1c00608c:	32edf463          	bleu	a4,s11,1c0063b4 <_prf+0x450>
1c006090:	f00d8ae3          	beqz	s11,1c005fa4 <_prf+0x40>
1c006094:	02500713          	li	a4,37
1c006098:	02ed8de3          	beq	s11,a4,1c0068d2 <_prf+0x96e>
				PUTC('%');
1c00609c:	85de                	mv	a1,s7
1c00609e:	02500513          	li	a0,37
1c0060a2:	9b02                	jalr	s6
1c0060a4:	eff52fe3          	p.beqimm	a0,-1,1c005fa2 <_prf+0x3e>
				PUTC(c);
1c0060a8:	85de                	mv	a1,s7
1c0060aa:	856e                	mv	a0,s11
1c0060ac:	9b02                	jalr	s6
1c0060ae:	eff52ae3          	p.beqimm	a0,-1,1c005fa2 <_prf+0x3e>
				count += 2;
1c0060b2:	0989                	addi	s3,s3,2
1c0060b4:	02b0006f          	j	1c0068de <_prf+0x97a>
				switch (c) {
1c0060b8:	039d8163          	beq	s11,s9,1c0060da <_prf+0x176>
1c0060bc:	009d8c63          	beq	s11,s1,1c0060d4 <_prf+0x170>
1c0060c0:	f1ad9ae3          	bne	s11,s10,1c005fd4 <_prf+0x70>
					fplus = true;
1c0060c4:	4705                	li	a4,1
1c0060c6:	c63a                	sw	a4,12(sp)
					break;
1c0060c8:	b731                	j	1c005fd4 <_prf+0x70>
					fspace = true;
1c0060ca:	4785                	li	a5,1
1c0060cc:	c83e                	sw	a5,16(sp)
					break;
1c0060ce:	b719                	j	1c005fd4 <_prf+0x70>
					falt = true;
1c0060d0:	4a85                	li	s5,1
					break;
1c0060d2:	b709                	j	1c005fd4 <_prf+0x70>
					fzero = true;
1c0060d4:	4705                	li	a4,1
1c0060d6:	ce3a                	sw	a4,28(sp)
					break;
1c0060d8:	bdf5                	j	1c005fd4 <_prf+0x70>
					fminus = true;
1c0060da:	4785                	li	a5,1
1c0060dc:	cc3e                	sw	a5,24(sp)
1c0060de:	bddd                	j	1c005fd4 <_prf+0x70>
			fminus = fplus = fspace = falt = fzero = false;
1c0060e0:	ce02                	sw	zero,28(sp)
1c0060e2:	c802                	sw	zero,16(sp)
1c0060e4:	c602                	sw	zero,12(sp)
1c0060e6:	cc02                	sw	zero,24(sp)
1c0060e8:	4a81                	li	s5,0
				switch (c) {
1c0060ea:	02300413          	li	s0,35
1c0060ee:	02d00c93          	li	s9,45
1c0060f2:	03000493          	li	s1,48
1c0060f6:	02b00d13          	li	s10,43
1c0060fa:	02000613          	li	a2,32
1c0060fe:	bde1                	j	1c005fd6 <_prf+0x72>
	return ((((unsigned)c) >= ' ') && (((unsigned)c) <= '~'));
}

static inline int isdigit(int a)
{
	return (((unsigned)(a)-'0') < 10);
1c006100:	fd0d8713          	addi	a4,s11,-48
			} else if (!isdigit(c)) {
1c006104:	46a5                	li	a3,9
				width = 0;
1c006106:	4c81                	li	s9,0
			} else if (!isdigit(c)) {
1c006108:	f0e6e8e3          	bltu	a3,a4,1c006018 <_prf+0xb4>
	while (isdigit(*p)) {
1c00610c:	4725                	li	a4,9
		i = 10 * i + *p++ - '0';
1c00610e:	4629                	li	a2,10
	while (isdigit(*p)) {
1c006110:	8a62                	mv	s4,s8
1c006112:	001a4d8b          	p.lbu	s11,1(s4!)
1c006116:	fd0d8693          	addi	a3,s11,-48
1c00611a:	eed76fe3          	bltu	a4,a3,1c006018 <_prf+0xb4>
		i = 10 * i + *p++ - '0';
1c00611e:	87ee                	mv	a5,s11
1c006120:	42cc87b3          	p.mac	a5,s9,a2
1c006124:	8c52                	mv	s8,s4
1c006126:	fd078c93          	addi	s9,a5,-48
1c00612a:	b7dd                	j	1c006110 <_prf+0x1ac>
1c00612c:	42b407b3          	p.mac	a5,s0,a1
1c006130:	8a3a                	mv	s4,a4
1c006132:	fd078413          	addi	s0,a5,-48
	while (isdigit(*p)) {
1c006136:	8752                	mv	a4,s4
1c006138:	0017478b          	p.lbu	a5,1(a4!)
1c00613c:	fd078613          	addi	a2,a5,-48
1c006140:	fec6f6e3          	bleu	a2,a3,1c00612c <_prf+0x1c8>
1c006144:	bdcd                	j	1c006036 <_prf+0xd2>
	int i = 0;
1c006146:	4401                	li	s0,0
	while (isdigit(*p)) {
1c006148:	46a5                	li	a3,9
		i = 10 * i + *p++ - '0';
1c00614a:	45a9                	li	a1,10
1c00614c:	b7ed                	j	1c006136 <_prf+0x1d2>
				} else if (i == 'h' && c == 'h') {
1c00614e:	06800693          	li	a3,104
1c006152:	f0d49fe3          	bne	s1,a3,1c006070 <_prf+0x10c>
1c006156:	f09d9de3          	bne	s11,s1,1c006070 <_prf+0x10c>
					c = *format++;
1c00615a:	002a0c13          	addi	s8,s4,2
1c00615e:	001a4d83          	lbu	s11,1(s4)
					i = 'H';
1c006162:	04800493          	li	s1,72
1c006166:	b729                	j	1c006070 <_prf+0x10c>
1c006168:	8c52                	mv	s8,s4
			i = 0;
1c00616a:	4481                	li	s1,0
1c00616c:	b711                	j	1c006070 <_prf+0x10c>
			switch (c) {
1c00616e:	06300693          	li	a3,99
1c006172:	12dd8a63          	beq	s11,a3,1c0062a6 <_prf+0x342>
1c006176:	09b6e163          	bltu	a3,s11,1c0061f8 <_prf+0x294>
1c00617a:	05800693          	li	a3,88
1c00617e:	f0dd9fe3          	bne	s11,a3,1c00609c <_prf+0x138>
				switch (i) {
1c006182:	06c00693          	li	a3,108
1c006186:	6cd48363          	beq	s1,a3,1c00684c <_prf+0x8e8>
1c00618a:	07a00693          	li	a3,122
1c00618e:	6ad48f63          	beq	s1,a3,1c00684c <_prf+0x8e8>
1c006192:	04c00693          	li	a3,76
1c006196:	6ad49b63          	bne	s1,a3,1c00684c <_prf+0x8e8>
					val = va_arg(vargs, unsigned long long);
1c00619a:	091d                	addi	s2,s2,7
1c00619c:	c4093933          	p.bclr	s2,s2,2,0
1c0061a0:	00092583          	lw	a1,0(s2)
1c0061a4:	00492603          	lw	a2,4(s2)
1c0061a8:	00890a13          	addi	s4,s2,8
				if (c == 'o') {
1c0061ac:	06f00713          	li	a4,111
1c0061b0:	00c4                	addi	s1,sp,68
1c0061b2:	6aed9d63          	bne	s11,a4,1c00686c <_prf+0x908>
	if (alt_form) {
1c0061b6:	6a0a8163          	beqz	s5,1c006858 <_prf+0x8f4>
		*buf++ = '0';
1c0061ba:	03000793          	li	a5,48
1c0061be:	04f10223          	sb	a5,68(sp)
		if (!value) {
1c0061c2:	00c5e7b3          	or	a5,a1,a2
		*buf++ = '0';
1c0061c6:	04510513          	addi	a0,sp,69
		if (!value) {
1c0061ca:	68079863          	bnez	a5,1c00685a <_prf+0x8f6>
			*buf++ = 0;
1c0061ce:	040102a3          	sb	zero,69(sp)
			prefix = 0;
1c0061d2:	4901                	li	s2,0
			return 1;
1c0061d4:	4d85                	li	s11,1
1c0061d6:	a069                	j	1c006260 <_prf+0x2fc>
			switch (c) {
1c0061d8:	07000693          	li	a3,112
1c0061dc:	62dd8f63          	beq	s11,a3,1c00681a <_prf+0x8b6>
1c0061e0:	09b6e663          	bltu	a3,s11,1c00626c <_prf+0x308>
1c0061e4:	06e00693          	li	a3,110
1c0061e8:	5edd8463          	beq	s11,a3,1c0067d0 <_prf+0x86c>
1c0061ec:	f9b6ebe3          	bltu	a3,s11,1c006182 <_prf+0x21e>
1c0061f0:	06900693          	li	a3,105
1c0061f4:	eadd94e3          	bne	s11,a3,1c00609c <_prf+0x138>
				switch (i) {
1c0061f8:	06c00793          	li	a5,108
1c0061fc:	18f48563          	beq	s1,a5,1c006386 <_prf+0x422>
1c006200:	07a00793          	li	a5,122
1c006204:	18f48163          	beq	s1,a5,1c006386 <_prf+0x422>
1c006208:	04c00793          	li	a5,76
1c00620c:	16f49d63          	bne	s1,a5,1c006386 <_prf+0x422>
					val = va_arg(vargs, long long);
1c006210:	091d                	addi	s2,s2,7
1c006212:	c4093933          	p.bclr	s2,s2,2,0
1c006216:	00092583          	lw	a1,0(s2)
1c00621a:	00492a83          	lw	s5,4(s2)
1c00621e:	00890a13          	addi	s4,s2,8
1c006222:	04410d93          	addi	s11,sp,68
	if (value < 0) {
1c006226:	160ad763          	bgez	s5,1c006394 <_prf+0x430>
		*buf++ = '-';
1c00622a:	02d00793          	li	a5,45
		value = -value;
1c00622e:	40b005b3          	neg	a1,a1
		*buf++ = '-';
1c006232:	04f10223          	sb	a5,68(sp)
		value = -value;
1c006236:	41500633          	neg	a2,s5
1c00623a:	00b037b3          	snez	a5,a1
1c00623e:	8e1d                	sub	a2,a2,a5
		*buf++ = ' ';
1c006240:	04510913          	addi	s2,sp,69
	return _to_x(buf, value, 10);
1c006244:	854a                	mv	a0,s2
1c006246:	46a9                	li	a3,10
1c006248:	bf3ff0ef          	jal	ra,1c005e3a <_to_x>
				if (fplus || fspace || val < 0) {
1c00624c:	47b2                	lw	a5,12(sp)
	return (buf + _to_udec(buf, value)) - start;
1c00624e:	954a                	add	a0,a0,s2
1c006250:	41b50db3          	sub	s11,a0,s11
					prefix = 1;
1c006254:	4905                	li	s2,1
				if (fplus || fspace || val < 0) {
1c006256:	e789                	bnez	a5,1c006260 <_prf+0x2fc>
1c006258:	4742                	lw	a4,16(sp)
1c00625a:	e319                	bnez	a4,1c006260 <_prf+0x2fc>
1c00625c:	01fad913          	srli	s2,s5,0x1f
			if (precision >= 0) {
1c006260:	04045c63          	bgez	s0,1c0062b8 <_prf+0x354>
			zero.predot = zero.postdot = zero.trail = 0;
1c006264:	4401                	li	s0,0
1c006266:	4a81                	li	s5,0
1c006268:	4681                	li	a3,0
1c00626a:	a401                	j	1c00646a <_prf+0x506>
			switch (c) {
1c00626c:	07500693          	li	a3,117
1c006270:	f0dd89e3          	beq	s11,a3,1c006182 <_prf+0x21e>
1c006274:	07800693          	li	a3,120
1c006278:	f0dd85e3          	beq	s11,a3,1c006182 <_prf+0x21e>
1c00627c:	07300713          	li	a4,115
1c006280:	e0ed9ee3          	bne	s11,a4,1c00609c <_prf+0x138>
				cptr = va_arg(vargs, char *);
1c006284:	00490a13          	addi	s4,s2,4
1c006288:	00092783          	lw	a5,0(s2)
				if (precision < 0) {
1c00628c:	00045663          	bgez	s0,1c006298 <_prf+0x334>
					precision = INT_MAX;
1c006290:	80000737          	lui	a4,0x80000
1c006294:	fff74413          	not	s0,a4
1c006298:	86be                	mv	a3,a5
				for (clen = 0; clen < precision; clen++) {
1c00629a:	4d81                	li	s11,0
1c00629c:	5bb41263          	bne	s0,s11,1c006840 <_prf+0x8dc>
1c0062a0:	4901                	li	s2,0
1c0062a2:	4401                	li	s0,0
1c0062a4:	a819                	j	1c0062ba <_prf+0x356>
				buf[0] = va_arg(vargs, int);
1c0062a6:	00092783          	lw	a5,0(s2)
1c0062aa:	00490a13          	addi	s4,s2,4
				clen = 1;
1c0062ae:	4d85                	li	s11,1
				buf[0] = va_arg(vargs, int);
1c0062b0:	04f10223          	sb	a5,68(sp)
				break;
1c0062b4:	4901                	li	s2,0
1c0062b6:	4401                	li	s0,0
1c0062b8:	00dc                	addi	a5,sp,68
				zero_head = precision - clen + prefix;
1c0062ba:	41b40d33          	sub	s10,s0,s11
1c0062be:	9d4a                	add	s10,s10,s2
			zero.predot = zero.postdot = zero.trail = 0;
1c0062c0:	4401                	li	s0,0
1c0062c2:	4a81                	li	s5,0
1c0062c4:	4681                	li	a3,0
1c0062c6:	040d6d33          	p.max	s10,s10,zero
			if (!fminus && width > 0) {
1c0062ca:	4762                	lw	a4,24(sp)
			width -= clen + zero_head;
1c0062cc:	01bd0633          	add	a2,s10,s11
1c0062d0:	40cc8cb3          	sub	s9,s9,a2
			if (!fminus && width > 0) {
1c0062d4:	e701                	bnez	a4,1c0062dc <_prf+0x378>
1c0062d6:	84e6                	mv	s1,s9
1c0062d8:	63904263          	bgtz	s9,1c0068fc <_prf+0x998>
1c0062dc:	012784b3          	add	s1,a5,s2
			while (prefix-- > 0) {
1c0062e0:	62979463          	bne	a5,s1,1c006908 <_prf+0x9a4>
1c0062e4:	84ea                	mv	s1,s10
			while (zero_head-- > 0) {
1c0062e6:	14fd                	addi	s1,s1,-1
1c0062e8:	63f4bc63          	p.bneimm	s1,-1,1c006920 <_prf+0x9bc>
			clen -= prefix;
1c0062ec:	412d84b3          	sub	s1,s11,s2
1c0062f0:	8726                	mv	a4,s1
			if (zero.predot) {
1c0062f2:	c295                	beqz	a3,1c006316 <_prf+0x3b2>
				c = *cptr;
1c0062f4:	0007c503          	lbu	a0,0(a5)
				while (isdigit(c)) {
1c0062f8:	8dbe                	mv	s11,a5
1c0062fa:	00978833          	add	a6,a5,s1
1c0062fe:	4625                	li	a2,9
1c006300:	fd050593          	addi	a1,a0,-48
1c006304:	41b80733          	sub	a4,a6,s11
1c006308:	62b67863          	bleu	a1,a2,1c006938 <_prf+0x9d4>
1c00630c:	8636                	mv	a2,a3
				while (zero.predot-- > 0) {
1c00630e:	64061363          	bnez	a2,1c006954 <_prf+0x9f0>
				clen -= zero.predot;
1c006312:	8f15                	sub	a4,a4,a3
1c006314:	87ee                	mv	a5,s11
			if (zero.postdot) {
1c006316:	020a8e63          	beqz	s5,1c006352 <_prf+0x3ee>
1c00631a:	8dbe                	mv	s11,a5
1c00631c:	00e78833          	add	a6,a5,a4
				} while (c != '.');
1c006320:	02e00613          	li	a2,46
					c = *cptr++;
1c006324:	001dc68b          	p.lbu	a3,1(s11!)
					PUTC(c);
1c006328:	85de                	mv	a1,s7
1c00632a:	c232                	sw	a2,4(sp)
1c00632c:	8536                	mv	a0,a3
1c00632e:	c036                	sw	a3,0(sp)
1c006330:	c442                	sw	a6,8(sp)
1c006332:	9b02                	jalr	s6
1c006334:	4612                	lw	a2,4(sp)
1c006336:	4682                	lw	a3,0(sp)
1c006338:	4822                	lw	a6,8(sp)
1c00633a:	c7f524e3          	p.beqimm	a0,-1,1c005fa2 <_prf+0x3e>
1c00633e:	41b80733          	sub	a4,a6,s11
				} while (c != '.');
1c006342:	fec691e3          	bne	a3,a2,1c006324 <_prf+0x3c0>
1c006346:	86d6                	mv	a3,s5
				while (zero.postdot-- > 0) {
1c006348:	62d04563          	bgtz	a3,1c006972 <_prf+0xa0e>
				clen -= zero.postdot;
1c00634c:	41570733          	sub	a4,a4,s5
					c = *cptr++;
1c006350:	87ee                	mv	a5,s11
			if (zero.trail) {
1c006352:	c415                	beqz	s0,1c00637e <_prf+0x41a>
				c = *cptr;
1c006354:	0007c503          	lbu	a0,0(a5)
				while (isdigit(c) || c == '.') {
1c006358:	8dbe                	mv	s11,a5
1c00635a:	973e                	add	a4,a4,a5
1c00635c:	4625                	li	a2,9
1c00635e:	02e00693          	li	a3,46
1c006362:	fd050593          	addi	a1,a0,-48
1c006366:	41b70ab3          	sub	s5,a4,s11
1c00636a:	62b67163          	bleu	a1,a2,1c00698c <_prf+0xa28>
1c00636e:	60d50f63          	beq	a0,a3,1c00698c <_prf+0xa28>
1c006372:	8722                	mv	a4,s0
				while (zero.trail-- > 0) {
1c006374:	62e04a63          	bgtz	a4,1c0069a8 <_prf+0xa44>
				clen -= zero.trail;
1c006378:	408a8733          	sub	a4,s5,s0
1c00637c:	87ee                	mv	a5,s11
1c00637e:	843e                	mv	s0,a5
1c006380:	00e78ab3          	add	s5,a5,a4
1c006384:	a599                	j	1c0069ca <_prf+0xa66>
					val = va_arg(vargs, int);
1c006386:	00092583          	lw	a1,0(s2)
1c00638a:	00490a13          	addi	s4,s2,4
1c00638e:	41f5da93          	srai	s5,a1,0x1f
					break;
1c006392:	bd41                	j	1c006222 <_prf+0x2be>
	} else if (fplus) {
1c006394:	47b2                	lw	a5,12(sp)
1c006396:	c799                	beqz	a5,1c0063a4 <_prf+0x440>
		*buf++ = '+';
1c006398:	02b00793          	li	a5,43
		*buf++ = ' ';
1c00639c:	04f10223          	sb	a5,68(sp)
1c0063a0:	8656                	mv	a2,s5
1c0063a2:	bd79                	j	1c006240 <_prf+0x2dc>
	} else if (fspace) {
1c0063a4:	4742                	lw	a4,16(sp)
1c0063a6:	c701                	beqz	a4,1c0063ae <_prf+0x44a>
		*buf++ = ' ';
1c0063a8:	02000793          	li	a5,32
1c0063ac:	bfc5                	j	1c00639c <_prf+0x438>
	} else if (fspace) {
1c0063ae:	8656                	mv	a2,s5
1c0063b0:	896e                	mv	s2,s11
1c0063b2:	bd49                	j	1c006244 <_prf+0x2e0>
				u.d = va_arg(vargs, double);
1c0063b4:	091d                	addi	s2,s2,7
1c0063b6:	c4093933          	p.bclr	s2,s2,2,0
				double_val = u.i;
1c0063ba:	00092583          	lw	a1,0(s2)
1c0063be:	00492683          	lw	a3,4(s2)
	fract = (double_temp << 11) & ~HIGHBIT64;
1c0063c2:	800007b7          	lui	a5,0x80000
1c0063c6:	0155d613          	srli	a2,a1,0x15
1c0063ca:	00b69713          	slli	a4,a3,0xb
1c0063ce:	8f51                	or	a4,a4,a2
1c0063d0:	fff7c793          	not	a5,a5
1c0063d4:	05ae                	slli	a1,a1,0xb
1c0063d6:	8f7d                	and	a4,a4,a5
				u.d = va_arg(vargs, double);
1c0063d8:	00890a13          	addi	s4,s2,8
	fract = (double_temp << 11) & ~HIGHBIT64;
1c0063dc:	d82e                	sw	a1,48(sp)
	exp = double_temp >> 52 & 0x7ff;
1c0063de:	0146d913          	srli	s2,a3,0x14
	fract = (double_temp << 11) & ~HIGHBIT64;
1c0063e2:	da3a                	sw	a4,52(sp)
	exp = double_temp >> 52 & 0x7ff;
1c0063e4:	e8b93933          	p.bclr	s2,s2,20,11
	if (sign) {
1c0063e8:	0806d863          	bgez	a3,1c006478 <_prf+0x514>
		*buf++ = '-';
1c0063ec:	02d00693          	li	a3,45
		*buf++ = ' ';
1c0063f0:	04d10223          	sb	a3,68(sp)
1c0063f4:	04510493          	addi	s1,sp,69
	if (exp == 0x7ff) {
1c0063f8:	7ff00693          	li	a3,2047
1c0063fc:	0cd91363          	bne	s2,a3,1c0064c2 <_prf+0x55e>
		if (!fract) {
1c006400:	8f4d                	or	a4,a4,a1
1c006402:	fbfd8793          	addi	a5,s11,-65
1c006406:	00348513          	addi	a0,s1,3
1c00640a:	eb49                	bnez	a4,1c00649c <_prf+0x538>
			if (isupper(c)) {
1c00640c:	4765                	li	a4,25
1c00640e:	06f76f63          	bltu	a4,a5,1c00648c <_prf+0x528>
				*buf++ = 'I';
1c006412:	6795                	lui	a5,0x5
1c006414:	e4978793          	addi	a5,a5,-439 # 4e49 <__rt_stack_size+0x4649>
1c006418:	00f49023          	sh	a5,0(s1)
				*buf++ = 'N';
1c00641c:	04600793          	li	a5,70
		return buf - start;
1c006420:	04410913          	addi	s2,sp,68
				*buf++ = 'a';
1c006424:	00f48123          	sb	a5,2(s1)
		*buf = 0;
1c006428:	000481a3          	sb	zero,3(s1)
		return buf - start;
1c00642c:	41250533          	sub	a0,a0,s2
			zero.predot = zero.postdot = zero.trail = 0;
1c006430:	4401                	li	s0,0
1c006432:	4a81                	li	s5,0
1c006434:	4681                	li	a3,0
				if (fplus || fspace || (buf[0] == '-')) {
1c006436:	4732                	lw	a4,12(sp)
					prefix = 1;
1c006438:	4905                	li	s2,1
				if (fplus || fspace || (buf[0] == '-')) {
1c00643a:	eb09                	bnez	a4,1c00644c <_prf+0x4e8>
1c00643c:	47c2                	lw	a5,16(sp)
1c00643e:	e799                	bnez	a5,1c00644c <_prf+0x4e8>
1c006440:	04414903          	lbu	s2,68(sp)
1c006444:	fd390913          	addi	s2,s2,-45
1c006448:	00193913          	seqz	s2,s2
				if (!isdigit(buf[prefix])) {
1c00644c:	1098                	addi	a4,sp,96
1c00644e:	012707b3          	add	a5,a4,s2
1c006452:	fe47c783          	lbu	a5,-28(a5)
				clen += zero.predot + zero.postdot + zero.trail;
1c006456:	015684b3          	add	s1,a3,s5
1c00645a:	94a2                	add	s1,s1,s0
1c00645c:	fd078793          	addi	a5,a5,-48
				if (!isdigit(buf[prefix])) {
1c006460:	4625                	li	a2,9
				clen += zero.predot + zero.postdot + zero.trail;
1c006462:	00a48db3          	add	s11,s1,a0
				if (!isdigit(buf[prefix])) {
1c006466:	46f66e63          	bltu	a2,a5,1c0068e2 <_prf+0x97e>
			} else if (fzero) {
1c00646a:	47f2                	lw	a5,28(sp)
1c00646c:	46078b63          	beqz	a5,1c0068e2 <_prf+0x97e>
				zero_head = width - clen;
1c006470:	41bc8d33          	sub	s10,s9,s11
1c006474:	00dc                	addi	a5,sp,68
1c006476:	bd81                	j	1c0062c6 <_prf+0x362>
	} else if (fplus) {
1c006478:	47b2                	lw	a5,12(sp)
		*buf++ = '+';
1c00647a:	02b00693          	li	a3,43
	} else if (fplus) {
1c00647e:	fbad                	bnez	a5,1c0063f0 <_prf+0x48c>
	} else if (fspace) {
1c006480:	47c2                	lw	a5,16(sp)
1c006482:	00c4                	addi	s1,sp,68
1c006484:	dbb5                	beqz	a5,1c0063f8 <_prf+0x494>
		*buf++ = ' ';
1c006486:	02000693          	li	a3,32
1c00648a:	b79d                	j	1c0063f0 <_prf+0x48c>
				*buf++ = 'i';
1c00648c:	679d                	lui	a5,0x7
1c00648e:	e6978793          	addi	a5,a5,-407 # 6e69 <__rt_stack_size+0x6669>
1c006492:	00f49023          	sh	a5,0(s1)
				*buf++ = 'n';
1c006496:	06600793          	li	a5,102
1c00649a:	b759                	j	1c006420 <_prf+0x4bc>
			if (isupper(c)) {
1c00649c:	4765                	li	a4,25
1c00649e:	00f76a63          	bltu	a4,a5,1c0064b2 <_prf+0x54e>
				*buf++ = 'N';
1c0064a2:	6791                	lui	a5,0x4
1c0064a4:	14e78793          	addi	a5,a5,334 # 414e <__rt_stack_size+0x394e>
1c0064a8:	00f49023          	sh	a5,0(s1)
				*buf++ = 'A';
1c0064ac:	04e00793          	li	a5,78
1c0064b0:	bf85                	j	1c006420 <_prf+0x4bc>
				*buf++ = 'n';
1c0064b2:	6799                	lui	a5,0x6
1c0064b4:	16e78793          	addi	a5,a5,366 # 616e <__rt_stack_size+0x596e>
1c0064b8:	00f49023          	sh	a5,0(s1)
				*buf++ = 'a';
1c0064bc:	06e00793          	li	a5,110
1c0064c0:	b785                	j	1c006420 <_prf+0x4bc>
	if (c == 'F') {
1c0064c2:	04600693          	li	a3,70
1c0064c6:	00dd9463          	bne	s11,a3,1c0064ce <_prf+0x56a>
		c = 'f';
1c0064ca:	06600d93          	li	s11,102
	if ((exp | fract) != 0) {
1c0064ce:	41f95613          	srai	a2,s2,0x1f
1c0064d2:	00b966b3          	or	a3,s2,a1
1c0064d6:	8e59                	or	a2,a2,a4
1c0064d8:	8ed1                	or	a3,a3,a2
1c0064da:	1c068263          	beqz	a3,1c00669e <_prf+0x73a>
		if (exp == 0) {
1c0064de:	10090d63          	beqz	s2,1c0065f8 <_prf+0x694>
		fract |= HIGHBIT64;
1c0064e2:	5752                	lw	a4,52(sp)
1c0064e4:	800007b7          	lui	a5,0x80000
		exp -= (1023 - 1);	/* +1 since .1 vs 1. */
1c0064e8:	c0290913          	addi	s2,s2,-1022
		fract |= HIGHBIT64;
1c0064ec:	8f5d                	or	a4,a4,a5
1c0064ee:	da3a                	sw	a4,52(sp)
1c0064f0:	4d01                	li	s10,0
	while (exp <= -3) {
1c0064f2:	5779                	li	a4,-2
1c0064f4:	10e94f63          	blt	s2,a4,1c006612 <_prf+0x6ae>
	while (exp > 0) {
1c0064f8:	17204663          	bgtz	s2,1c006664 <_prf+0x700>
		_rlrshift(&fract);
1c0064fc:	1808                	addi	a0,sp,48
		exp++;
1c0064fe:	0905                	addi	s2,s2,1
		_rlrshift(&fract);
1c006500:	9cdff0ef          	jal	ra,1c005ecc <_rlrshift>
	while (exp < (0 + 4)) {
1c006504:	fe493ce3          	p.bneimm	s2,4,1c0064fc <_prf+0x598>
	if (precision < 0) {
1c006508:	00045363          	bgez	s0,1c00650e <_prf+0x5aa>
		precision = 6;		/* Default precision if none given */
1c00650c:	4419                	li	s0,6
	if ((c == 'g') || (c == 'G')) {
1c00650e:	0dfdf713          	andi	a4,s11,223
1c006512:	04700693          	li	a3,71
	prune_zero = false;		/* Assume trailing 0's allowed     */
1c006516:	ca02                	sw	zero,20(sp)
	if ((c == 'g') || (c == 'G')) {
1c006518:	02d71563          	bne	a4,a3,1c006542 <_prf+0x5de>
		if (decexp < (-4 + 1) || decexp > precision) {
1c00651c:	5775                	li	a4,-3
1c00651e:	00ed4463          	blt	s10,a4,1c006526 <_prf+0x5c2>
1c006522:	19a45163          	ble	s10,s0,1c0066a4 <_prf+0x740>
			c += 'e' - 'g';
1c006526:	ffed8793          	addi	a5,s11,-2
1c00652a:	0ff7fd93          	andi	s11,a5,255
			if (precision > 0) {
1c00652e:	4c040e63          	beqz	s0,1c006a0a <_prf+0xaa6>
				precision--;
1c006532:	147d                	addi	s0,s0,-1
		if (!falt && (precision > 0)) {
1c006534:	4c0a9b63          	bnez	s5,1c006a0a <_prf+0xaa6>
1c006538:	00802933          	sgtz	s2,s0
1c00653c:	0ff97913          	andi	s2,s2,255
1c006540:	ca4a                	sw	s2,20(sp)
	if (c == 'f') {
1c006542:	06600713          	li	a4,102
1c006546:	4ced9363          	bne	s11,a4,1c006a0c <_prf+0xaa8>
		exp = precision + decexp;
1c00654a:	008d0733          	add	a4,s10,s0
		if (exp < 0) {
1c00654e:	06600d93          	li	s11,102
1c006552:	4a075f63          	bgez	a4,1c006a10 <_prf+0xaac>
	digit_count = 16;
1c006556:	4741                	li	a4,16
1c006558:	d63a                	sw	a4,44(sp)
			exp = 0;
1c00655a:	4901                	li	s2,0
	ltemp = 0x0800000000000000;
1c00655c:	4601                	li	a2,0
1c00655e:	080006b7          	lui	a3,0x8000
1c006562:	dc32                	sw	a2,56(sp)
1c006564:	de36                	sw	a3,60(sp)
	while (exp--) {
1c006566:	197d                	addi	s2,s2,-1
1c006568:	15f93563          	p.bneimm	s2,-1,1c0066b2 <_prf+0x74e>
	fract += ltemp;
1c00656c:	5742                	lw	a4,48(sp)
1c00656e:	56e2                	lw	a3,56(sp)
1c006570:	5652                	lw	a2,52(sp)
1c006572:	55f2                	lw	a1,60(sp)
1c006574:	96ba                	add	a3,a3,a4
1c006576:	00e6b733          	sltu	a4,a3,a4
1c00657a:	962e                	add	a2,a2,a1
1c00657c:	9732                	add	a4,a4,a2
1c00657e:	da3a                	sw	a4,52(sp)
1c006580:	d836                	sw	a3,48(sp)
	if ((fract >> 32) & 0xF0000000) {
1c006582:	f6073733          	p.bclr	a4,a4,27,0
1c006586:	cb01                	beqz	a4,1c006596 <_prf+0x632>
		_ldiv5(&fract);
1c006588:	1808                	addi	a0,sp,48
1c00658a:	963ff0ef          	jal	ra,1c005eec <_ldiv5>
		_rlrshift(&fract);
1c00658e:	1808                	addi	a0,sp,48
1c006590:	93dff0ef          	jal	ra,1c005ecc <_rlrshift>
		decexp++;
1c006594:	0d05                	addi	s10,s10,1
	if (c == 'f') {
1c006596:	06600713          	li	a4,102
1c00659a:	16ed9163          	bne	s11,a4,1c0066fc <_prf+0x798>
		if (decexp > 0) {
1c00659e:	8926                	mv	s2,s1
1c0065a0:	13a04963          	bgtz	s10,1c0066d2 <_prf+0x76e>
			*buf++ = '0';
1c0065a4:	03000713          	li	a4,48
1c0065a8:	00e48023          	sb	a4,0(s1)
1c0065ac:	00148913          	addi	s2,s1,1
			zero.predot = zero.postdot = zero.trail = 0;
1c0065b0:	4681                	li	a3,0
		if (falt || (precision > 0)) {
1c0065b2:	120a8763          	beqz	s5,1c0066e0 <_prf+0x77c>
			*buf++ = '.';
1c0065b6:	02e00593          	li	a1,46
1c0065ba:	00b90023          	sb	a1,0(s2)
1c0065be:	00190713          	addi	a4,s2,1
		if (decexp < 0 && precision > 0) {
1c0065c2:	440d0263          	beqz	s10,1c006a06 <_prf+0xaa2>
1c0065c6:	12805863          	blez	s0,1c0066f6 <_prf+0x792>
			zp->postdot = -decexp;
1c0065ca:	41a00ab3          	neg	s5,s10
1c0065ce:	048acab3          	p.min	s5,s5,s0
			precision -= zp->postdot;
1c0065d2:	41540433          	sub	s0,s0,s5
			zero.predot = zero.postdot = zero.trail = 0;
1c0065d6:	893a                	mv	s2,a4
		while (precision > 0 && digit_count > 0) {
1c0065d8:	10805763          	blez	s0,1c0066e6 <_prf+0x782>
1c0065dc:	5732                	lw	a4,44(sp)
1c0065de:	10e05463          	blez	a4,1c0066e6 <_prf+0x782>
			*buf++ = _get_digit(&fract, &digit_count);
1c0065e2:	106c                	addi	a1,sp,44
1c0065e4:	1808                	addi	a0,sp,48
1c0065e6:	c036                	sw	a3,0(sp)
1c0065e8:	949ff0ef          	jal	ra,1c005f30 <_get_digit>
1c0065ec:	00a900ab          	p.sb	a0,1(s2!)
			precision--;
1c0065f0:	147d                	addi	s0,s0,-1
1c0065f2:	4682                	lw	a3,0(sp)
1c0065f4:	b7d5                	j	1c0065d8 <_prf+0x674>
				exp--;
1c0065f6:	197d                	addi	s2,s2,-1
			while (((fract <<= 1) & HIGHBIT64) == 0) {
1c0065f8:	01f5d693          	srli	a3,a1,0x1f
1c0065fc:	0706                	slli	a4,a4,0x1
1c0065fe:	8f55                	or	a4,a4,a3
1c006600:	0586                	slli	a1,a1,0x1
1c006602:	fe075ae3          	bgez	a4,1c0065f6 <_prf+0x692>
1c006606:	d82e                	sw	a1,48(sp)
1c006608:	da3a                	sw	a4,52(sp)
1c00660a:	bde1                	j	1c0064e2 <_prf+0x57e>
			_rlrshift(&fract);
1c00660c:	1808                	addi	a0,sp,48
1c00660e:	8bfff0ef          	jal	ra,1c005ecc <_rlrshift>
		while ((fract >> 32) >= (MAXFP1 / 5)) {
1c006612:	55d2                	lw	a1,52(sp)
1c006614:	33333737          	lui	a4,0x33333
1c006618:	33270713          	addi	a4,a4,818 # 33333332 <__l2_end+0x1732312a>
1c00661c:	5642                	lw	a2,48(sp)
1c00661e:	0905                	addi	s2,s2,1
1c006620:	feb766e3          	bltu	a4,a1,1c00660c <_prf+0x6a8>
		fract *= 5U;
1c006624:	4695                	li	a3,5
1c006626:	02c6b733          	mulhu	a4,a3,a2
		decexp--;
1c00662a:	1d7d                	addi	s10,s10,-1
		fract *= 5U;
1c00662c:	02c68633          	mul	a2,a3,a2
1c006630:	42b68733          	p.mac	a4,a3,a1
1c006634:	d832                	sw	a2,48(sp)
		decexp--;
1c006636:	4681                	li	a3,0
		fract *= 5U;
1c006638:	da3a                	sw	a4,52(sp)
		while ((fract >> 32) <= (MAXFP1 / 2)) {
1c00663a:	800007b7          	lui	a5,0x80000
1c00663e:	fff7c793          	not	a5,a5
1c006642:	00e7f763          	bleu	a4,a5,1c006650 <_prf+0x6ec>
1c006646:	ea0686e3          	beqz	a3,1c0064f2 <_prf+0x58e>
1c00664a:	d832                	sw	a2,48(sp)
1c00664c:	da3a                	sw	a4,52(sp)
1c00664e:	b555                	j	1c0064f2 <_prf+0x58e>
			fract <<= 1;
1c006650:	01f65593          	srli	a1,a2,0x1f
1c006654:	00171693          	slli	a3,a4,0x1
1c006658:	00d5e733          	or	a4,a1,a3
1c00665c:	0606                	slli	a2,a2,0x1
			exp--;
1c00665e:	197d                	addi	s2,s2,-1
1c006660:	4685                	li	a3,1
1c006662:	bfe1                	j	1c00663a <_prf+0x6d6>
		_ldiv5(&fract);
1c006664:	1808                	addi	a0,sp,48
1c006666:	887ff0ef          	jal	ra,1c005eec <_ldiv5>
1c00666a:	5642                	lw	a2,48(sp)
1c00666c:	5752                	lw	a4,52(sp)
		exp--;
1c00666e:	197d                	addi	s2,s2,-1
		decexp++;
1c006670:	0d05                	addi	s10,s10,1
1c006672:	4681                	li	a3,0
		while ((fract >> 32) <= (MAXFP1 / 2)) {
1c006674:	800007b7          	lui	a5,0x80000
1c006678:	fff7c793          	not	a5,a5
1c00667c:	00e7f763          	bleu	a4,a5,1c00668a <_prf+0x726>
1c006680:	e6068ce3          	beqz	a3,1c0064f8 <_prf+0x594>
1c006684:	d832                	sw	a2,48(sp)
1c006686:	da3a                	sw	a4,52(sp)
1c006688:	bd85                	j	1c0064f8 <_prf+0x594>
			fract <<= 1;
1c00668a:	01f65593          	srli	a1,a2,0x1f
1c00668e:	00171693          	slli	a3,a4,0x1
1c006692:	00d5e733          	or	a4,a1,a3
1c006696:	0606                	slli	a2,a2,0x1
			exp--;
1c006698:	197d                	addi	s2,s2,-1
1c00669a:	4685                	li	a3,1
1c00669c:	bfe1                	j	1c006674 <_prf+0x710>
	if ((exp | fract) != 0) {
1c00669e:	4d01                	li	s10,0
1c0066a0:	4901                	li	s2,0
1c0066a2:	bda9                	j	1c0064fc <_prf+0x598>
			precision -= decexp;
1c0066a4:	41a40433          	sub	s0,s0,s10
		if (!falt && (precision > 0)) {
1c0066a8:	ea0a91e3          	bnez	s5,1c00654a <_prf+0x5e6>
			c = 'f';
1c0066ac:	06600d93          	li	s11,102
1c0066b0:	b561                	j	1c006538 <_prf+0x5d4>
		_ldiv5(&ltemp);
1c0066b2:	1828                	addi	a0,sp,56
1c0066b4:	839ff0ef          	jal	ra,1c005eec <_ldiv5>
		_rlrshift(&ltemp);
1c0066b8:	1828                	addi	a0,sp,56
1c0066ba:	813ff0ef          	jal	ra,1c005ecc <_rlrshift>
1c0066be:	b565                	j	1c006566 <_prf+0x602>
				*buf++ = _get_digit(&fract, &digit_count);
1c0066c0:	106c                	addi	a1,sp,44
1c0066c2:	1808                	addi	a0,sp,48
1c0066c4:	86dff0ef          	jal	ra,1c005f30 <_get_digit>
1c0066c8:	00a900ab          	p.sb	a0,1(s2!)
				decexp--;
1c0066cc:	1d7d                	addi	s10,s10,-1
			while (decexp > 0 && digit_count > 0) {
1c0066ce:	000d0563          	beqz	s10,1c0066d8 <_prf+0x774>
1c0066d2:	5732                	lw	a4,44(sp)
1c0066d4:	fee046e3          	bgtz	a4,1c0066c0 <_prf+0x75c>
		if (falt || (precision > 0)) {
1c0066d8:	300a9f63          	bnez	s5,1c0069f6 <_prf+0xa92>
			zp->predot = decexp;
1c0066dc:	86ea                	mv	a3,s10
			decexp = 0;
1c0066de:	4d01                	li	s10,0
			zero.predot = zero.postdot = zero.trail = 0;
1c0066e0:	4a81                	li	s5,0
		if (falt || (precision > 0)) {
1c0066e2:	ec804ae3          	bgtz	s0,1c0065b6 <_prf+0x652>
	if (prune_zero) {
1c0066e6:	4752                	lw	a4,20(sp)
1c0066e8:	eb31                	bnez	a4,1c00673c <_prf+0x7d8>
	return buf - start;
1c0066ea:	00c8                	addi	a0,sp,68
	*buf = 0;
1c0066ec:	00090023          	sb	zero,0(s2)
	return buf - start;
1c0066f0:	40a90533          	sub	a0,s2,a0
1c0066f4:	b389                	j	1c006436 <_prf+0x4d2>
			*buf++ = '.';
1c0066f6:	893a                	mv	s2,a4
			zero.predot = zero.postdot = zero.trail = 0;
1c0066f8:	4a81                	li	s5,0
1c0066fa:	b7f5                	j	1c0066e6 <_prf+0x782>
		*buf = _get_digit(&fract, &digit_count);
1c0066fc:	106c                	addi	a1,sp,44
1c0066fe:	1808                	addi	a0,sp,48
1c006700:	831ff0ef          	jal	ra,1c005f30 <_get_digit>
1c006704:	00a48023          	sb	a0,0(s1)
		if (*buf++ != '0') {
1c006708:	03000713          	li	a4,48
1c00670c:	00e50363          	beq	a0,a4,1c006712 <_prf+0x7ae>
			decexp--;
1c006710:	1d7d                	addi	s10,s10,-1
		if (falt || (precision > 0)) {
1c006712:	000a9663          	bnez	s5,1c00671e <_prf+0x7ba>
		if (*buf++ != '0') {
1c006716:	00148913          	addi	s2,s1,1
		if (falt || (precision > 0)) {
1c00671a:	00805d63          	blez	s0,1c006734 <_prf+0x7d0>
			*buf++ = '.';
1c00671e:	02e00713          	li	a4,46
1c006722:	00248913          	addi	s2,s1,2
1c006726:	00e480a3          	sb	a4,1(s1)
		while (precision > 0 && digit_count > 0) {
1c00672a:	00805563          	blez	s0,1c006734 <_prf+0x7d0>
1c00672e:	5732                	lw	a4,44(sp)
1c006730:	08e04663          	bgtz	a4,1c0067bc <_prf+0x858>
	if (prune_zero) {
1c006734:	47d2                	lw	a5,20(sp)
			zero.predot = zero.postdot = zero.trail = 0;
1c006736:	4a81                	li	s5,0
1c006738:	4681                	li	a3,0
	if (prune_zero) {
1c00673a:	cf99                	beqz	a5,1c006758 <_prf+0x7f4>
		while (*--buf == '0')
1c00673c:	03000513          	li	a0,48
1c006740:	fff90713          	addi	a4,s2,-1
1c006744:	00074583          	lbu	a1,0(a4)
1c006748:	08a58263          	beq	a1,a0,1c0067cc <_prf+0x868>
		if (*buf != '.') {
1c00674c:	02e00513          	li	a0,46
		zp->trail = 0;
1c006750:	4401                	li	s0,0
		if (*buf != '.') {
1c006752:	00a59363          	bne	a1,a0,1c006758 <_prf+0x7f4>
		while (*--buf == '0')
1c006756:	893a                	mv	s2,a4
	if ((c == 'e') || (c == 'E')) {
1c006758:	0dfdf713          	andi	a4,s11,223
1c00675c:	04500593          	li	a1,69
1c006760:	f8b715e3          	bne	a4,a1,1c0066ea <_prf+0x786>
		*buf++ = c;
1c006764:	85ca                	mv	a1,s2
1c006766:	01b5812b          	p.sb	s11,2(a1!)
			*buf++ = '+';
1c00676a:	02b00793          	li	a5,43
		if (decexp < 0) {
1c00676e:	000d5663          	bgez	s10,1c00677a <_prf+0x816>
			decexp = -decexp;
1c006772:	41a00d33          	neg	s10,s10
			*buf++ = '-';
1c006776:	02d00793          	li	a5,45
			*buf++ = '+';
1c00677a:	00f900a3          	sb	a5,1(s2)
		if (decexp >= 100) {
1c00677e:	06300793          	li	a5,99
1c006782:	01a7de63          	ble	s10,a5,1c00679e <_prf+0x83a>
			*buf++ = (decexp / 100) + '0';
1c006786:	06400713          	li	a4,100
1c00678a:	02ed47b3          	div	a5,s10,a4
1c00678e:	00390593          	addi	a1,s2,3
			decexp %= 100;
1c006792:	02ed6d33          	rem	s10,s10,a4
			*buf++ = (decexp / 100) + '0';
1c006796:	03078793          	addi	a5,a5,48 # 80000030 <pulp__FC+0x80000031>
1c00679a:	00f90123          	sb	a5,2(s2)
		*buf++ = (decexp / 10) + '0';
1c00679e:	47a9                	li	a5,10
1c0067a0:	892e                	mv	s2,a1
1c0067a2:	02fd4733          	div	a4,s10,a5
		decexp %= 10;
1c0067a6:	02fd68b3          	rem	a7,s10,a5
		*buf++ = (decexp / 10) + '0';
1c0067aa:	03070713          	addi	a4,a4,48
1c0067ae:	00e9012b          	p.sb	a4,2(s2!)
		*buf++ = decexp + '0';
1c0067b2:	03088893          	addi	a7,a7,48
1c0067b6:	011580a3          	sb	a7,1(a1)
1c0067ba:	bf05                	j	1c0066ea <_prf+0x786>
			*buf++ = _get_digit(&fract, &digit_count);
1c0067bc:	106c                	addi	a1,sp,44
1c0067be:	1808                	addi	a0,sp,48
1c0067c0:	f70ff0ef          	jal	ra,1c005f30 <_get_digit>
1c0067c4:	00a900ab          	p.sb	a0,1(s2!)
			precision--;
1c0067c8:	147d                	addi	s0,s0,-1
1c0067ca:	b785                	j	1c00672a <_prf+0x7c6>
		while (*--buf == '0')
1c0067cc:	893a                	mv	s2,a4
1c0067ce:	bf8d                	j	1c006740 <_prf+0x7dc>
1c0067d0:	8a4a                	mv	s4,s2
				switch (i) {
1c0067d2:	04c00693          	li	a3,76
1c0067d6:	004a278b          	p.lw	a5,4(s4!)
1c0067da:	02d48a63          	beq	s1,a3,1c00680e <_prf+0x8aa>
1c0067de:	0096c963          	blt	a3,s1,1c0067f0 <_prf+0x88c>
1c0067e2:	04800693          	li	a3,72
1c0067e6:	02d48063          	beq	s1,a3,1c006806 <_prf+0x8a2>
					*va_arg(vargs, int *) = count;
1c0067ea:	0137a023          	sw	s3,0(a5)
					break;
1c0067ee:	a801                	j	1c0067fe <_prf+0x89a>
				switch (i) {
1c0067f0:	06800693          	li	a3,104
1c0067f4:	fed49be3          	bne	s1,a3,1c0067ea <_prf+0x886>
					*va_arg(vargs, short *) = count;
1c0067f8:	874e                	mv	a4,s3
1c0067fa:	00e79023          	sh	a4,0(a5)
				continue;
1c0067fe:	8952                	mv	s2,s4
1c006800:	8662                	mv	a2,s8
1c006802:	f86ff06f          	j	1c005f88 <_prf+0x24>
					*va_arg(vargs, char *) = count;
1c006806:	874e                	mv	a4,s3
1c006808:	00e78023          	sb	a4,0(a5)
					break;
1c00680c:	bfcd                	j	1c0067fe <_prf+0x89a>
					*va_arg(vargs, long long *) = count;
1c00680e:	41f9d713          	srai	a4,s3,0x1f
1c006812:	0137a023          	sw	s3,0(a5)
1c006816:	c3d8                	sw	a4,4(a5)
					break;
1c006818:	b7dd                	j	1c0067fe <_prf+0x89a>
				clen = _to_hex(buf, val, true, 'x');
1c00681a:	00092583          	lw	a1,0(s2)
		*buf++ = '0';
1c00681e:	77e1                	lui	a5,0xffff8
1c006820:	8307c793          	xori	a5,a5,-2000
	len = _to_x(buf, value, 16);
1c006824:	46c1                	li	a3,16
1c006826:	4601                	li	a2,0
1c006828:	04610513          	addi	a0,sp,70
		*buf++ = '0';
1c00682c:	04f11223          	sh	a5,68(sp)
	len = _to_x(buf, value, 16);
1c006830:	e0aff0ef          	jal	ra,1c005e3a <_to_x>
				val = (uintptr_t) va_arg(vargs, void *);
1c006834:	00490a13          	addi	s4,s2,4
	return len + (buf - buf0);
1c006838:	00250d93          	addi	s11,a0,2
				prefix = 2;
1c00683c:	4909                	li	s2,2
				break;
1c00683e:	b40d                	j	1c006260 <_prf+0x2fc>
					if (cptr[clen] == '\0') {
1c006840:	0016c60b          	p.lbu	a2,1(a3!) # 8000001 <__L2+0x7f80001>
1c006844:	a4060ee3          	beqz	a2,1c0062a0 <_prf+0x33c>
				for (clen = 0; clen < precision; clen++) {
1c006848:	0d85                	addi	s11,s11,1
1c00684a:	bc89                	j	1c00629c <_prf+0x338>
					val = va_arg(vargs, unsigned int);
1c00684c:	00490a13          	addi	s4,s2,4
1c006850:	00092583          	lw	a1,0(s2)
1c006854:	4601                	li	a2,0
					break;
1c006856:	ba99                	j	1c0061ac <_prf+0x248>
	if (alt_form) {
1c006858:	8526                	mv	a0,s1
	return (buf - buf0) + _to_x(buf, value, 8);
1c00685a:	46a1                	li	a3,8
1c00685c:	409504b3          	sub	s1,a0,s1
1c006860:	ddaff0ef          	jal	ra,1c005e3a <_to_x>
1c006864:	00a48db3          	add	s11,s1,a0
			prefix = 0;
1c006868:	4901                	li	s2,0
1c00686a:	badd                	j	1c006260 <_prf+0x2fc>
				} else if (c == 'u') {
1c00686c:	07500713          	li	a4,117
1c006870:	00ed9863          	bne	s11,a4,1c006880 <_prf+0x91c>
	return _to_x(buf, value, 10);
1c006874:	46a9                	li	a3,10
1c006876:	8526                	mv	a0,s1
1c006878:	dc2ff0ef          	jal	ra,1c005e3a <_to_x>
1c00687c:	8daa                	mv	s11,a0
1c00687e:	b7ed                	j	1c006868 <_prf+0x904>
	if (alt_form) {
1c006880:	8d26                	mv	s10,s1
1c006882:	000a8963          	beqz	s5,1c006894 <_prf+0x930>
		*buf++ = '0';
1c006886:	7761                	lui	a4,0xffff8
1c006888:	83074713          	xori	a4,a4,-2000
1c00688c:	04e11223          	sh	a4,68(sp)
		*buf++ = 'x';
1c006890:	04610d13          	addi	s10,sp,70
	len = _to_x(buf, value, 16);
1c006894:	46c1                	li	a3,16
1c006896:	856a                	mv	a0,s10
1c006898:	da2ff0ef          	jal	ra,1c005e3a <_to_x>
	if (prefix == 'X') {
1c00689c:	05800713          	li	a4,88
1c0068a0:	02ed9263          	bne	s11,a4,1c0068c4 <_prf+0x960>
1c0068a4:	87a6                	mv	a5,s1
		if (*buf >= 'a' && *buf <= 'z') {
1c0068a6:	45e5                	li	a1,25
1c0068a8:	0017c68b          	p.lbu	a3,1(a5!) # ffff8001 <pulp__FC+0xffff8002>
1c0068ac:	f9f68613          	addi	a2,a3,-97
1c0068b0:	0ff67613          	andi	a2,a2,255
1c0068b4:	00c5e563          	bltu	a1,a2,1c0068be <_prf+0x95a>
			*buf += 'A' - 'a';
1c0068b8:	1681                	addi	a3,a3,-32
1c0068ba:	fed78fa3          	sb	a3,-1(a5)
	} while (*buf++);
1c0068be:	fff7c703          	lbu	a4,-1(a5)
1c0068c2:	f37d                	bnez	a4,1c0068a8 <_prf+0x944>
	return len + (buf - buf0);
1c0068c4:	409d0733          	sub	a4,s10,s1
1c0068c8:	00a70db3          	add	s11,a4,a0
			prefix = 0;
1c0068cc:	001a9913          	slli	s2,s5,0x1
1c0068d0:	ba41                	j	1c006260 <_prf+0x2fc>
				PUTC('%');
1c0068d2:	85de                	mv	a1,s7
1c0068d4:	02500513          	li	a0,37
1c0068d8:	ec4ff06f          	j	1c005f9c <_prf+0x38>
				count++;
1c0068dc:	0985                	addi	s3,s3,1
				continue;
1c0068de:	8a4a                	mv	s4,s2
1c0068e0:	bf39                	j	1c0067fe <_prf+0x89a>
1c0068e2:	00dc                	addi	a5,sp,68
				zero_head = 0;
1c0068e4:	4d01                	li	s10,0
1c0068e6:	b2d5                	j	1c0062ca <_prf+0x366>
					PUTC(' ');
1c0068e8:	85de                	mv	a1,s7
1c0068ea:	02000513          	li	a0,32
1c0068ee:	c036                	sw	a3,0(sp)
1c0068f0:	c43e                	sw	a5,8(sp)
1c0068f2:	9b02                	jalr	s6
1c0068f4:	4682                	lw	a3,0(sp)
1c0068f6:	47a2                	lw	a5,8(sp)
1c0068f8:	ebf52563          	p.beqimm	a0,-1,1c005fa2 <_prf+0x3e>
				while (width-- > 0) {
1c0068fc:	14fd                	addi	s1,s1,-1
1c0068fe:	fff4b5e3          	p.bneimm	s1,-1,1c0068e8 <_prf+0x984>
				count += width;
1c006902:	99e6                	add	s3,s3,s9
				while (width-- > 0) {
1c006904:	5cfd                	li	s9,-1
1c006906:	bad9                	j	1c0062dc <_prf+0x378>
				PUTC(*cptr++);
1c006908:	0017c50b          	p.lbu	a0,1(a5!)
1c00690c:	85de                	mv	a1,s7
1c00690e:	c036                	sw	a3,0(sp)
1c006910:	c43e                	sw	a5,8(sp)
1c006912:	9b02                	jalr	s6
1c006914:	4682                	lw	a3,0(sp)
1c006916:	47a2                	lw	a5,8(sp)
1c006918:	9df534e3          	p.bneimm	a0,-1,1c0062e0 <_prf+0x37c>
1c00691c:	e86ff06f          	j	1c005fa2 <_prf+0x3e>
				PUTC('0');
1c006920:	85de                	mv	a1,s7
1c006922:	03000513          	li	a0,48
1c006926:	c036                	sw	a3,0(sp)
1c006928:	c43e                	sw	a5,8(sp)
1c00692a:	9b02                	jalr	s6
1c00692c:	4682                	lw	a3,0(sp)
1c00692e:	47a2                	lw	a5,8(sp)
1c006930:	9bf53be3          	p.bneimm	a0,-1,1c0062e6 <_prf+0x382>
1c006934:	e6eff06f          	j	1c005fa2 <_prf+0x3e>
					PUTC(c);
1c006938:	85de                	mv	a1,s7
1c00693a:	c232                	sw	a2,4(sp)
1c00693c:	c036                	sw	a3,0(sp)
1c00693e:	c442                	sw	a6,8(sp)
1c006940:	9b02                	jalr	s6
1c006942:	4612                	lw	a2,4(sp)
1c006944:	4682                	lw	a3,0(sp)
1c006946:	4822                	lw	a6,8(sp)
1c006948:	e5f52d63          	p.beqimm	a0,-1,1c005fa2 <_prf+0x3e>
					c = *++cptr;
1c00694c:	0d85                	addi	s11,s11,1
1c00694e:	000dc503          	lbu	a0,0(s11)
1c006952:	b27d                	j	1c006300 <_prf+0x39c>
					PUTC('0');
1c006954:	85de                	mv	a1,s7
1c006956:	03000513          	li	a0,48
1c00695a:	c232                	sw	a2,4(sp)
1c00695c:	c036                	sw	a3,0(sp)
1c00695e:	c43a                	sw	a4,8(sp)
1c006960:	9b02                	jalr	s6
1c006962:	4612                	lw	a2,4(sp)
1c006964:	4682                	lw	a3,0(sp)
1c006966:	4722                	lw	a4,8(sp)
1c006968:	167d                	addi	a2,a2,-1
1c00696a:	9bf532e3          	p.bneimm	a0,-1,1c00630e <_prf+0x3aa>
1c00696e:	e34ff06f          	j	1c005fa2 <_prf+0x3e>
					PUTC('0');
1c006972:	85de                	mv	a1,s7
1c006974:	03000513          	li	a0,48
1c006978:	c036                	sw	a3,0(sp)
1c00697a:	c43a                	sw	a4,8(sp)
1c00697c:	9b02                	jalr	s6
1c00697e:	4682                	lw	a3,0(sp)
1c006980:	4722                	lw	a4,8(sp)
1c006982:	16fd                	addi	a3,a3,-1
1c006984:	9df532e3          	p.bneimm	a0,-1,1c006348 <_prf+0x3e4>
1c006988:	e1aff06f          	j	1c005fa2 <_prf+0x3e>
					PUTC(c);
1c00698c:	85de                	mv	a1,s7
1c00698e:	c232                	sw	a2,4(sp)
1c006990:	c036                	sw	a3,0(sp)
1c006992:	c43a                	sw	a4,8(sp)
1c006994:	9b02                	jalr	s6
1c006996:	4612                	lw	a2,4(sp)
1c006998:	4682                	lw	a3,0(sp)
1c00699a:	4722                	lw	a4,8(sp)
1c00699c:	e1f52363          	p.beqimm	a0,-1,1c005fa2 <_prf+0x3e>
					c = *++cptr;
1c0069a0:	0d85                	addi	s11,s11,1
1c0069a2:	000dc503          	lbu	a0,0(s11)
1c0069a6:	ba75                	j	1c006362 <_prf+0x3fe>
					PUTC('0');
1c0069a8:	85de                	mv	a1,s7
1c0069aa:	03000513          	li	a0,48
1c0069ae:	c43a                	sw	a4,8(sp)
1c0069b0:	9b02                	jalr	s6
1c0069b2:	4722                	lw	a4,8(sp)
1c0069b4:	177d                	addi	a4,a4,-1
1c0069b6:	9bf53fe3          	p.bneimm	a0,-1,1c006374 <_prf+0x410>
1c0069ba:	de8ff06f          	j	1c005fa2 <_prf+0x3e>
				PUTC(*cptr++);
1c0069be:	0014450b          	p.lbu	a0,1(s0!)
1c0069c2:	85de                	mv	a1,s7
1c0069c4:	9b02                	jalr	s6
1c0069c6:	ddf52e63          	p.beqimm	a0,-1,1c005fa2 <_prf+0x3e>
1c0069ca:	408a87b3          	sub	a5,s5,s0
			while (clen-- > 0) {
1c0069ce:	fef048e3          	bgtz	a5,1c0069be <_prf+0xa5a>
			count += prefix;
1c0069d2:	994e                	add	s2,s2,s3
			count += zero_head;
1c0069d4:	012d09b3          	add	s3,s10,s2
			count += clen;
1c0069d8:	99a6                	add	s3,s3,s1
			if (width > 0) {
1c0069da:	e39052e3          	blez	s9,1c0067fe <_prf+0x89a>
				count += width;
1c0069de:	99e6                	add	s3,s3,s9
				while (width-- > 0) {
1c0069e0:	1cfd                	addi	s9,s9,-1
1c0069e2:	e1fcaee3          	p.beqimm	s9,-1,1c0067fe <_prf+0x89a>
					PUTC(' ');
1c0069e6:	85de                	mv	a1,s7
1c0069e8:	02000513          	li	a0,32
1c0069ec:	9b02                	jalr	s6
1c0069ee:	fff539e3          	p.bneimm	a0,-1,1c0069e0 <_prf+0xa7c>
1c0069f2:	db0ff06f          	j	1c005fa2 <_prf+0x3e>
			*buf++ = '.';
1c0069f6:	02e00693          	li	a3,46
1c0069fa:	00d90023          	sb	a3,0(s2)
1c0069fe:	00190713          	addi	a4,s2,1
			zp->predot = decexp;
1c006a02:	86ea                	mv	a3,s10
			decexp = 0;
1c006a04:	4d01                	li	s10,0
			zero.predot = zero.postdot = zero.trail = 0;
1c006a06:	4a81                	li	s5,0
1c006a08:	b6f9                	j	1c0065d6 <_prf+0x672>
	prune_zero = false;		/* Assume trailing 0's allowed     */
1c006a0a:	ca02                	sw	zero,20(sp)
		exp = precision + 1;
1c006a0c:	00140713          	addi	a4,s0,1
	digit_count = 16;
1c006a10:	46c1                	li	a3,16
1c006a12:	d636                	sw	a3,44(sp)
1c006a14:	04d74933          	p.min	s2,a4,a3
1c006a18:	b691                	j	1c00655c <_prf+0x5f8>

1c006a1a <__rt_uart_cluster_req_done>:
  }

  return __rt_uart_open(channel, conf, event, dev_name);
  
error:
  rt_warning("[UART] Failed to open uart device\n");
1c006a1a:	300476f3          	csrrci	a3,mstatus,8
1c006a1e:	4785                	li	a5,1
1c006a20:	08f50623          	sb	a5,140(a0)
1c006a24:	08d54783          	lbu	a5,141(a0)
1c006a28:	00201737          	lui	a4,0x201
1c006a2c:	e0470713          	addi	a4,a4,-508 # 200e04 <__L2+0x180e04>
1c006a30:	04078793          	addi	a5,a5,64
1c006a34:	07da                	slli	a5,a5,0x16
1c006a36:	0007e723          	p.sw	zero,a4(a5)
1c006a3a:	30069073          	csrw	mstatus,a3
1c006a3e:	8082                	ret

1c006a40 <__rt_uart_setup.isra.5>:
1c006a40:	1c010737          	lui	a4,0x1c010
1c006a44:	1b472703          	lw	a4,436(a4) # 1c0101b4 <__rt_freq_domains>
1c006a48:	00155793          	srli	a5,a0,0x1
1c006a4c:	97ba                	add	a5,a5,a4
1c006a4e:	02a7d7b3          	divu	a5,a5,a0
1c006a52:	1a102737          	lui	a4,0x1a102
1c006a56:	17fd                	addi	a5,a5,-1
1c006a58:	07c2                	slli	a5,a5,0x10
1c006a5a:	3067e793          	ori	a5,a5,774
1c006a5e:	22f72223          	sw	a5,548(a4) # 1a102224 <__l1_end+0xa102204>
1c006a62:	8082                	ret

1c006a64 <__rt_uart_setfreq_after>:
1c006a64:	1c0107b7          	lui	a5,0x1c010
1c006a68:	fac78793          	addi	a5,a5,-84 # 1c00ffac <__rt_uart>
1c006a6c:	4398                	lw	a4,0(a5)
1c006a6e:	cb11                	beqz	a4,1c006a82 <__rt_uart_setfreq_after+0x1e>
1c006a70:	4788                	lw	a0,8(a5)
1c006a72:	1141                	addi	sp,sp,-16
1c006a74:	c606                	sw	ra,12(sp)
1c006a76:	fcbff0ef          	jal	ra,1c006a40 <__rt_uart_setup.isra.5>
1c006a7a:	40b2                	lw	ra,12(sp)
1c006a7c:	4501                	li	a0,0
1c006a7e:	0141                	addi	sp,sp,16
1c006a80:	8082                	ret
1c006a82:	4501                	li	a0,0
1c006a84:	8082                	ret

1c006a86 <__rt_uart_wait_tx_done.isra.6>:
1c006a86:	1a102737          	lui	a4,0x1a102
1c006a8a:	1141                	addi	sp,sp,-16
1c006a8c:	21870713          	addi	a4,a4,536 # 1a102218 <__l1_end+0xa1021f8>
1c006a90:	002046b7          	lui	a3,0x204
1c006a94:	431c                	lw	a5,0(a4)
1c006a96:	8bc1                	andi	a5,a5,16
1c006a98:	e38d                	bnez	a5,1c006aba <__rt_uart_wait_tx_done.isra.6+0x34>
1c006a9a:	1a102737          	lui	a4,0x1a102
1c006a9e:	22070713          	addi	a4,a4,544 # 1a102220 <__l1_end+0xa102200>
1c006aa2:	431c                	lw	a5,0(a4)
1c006aa4:	fc17b7b3          	p.bclr	a5,a5,30,1
1c006aa8:	ffed                	bnez	a5,1c006aa2 <__rt_uart_wait_tx_done.isra.6+0x1c>
1c006aaa:	c602                	sw	zero,12(sp)
1c006aac:	7cf00713          	li	a4,1999
1c006ab0:	47b2                	lw	a5,12(sp)
1c006ab2:	00f75763          	ble	a5,a4,1c006ac0 <__rt_uart_wait_tx_done.isra.6+0x3a>
1c006ab6:	0141                	addi	sp,sp,16
1c006ab8:	8082                	ret
1c006aba:	0386e783          	p.elw	a5,56(a3) # 204038 <__L2+0x184038>
1c006abe:	bfd9                	j	1c006a94 <__rt_uart_wait_tx_done.isra.6+0xe>
1c006ac0:	47b2                	lw	a5,12(sp)
1c006ac2:	0785                	addi	a5,a5,1
1c006ac4:	c63e                	sw	a5,12(sp)
1c006ac6:	b7ed                	j	1c006ab0 <__rt_uart_wait_tx_done.isra.6+0x2a>

1c006ac8 <__rt_uart_setfreq_before>:
1c006ac8:	1c0107b7          	lui	a5,0x1c010
1c006acc:	fac7a783          	lw	a5,-84(a5) # 1c00ffac <__rt_uart>
1c006ad0:	c385                	beqz	a5,1c006af0 <__rt_uart_setfreq_before+0x28>
1c006ad2:	1141                	addi	sp,sp,-16
1c006ad4:	c606                	sw	ra,12(sp)
1c006ad6:	fb1ff0ef          	jal	ra,1c006a86 <__rt_uart_wait_tx_done.isra.6>
1c006ada:	40b2                	lw	ra,12(sp)
1c006adc:	005007b7          	lui	a5,0x500
1c006ae0:	1a102737          	lui	a4,0x1a102
1c006ae4:	0799                	addi	a5,a5,6
1c006ae6:	22f72223          	sw	a5,548(a4) # 1a102224 <__l1_end+0xa102204>
1c006aea:	4501                	li	a0,0
1c006aec:	0141                	addi	sp,sp,16
1c006aee:	8082                	ret
1c006af0:	4501                	li	a0,0
1c006af2:	8082                	ret

1c006af4 <__rt_uart_cluster_req>:
1c006af4:	1141                	addi	sp,sp,-16
1c006af6:	c606                	sw	ra,12(sp)
1c006af8:	c422                	sw	s0,8(sp)
1c006afa:	30047473          	csrrci	s0,mstatus,8
1c006afe:	1c0077b7          	lui	a5,0x1c007
1c006b02:	a1a78793          	addi	a5,a5,-1510 # 1c006a1a <__rt_uart_cluster_req_done>
1c006b06:	c91c                	sw	a5,16(a0)
1c006b08:	4785                	li	a5,1
1c006b0a:	d91c                	sw	a5,48(a0)
1c006b0c:	411c                	lw	a5,0(a0)
1c006b0e:	02052a23          	sw	zero,52(a0)
1c006b12:	c948                	sw	a0,20(a0)
1c006b14:	43cc                	lw	a1,4(a5)
1c006b16:	4514                	lw	a3,8(a0)
1c006b18:	4150                	lw	a2,4(a0)
1c006b1a:	0586                	slli	a1,a1,0x1
1c006b1c:	00c50793          	addi	a5,a0,12
1c006b20:	4701                	li	a4,0
1c006b22:	0585                	addi	a1,a1,1
1c006b24:	4501                	li	a0,0
1c006b26:	981fd0ef          	jal	ra,1c0044a6 <rt_periph_copy>
1c006b2a:	30041073          	csrw	mstatus,s0
1c006b2e:	40b2                	lw	ra,12(sp)
1c006b30:	4422                	lw	s0,8(sp)
1c006b32:	0141                	addi	sp,sp,16
1c006b34:	8082                	ret

1c006b36 <soc_eu_fcEventMask_setEvent>:
1c006b36:	47fd                	li	a5,31
1c006b38:	4721                	li	a4,8
1c006b3a:	00a7d463          	ble	a0,a5,1c006b42 <soc_eu_fcEventMask_setEvent+0xc>
1c006b3e:	1501                	addi	a0,a0,-32
1c006b40:	4711                	li	a4,4
1c006b42:	1a1066b7          	lui	a3,0x1a106
1c006b46:	20e6f603          	p.lw	a2,a4(a3)
1c006b4a:	4785                	li	a5,1
1c006b4c:	00a79533          	sll	a0,a5,a0
1c006b50:	fff54513          	not	a0,a0
1c006b54:	8d71                	and	a0,a0,a2
1c006b56:	00a6e723          	p.sw	a0,a4(a3)
1c006b5a:	8082                	ret

1c006b5c <rt_uart_conf_init>:
1c006b5c:	000997b7          	lui	a5,0x99
1c006b60:	96878793          	addi	a5,a5,-1688 # 98968 <__L2+0x18968>
1c006b64:	c11c                	sw	a5,0(a0)
1c006b66:	57fd                	li	a5,-1
1c006b68:	c15c                	sw	a5,4(a0)
1c006b6a:	8082                	ret

1c006b6c <__rt_uart_open>:
1c006b6c:	1141                	addi	sp,sp,-16
1c006b6e:	c606                	sw	ra,12(sp)
1c006b70:	c422                	sw	s0,8(sp)
1c006b72:	c226                	sw	s1,4(sp)
1c006b74:	c04a                	sw	s2,0(sp)
1c006b76:	30047973          	csrrci	s2,mstatus,8
1c006b7a:	cd8d                	beqz	a1,1c006bb4 <__rt_uart_open+0x48>
1c006b7c:	4198                	lw	a4,0(a1)
1c006b7e:	1c0106b7          	lui	a3,0x1c010
1c006b82:	ffc50793          	addi	a5,a0,-4
1c006b86:	fac68413          	addi	s0,a3,-84 # 1c00ffac <__rt_uart>
1c006b8a:	0792                	slli	a5,a5,0x4
1c006b8c:	943e                	add	s0,s0,a5
1c006b8e:	4010                	lw	a2,0(s0)
1c006b90:	fac68693          	addi	a3,a3,-84
1c006b94:	c60d                	beqz	a2,1c006bbe <__rt_uart_open+0x52>
1c006b96:	c589                	beqz	a1,1c006ba0 <__rt_uart_open+0x34>
1c006b98:	418c                	lw	a1,0(a1)
1c006b9a:	4418                	lw	a4,8(s0)
1c006b9c:	04e59d63          	bne	a1,a4,1c006bf6 <__rt_uart_open+0x8a>
1c006ba0:	0605                	addi	a2,a2,1
1c006ba2:	00c6e7a3          	p.sw	a2,a5(a3)
1c006ba6:	8522                	mv	a0,s0
1c006ba8:	40b2                	lw	ra,12(sp)
1c006baa:	4422                	lw	s0,8(sp)
1c006bac:	4492                	lw	s1,4(sp)
1c006bae:	4902                	lw	s2,0(sp)
1c006bb0:	0141                	addi	sp,sp,16
1c006bb2:	8082                	ret
1c006bb4:	00099737          	lui	a4,0x99
1c006bb8:	96870713          	addi	a4,a4,-1688 # 98968 <__L2+0x18968>
1c006bbc:	b7c9                	j	1c006b7e <__rt_uart_open+0x12>
1c006bbe:	c418                	sw	a4,8(s0)
1c006bc0:	4785                	li	a5,1
1c006bc2:	1a102737          	lui	a4,0x1a102
1c006bc6:	78070713          	addi	a4,a4,1920 # 1a102780 <__l1_end+0xa102760>
1c006bca:	c01c                	sw	a5,0(s0)
1c006bcc:	c048                	sw	a0,4(s0)
1c006bce:	4314                	lw	a3,0(a4)
1c006bd0:	00a797b3          	sll	a5,a5,a0
1c006bd4:	00151493          	slli	s1,a0,0x1
1c006bd8:	8fd5                	or	a5,a5,a3
1c006bda:	c31c                	sw	a5,0(a4)
1c006bdc:	8526                	mv	a0,s1
1c006bde:	f59ff0ef          	jal	ra,1c006b36 <soc_eu_fcEventMask_setEvent>
1c006be2:	00148513          	addi	a0,s1,1
1c006be6:	f51ff0ef          	jal	ra,1c006b36 <soc_eu_fcEventMask_setEvent>
1c006bea:	4408                	lw	a0,8(s0)
1c006bec:	e55ff0ef          	jal	ra,1c006a40 <__rt_uart_setup.isra.5>
1c006bf0:	30091073          	csrw	mstatus,s2
1c006bf4:	bf4d                	j	1c006ba6 <__rt_uart_open+0x3a>
1c006bf6:	4401                	li	s0,0
1c006bf8:	b77d                	j	1c006ba6 <__rt_uart_open+0x3a>

1c006bfa <rt_uart_close>:
}



void rt_uart_close(rt_uart_t *uart, rt_event_t *event)
{
1c006bfa:	1141                	addi	sp,sp,-16
1c006bfc:	c606                	sw	ra,12(sp)
1c006bfe:	c422                	sw	s0,8(sp)
1c006c00:	c226                	sw	s1,4(sp)
  return __builtin_pulp_read_then_spr_bit_clr(reg, val);
1c006c02:	300474f3          	csrrci	s1,mstatus,8
  int irq = rt_irq_disable();

  rt_trace(RT_TRACE_DEV_CTRL, "[UART] Closing uart device (handle: %p)\n", uart);

  uart->open_count--;
1c006c06:	411c                	lw	a5,0(a0)
1c006c08:	17fd                	addi	a5,a5,-1
1c006c0a:	c11c                	sw	a5,0(a0)

  if (uart->open_count == 0)
1c006c0c:	e79d                	bnez	a5,1c006c3a <rt_uart_close+0x40>
1c006c0e:	842a                	mv	s0,a0
  {
      // First wait for pending transfers to finish before stoppping uart in case
      // some printf are still pending
      __rt_uart_wait_tx_done(uart);
1c006c10:	e77ff0ef          	jal	ra,1c006a86 <__rt_uart_wait_tx_done.isra.6>

  pulp_write32(ARCHI_UDMA_ADDR + UDMA_UART_OFFSET(channel) + UDMA_CHANNEL_CUSTOM_OFFSET + UART_SETUP_OFFSET, val);
}

static inline void plp_uart_disable(int channel) {
  pulp_write32(ARCHI_UDMA_ADDR + UDMA_UART_OFFSET(channel) + UDMA_CHANNEL_CUSTOM_OFFSET + UART_SETUP_OFFSET, 0x00500006);
1c006c14:	1a102737          	lui	a4,0x1a102
1c006c18:	005007b7          	lui	a5,0x500
1c006c1c:	22470693          	addi	a3,a4,548 # 1a102224 <__l1_end+0xa102204>
1c006c20:	0799                	addi	a5,a5,6
1c006c22:	c29c                	sw	a5,0(a3)
      // Set enable bits for uart channel back to 0 
      // This is needed to be able to propagate new configs when re-opening
      plp_uart_disable(uart->channel - ARCHI_UDMA_UART_ID(0));      

      // Then stop the uart
      plp_udma_cg_set(plp_udma_cg_get() & ~(1<<uart->channel));
1c006c24:	4050                	lw	a2,4(s0)
  return pulp_read32(ARCHI_SOC_PERIPHERALS_ADDR + ARCHI_UDMA_OFFSET + UDMA_CONF_OFFSET + UDMA_CONF_CG_OFFSET);
1c006c26:	78070713          	addi	a4,a4,1920
1c006c2a:	4314                	lw	a3,0(a4)
1c006c2c:	4785                	li	a5,1
1c006c2e:	00c797b3          	sll	a5,a5,a2
1c006c32:	fff7c793          	not	a5,a5
1c006c36:	8ff5                	and	a5,a5,a3
  pulp_write32(ARCHI_SOC_PERIPHERALS_ADDR + ARCHI_UDMA_OFFSET + UDMA_CONF_OFFSET + UDMA_CONF_CG_OFFSET, value);
1c006c38:	c31c                	sw	a5,0(a4)
  __builtin_pulp_spr_write(reg, val);
1c006c3a:	30049073          	csrw	mstatus,s1
  }

  rt_irq_restore(irq);
}
1c006c3e:	40b2                	lw	ra,12(sp)
1c006c40:	4422                	lw	s0,8(sp)
1c006c42:	4492                	lw	s1,4(sp)
1c006c44:	0141                	addi	sp,sp,16
1c006c46:	8082                	ret

1c006c48 <rt_uart_cluster_write>:
  asm("csrr %0, 0x014" : "=r" (hart_id) : );
1c006c48:	014027f3          	csrr	a5,uhartid
  return (hart_id >> 5) & 0x3f;
1c006c4c:	8795                	srai	a5,a5,0x5
1c006c4e:	f267b7b3          	p.bclr	a5,a5,25,6
void rt_uart_cluster_write(rt_uart_t *handle, void *buffer, size_t size, rt_uart_req_t *req)
{
  req->uart = handle;
  req->buffer = buffer;
  req->size = size;
  req->cid = rt_cluster_id();
1c006c52:	08f686a3          	sb	a5,141(a3)
  event->arg[0] = (uintptr_t)callback;
1c006c56:	1c0077b7          	lui	a5,0x1c007
1c006c5a:	af478793          	addi	a5,a5,-1292 # 1c006af4 <__rt_uart_cluster_req>
1c006c5e:	ca9c                	sw	a5,16(a3)
  event->implem.pending = 1;
1c006c60:	4785                	li	a5,1
  req->uart = handle;
1c006c62:	c288                	sw	a0,0(a3)
  req->buffer = buffer;
1c006c64:	c2cc                	sw	a1,4(a3)
  req->size = size;
1c006c66:	c690                	sw	a2,8(a3)
  req->done = 0;
1c006c68:	08068623          	sb	zero,140(a3)
  event->implem.keep = 0;
1c006c6c:	0206aa23          	sw	zero,52(a3)
  event->arg[1] = (uintptr_t)arg;
1c006c70:	cad4                	sw	a3,20(a3)
  event->implem.pending = 1;
1c006c72:	da9c                	sw	a5,48(a3)
  __rt_init_event(&req->event, __rt_cluster_sched_get(), __rt_uart_cluster_req, (void *)req);
  __rt_event_set_pending(&req->event);
  __rt_cluster_push_fc_event(&req->event);
1c006c74:	00c68513          	addi	a0,a3,12
1c006c78:	9d4fe06f          	j	1c004e4c <__rt_cluster_push_fc_event>

1c006c7c <__rt_uart_init>:
{
  // In case the peripheral clock can dynamically change, we need to be notified
  // when this happens so that we flush pending transfers before updating the frequency
  int err = 0;

  err |= __rt_cbsys_add(RT_CBSYS_PERIPH_SETFREQ_BEFORE, __rt_uart_setfreq_before, NULL);
1c006c7c:	1c0075b7          	lui	a1,0x1c007
{
1c006c80:	1141                	addi	sp,sp,-16
  err |= __rt_cbsys_add(RT_CBSYS_PERIPH_SETFREQ_BEFORE, __rt_uart_setfreq_before, NULL);
1c006c82:	4601                	li	a2,0
1c006c84:	ac858593          	addi	a1,a1,-1336 # 1c006ac8 <__rt_uart_setfreq_before>
1c006c88:	4511                	li	a0,4
{
1c006c8a:	c606                	sw	ra,12(sp)
1c006c8c:	c422                	sw	s0,8(sp)
  err |= __rt_cbsys_add(RT_CBSYS_PERIPH_SETFREQ_BEFORE, __rt_uart_setfreq_before, NULL);
1c006c8e:	e97fc0ef          	jal	ra,1c003b24 <__rt_cbsys_add>

  err |= __rt_cbsys_add(RT_CBSYS_PERIPH_SETFREQ_AFTER, __rt_uart_setfreq_after, NULL);
1c006c92:	1c0075b7          	lui	a1,0x1c007
  err |= __rt_cbsys_add(RT_CBSYS_PERIPH_SETFREQ_BEFORE, __rt_uart_setfreq_before, NULL);
1c006c96:	842a                	mv	s0,a0
  err |= __rt_cbsys_add(RT_CBSYS_PERIPH_SETFREQ_AFTER, __rt_uart_setfreq_after, NULL);
1c006c98:	4601                	li	a2,0
1c006c9a:	a6458593          	addi	a1,a1,-1436 # 1c006a64 <__rt_uart_setfreq_after>
1c006c9e:	4515                	li	a0,5
1c006ca0:	e85fc0ef          	jal	ra,1c003b24 <__rt_cbsys_add>


  for (int i=0; i<ARCHI_UDMA_NB_UART; i++)
  {
    __rt_uart[i].open_count = 0;
1c006ca4:	1c0107b7          	lui	a5,0x1c010
1c006ca8:	fa07a623          	sw	zero,-84(a5) # 1c00ffac <__rt_uart>
  err |= __rt_cbsys_add(RT_CBSYS_PERIPH_SETFREQ_AFTER, __rt_uart_setfreq_after, NULL);
1c006cac:	8d41                	or	a0,a0,s0
  }

  if (err) rt_fatal("Unable to initialize uart driver\n");
1c006cae:	c10d                	beqz	a0,1c006cd0 <__rt_uart_init+0x54>
  asm("csrr %0, 0x014" : "=r" (hart_id) : );
1c006cb0:	01402673          	csrr	a2,uhartid
1c006cb4:	1c007537          	lui	a0,0x1c007
  return (hart_id >> 5) & 0x3f;
1c006cb8:	40565593          	srai	a1,a2,0x5
1c006cbc:	f265b5b3          	p.bclr	a1,a1,25,6
1c006cc0:	f4563633          	p.bclr	a2,a2,26,5
1c006cc4:	49050513          	addi	a0,a0,1168 # 1c007490 <sbox+0x2c0>
1c006cc8:	946ff0ef          	jal	ra,1c005e0e <printf>
1c006ccc:	8acff0ef          	jal	ra,1c005d78 <abort>
}
1c006cd0:	40b2                	lw	ra,12(sp)
1c006cd2:	4422                	lw	s0,8(sp)
1c006cd4:	0141                	addi	sp,sp,16
1c006cd6:	8082                	ret

1c006cd8 <__cluster_text_start>:
  .global __rt_pe_start
__rt_pe_start:

#endif

    csrr    a0, 0xF14
1c006cd8:	f1402573          	csrr	a0,mhartid
    andi    a1, a0, 0x1f
1c006cdc:	01f57593          	andi	a1,a0,31
    srli    a0, a0, 5
1c006ce0:	8115                	srli	a0,a0,0x5
    
    // Activate a few events
    li      t0, (1<<PULP_DISPATCH_EVENT) | (1<<PULP_HW_BAR_EVENT) | (1<<PULP_MUTEX_EVENT)
1c006ce2:	000702b7          	lui	t0,0x70
    li      t1, ARCHI_EU_DEMUX_ADDR
1c006ce6:	00204337          	lui	t1,0x204
    sw      t0, EU_CORE_MASK(t1)
1c006cea:	00532023          	sw	t0,0(t1) # 204000 <__L2+0x184000>

#ifndef ARCHI_NO_L1_TINY
    sw      x0, %tiny(__rt_dma_first_pending)(x0)
1c006cee:	00002a23          	sw	zero,20(zero) # 14 <__rt_bridge_eeprom_handle>

#ifdef ARCHI_HAS_CC
    li      t2, ARCHI_CC_CORE_ID
    bne     a1, t2, __rt_slave_start
#else
    bne     a1, x0, __rt_slave_start
1c006cf2:	10059063          	bnez	a1,1c006df2 <__rt_slave_start>
#endif

    li      t0, (1<<ARCHI_CL_EVT_DMA1)
1c006cf6:	20000293          	li	t0,512
    li      t1, ARCHI_EU_DEMUX_ADDR
1c006cfa:	00204337          	lui	t1,0x204
    sw      t0, EU_CORE_MASK_IRQ_OR(t1)
1c006cfe:	00532a23          	sw	t0,20(t1) # 204014 <__L2+0x184014>



    // Prepare few values that will be kept in saved registers to optimize the loop
    la      s0, __rt_cluster_pool
1c006d02:	e3ff9417          	auipc	s0,0xe3ff9
1c006d06:	30240413          	addi	s0,s0,770 # 4 <__rt_bridge_flash_handle>
    li      s3, ARCHI_EU_DEMUX_ADDR
1c006d0a:	002049b7          	lui	s3,0x204
    li      s4, 1<<RT_CLUSTER_CALL_EVT
1c006d0e:	4a09                	li	s4,2
    la      s5, __rt_master_event
1c006d10:	00000a97          	auipc	s5,0x0
1c006d14:	038a8a93          	addi	s5,s5,56 # 1c006d48 <__rt_master_event>
    la      s7, __rt_fc_cluster_data
1c006d18:	00009b97          	auipc	s7,0x9
1c006d1c:	4acb8b93          	addi	s7,s7,1196 # 1c0101c4 <__rt_fc_cluster_data>
    li      t2, RT_FC_CLUSTER_DATA_T_SIZEOF
1c006d20:	02800393          	li	t2,40
    mul     t2, t2, a0
1c006d24:	02a383b3          	mul	t2,t2,a0
    add     s7, s7, t2
1c006d28:	9b9e                	add	s7,s7,t2
    addi    s7, s7, RT_FC_CLUSTER_DATA_T_EVENTS
1c006d2a:	0b91                	addi	s7,s7,4
#if defined(ARCHI_HAS_FC)
#if defined(ITC_VERSION)
    li      s9, ARCHI_FC_ITC_ADDR + ITC_STATUS_SET_OFFSET
    li      s8, 1<<RT_FC_ENQUEUE_EVENT
#else
    li      s9, ARCHI_FC_GLOBAL_ADDR + ARCHI_FC_PERIPHERALS_OFFSET + ARCHI_FC_EU_OFFSET + EU_SW_EVENTS_AREA_BASE + EU_CORE_TRIGG_SW_EVENT + (RT_FC_ENQUEUE_EVENT << 2)
1c006d2c:	1b201cb7          	lui	s9,0x1b201
1c006d30:	e04c8c93          	addi	s9,s9,-508 # 1b200e04 <__fc_tcdm_end+0x1ffa34>
    li      s8, 1
1c006d34:	4c05                	li	s8,1
    // In case there is no FC, the event must be sent to cluster 0 event unit
    li      s9, ARCHI_CLUSTER_PERIPHERALS_GLOBAL_ADDR(0) + ARCHI_EU_OFFSET + EU_SW_EVENTS_AREA_BASE + EU_CORE_TRIGG_SW_EVENT + (RT_FC_ENQUEUE_EVENT << 2)
    li      s8, 1    
#endif
#ifndef ARCHI_HAS_NO_DISPATCH
    la      s10, __rt_set_slave_stack
1c006d36:	00000d17          	auipc	s10,0x0
1c006d3a:	0fad0d13          	addi	s10,s10,250 # 1c006e30 <__rt_set_slave_stack>
    ori     s10, s10, 1
1c006d3e:	001d6d13          	ori	s10,s10,1
#endif

    csrwi   0x300, 0x8
1c006d42:	30045073          	csrwi	mstatus,8

    j       __rt_master_loop
1c006d46:	a819                	j	1c006d5c <__rt_master_loop>

1c006d48 <__rt_master_event>:



__rt_master_event:
    beq     s6, x0, __rt_master_loop
1c006d48:	000b0a63          	beqz	s6,1c006d5c <__rt_master_loop>

1c006d4c <__rt_push_event_to_fc_retry>:

__rt_push_event_to_fc_retry:
    // Now we have to push the termination event to FC side
    // First wait until the slot for posting events is free
    lw      t0, 0(s7)
1c006d4c:	000ba283          	lw	t0,0(s7)
    bne     t0, x0, __rt_push_event_to_fc_wait
1c006d50:	08029a63          	bnez	t0,1c006de4 <__rt_push_event_to_fc_wait>

    // Push it
    sw      s6, 0(s7)
1c006d54:	016ba023          	sw	s6,0(s7)

    // And notify the FC side with a HW event in case it is sleeping
    sw      s8, 0(s9)
1c006d58:	018ca023          	sw	s8,0(s9)

1c006d5c <__rt_master_loop>:


__rt_master_loop:
    // Check if a task is ready in the pool
    lw      t3, 0(s0)
1c006d5c:	00042e03          	lw	t3,0(s0)
    // Check if a call is ready, e.g. if nb_pe is not zero
    // otherwise go to sleep
    beq     t3, x0, __rt_master_sleep
1c006d60:	060e0b63          	beqz	t3,1c006dd6 <__rt_master_sleep>

1c006d64 <__rt_master_loop_update_next>:

__rt_master_loop_update_next:
    lw      t4, RT_CLUSTER_TASK_NEXT(t3)
1c006d64:	020e2e83          	lw	t4,32(t3)
    sw      x0, RT_CLUSTER_TASK_PENDING(t3)
1c006d68:	020e2223          	sw	zero,36(t3)
    sw      t4, 0(s0)
1c006d6c:	01d42023          	sw	t4,0(s0)

    // Check again next pointer in case it was updated by the FC.
    // If so, do it it again as this will ensure that either we see the new
    // value or the FC sees our write
    lw      t5, RT_CLUSTER_TASK_NEXT(t3)
1c006d70:	020e2f03          	lw	t5,32(t3)
    bne     t4, t5, __rt_master_loop_update_next
1c006d74:	ffee98e3          	bne	t4,t5,1c006d64 <__rt_master_loop_update_next>
    li      a4, 0
    ebreak
#endif

#ifdef __RT_USE_ASSERT
    csrwi   0x7D0, 0
1c006d78:	7d005073          	csrwi	0x7d0,0
#endif

    // Reads entry point information
    lw      a0, RT_CLUSTER_TASK_ARG(t3)
1c006d7c:	004e2503          	lw	a0,4(t3)
    lw      t0, RT_CLUSTER_TASK_ENTRY(t3)
1c006d80:	000e2283          	lw	t0,0(t3)
    lw      sp, RT_CLUSTER_TASK_STACKS(t3)
1c006d84:	008e2103          	lw	sp,8(t3)
    lw      t1, RT_CLUSTER_TASK_STACK_SIZE(t3)
1c006d88:	00ce2303          	lw	t1,12(t3)
    lw      t2, RT_CLUSTER_TASK_SLAVE_STACK_SIZE(t3)
1c006d8c:	010e2383          	lw	t2,16(t3)
    lw      t5, RT_CLUSTER_TASK_CORE_MASK(t3)
1c006d90:	028e2f03          	lw	t5,40(t3)
    lw      s6, RT_CLUSTER_TASK_COMPLETION_CALLBACK(t3)
1c006d94:	018e2b03          	lw	s6,24(t3)
    lw      t6, RT_CLUSTER_TASK_NB_CORES(t3)
1c006d98:	014e2f83          	lw	t6,20(t3)
    mv      ra, s5
1c006d9c:	80d6                	mv	ra,s5

    add     sp, sp, t1
1c006d9e:	911a                	add	sp,sp,t1

#ifdef ARCHI_NO_L1_TINY
    la      t4, __rt_cluster_nb_active_pe
    sw      t6, 0(t4)
#else
    sw      t6, %tiny(__rt_cluster_nb_active_pe)(x0)
1c006da0:	01f02c23          	sw	t6,24(zero) # 18 <__rt_first_free>
#endif

#ifdef __RT_USE_ASSERT
    // Update stack checking information
    beqz    t1, __rt_no_stack_check
1c006da4:	00030a63          	beqz	t1,1c006db8 <__rt_no_stack_check>
    sub     t4, sp, t1
1c006da8:	40610eb3          	sub	t4,sp,t1
    csrw    0x7D1, t4
1c006dac:	7d1e9073          	csrw	0x7d1,t4
    csrw    0x7D2, sp
1c006db0:	7d211073          	csrw	0x7d2,sp
    csrwi   0x7D0, 1
1c006db4:	7d00d073          	csrwi	0x7d0,1

1c006db8 <__rt_no_stack_check>:
#endif

__rt_no_stack_check:
    // Whatever the number of cores, we need to setup the barrier as the master code is compiled to use it
    sw      t5, EU_DISPATCH_DEMUX_OFFSET + EU_DISPATCH_TEAM_CONFIG(s3)
1c006db8:	09e9a223          	sw	t5,132(s3) # 204084 <__L2+0x184084>
#ifdef ARCHI_HAS_CC
    // When we have a cluster controller, don't configure the slave barrier
    // if we don't have have any slave
    beqz    t5, __rt_master_no_slave_barrier
#endif
    sw      t5, EU_BARRIER_DEMUX_OFFSET + EU_HW_BARR_TRIGGER_MASK(s3)
1c006dbc:	21e9a023          	sw	t5,512(s3)
    sw      t5, EU_BARRIER_DEMUX_OFFSET + EU_HW_BARR_TARGET_MASK(s3)
1c006dc0:	21e9a623          	sw	t5,524(s3)

1c006dc4 <__rt_master_no_slave_barrier>:
    sw      t6, EU_BARRIER_DEMUX_OFFSET + EU_HW_BARR_TARGET_MASK + EU_BARRIER_SIZE(s3)
#endif

    // Set stack on slaves
    // For that we push first the function for setting stack, then the stack size and the base
    p.beqimm t5, 0, __rt_master_loop_no_slave
1c006dc4:	000f2863          	p.beqimm	t5,0,1c006dd4 <__rt_master_loop_no_slave>
    sw      s10, EU_DISPATCH_DEMUX_OFFSET + EU_DISPATCH_FIFO_ACCESS(s3)
1c006dc8:	09a9a023          	sw	s10,128(s3)
    sw      t2, EU_DISPATCH_DEMUX_OFFSET + EU_DISPATCH_FIFO_ACCESS(s3)
1c006dcc:	0879a023          	sw	t2,128(s3)
    sw      sp, EU_DISPATCH_DEMUX_OFFSET + EU_DISPATCH_FIFO_ACCESS(s3)
1c006dd0:	0829a023          	sw	sp,128(s3)

1c006dd4 <__rt_master_loop_no_slave>:

__rt_master_loop_no_slave:

    // Call the entry point, this will directly come back to the master loop
    jr      t0
1c006dd4:	8282                	jr	t0

1c006dd6 <__rt_master_sleep>:
    lw      a1, %tiny(__rt_pe_trace)(x0)
    li      a2, 1
    ebreak
#endif

    sw      s4, EU_CORE_MASK_OR(s3)
1c006dd6:	0149a423          	sw	s4,8(s3)
    p.elw   x0, EU_CORE_EVENT_WAIT_CLEAR(s3)
1c006dda:	03c9e003          	p.elw	zero,60(s3)
    sw      s4, EU_CORE_MASK_AND(s3)
1c006dde:	0149a223          	sw	s4,4(s3)
    j       __rt_master_loop
1c006de2:	bfad                	j	1c006d5c <__rt_master_loop>

1c006de4 <__rt_push_event_to_fc_wait>:




__rt_push_event_to_fc_wait:
    sw      s4, EU_CORE_MASK_OR(s3)
1c006de4:	0149a423          	sw	s4,8(s3)
    p.elw   x0, EU_CORE_EVENT_WAIT_CLEAR(s3)
1c006de8:	03c9e003          	p.elw	zero,60(s3)
    sw      s4, EU_CORE_MASK_AND(s3)
1c006dec:	0149a223          	sw	s4,4(s3)
    j       __rt_push_event_to_fc_retry
1c006df0:	bfb1                	j	1c006d4c <__rt_push_event_to_fc_retry>

1c006df2 <__rt_slave_start>:
__rt_slave_start:


#ifndef ARCHI_HAS_NO_DISPATCH

    li      s2, ARCHI_EU_DEMUX_ADDR
1c006df2:	00204937          	lui	s2,0x204
    csrr    s3, 0xF14
1c006df6:	f14029f3          	csrr	s3,mhartid
    and     s3, s3, 0x1f
1c006dfa:	01f9f993          	andi	s3,s3,31
    la      s4, __rt_fork_return
1c006dfe:	00000a17          	auipc	s4,0x0
1c006e02:	012a0a13          	addi	s4,s4,18 # 1c006e10 <__rt_fork_return>
    la      s5, __rt_wait_for_dispatch
1c006e06:	00000a97          	auipc	s5,0x0
1c006e0a:	00ea8a93          	addi	s5,s5,14 # 1c006e14 <__rt_wait_for_dispatch>
    j       __rt_wait_for_dispatch
1c006e0e:	a019                	j	1c006e14 <__rt_wait_for_dispatch>

1c006e10 <__rt_fork_return>:
    // When the cluster has a controller barrier 0 is used for normal team barrier
    // and barrier 1 is used for end of offload
    p.elw   t0, EU_BARRIER_DEMUX_OFFSET + EU_HW_BARR_TRIGGER_WAIT_CLEAR + EU_BARRIER_SIZE(s2)
#else
#ifndef ARCHI_HAS_NO_BARRIER
    p.elw   t0, EU_BARRIER_DEMUX_OFFSET + EU_HW_BARR_TRIGGER_WAIT_CLEAR(s2)
1c006e10:	21c96283          	p.elw	t0,540(s2) # 20421c <__L2+0x18421c>

1c006e14 <__rt_wait_for_dispatch>:
    li      a2, 1
    ebreak
#endif

    // Wait for PC + arg information from dispatcher
    p.elw   t0, EU_DISPATCH_DEMUX_OFFSET + EU_DISPATCH_FIFO_ACCESS(s2)
1c006e14:	08096283          	p.elw	t0,128(s2)
    p.elw   a0, EU_DISPATCH_DEMUX_OFFSET + EU_DISPATCH_FIFO_ACCESS(s2)
1c006e18:	08096503          	p.elw	a0,128(s2)
    ebreak
    mv      a0, t1
#endif

    // Check if this is an entry with a barrier at the end (fork entry)
    andi    t1, t0, 1
1c006e1c:	0012f313          	andi	t1,t0,1
    bne     t1, zero, __rt_other_entry
1c006e20:	00031563          	bnez	t1,1c006e2a <__rt_other_entry>

1c006e24 <__rt_fork_entry>:

__rt_fork_entry:

    // Jump to the handler and prepare r9 to jump back just before the main loop
    add     ra, s4, x0
1c006e24:	000a00b3          	add	ra,s4,zero
    jr      t0
1c006e28:	8282                	jr	t0

1c006e2a <__rt_other_entry>:

__rt_other_entry:

  // Jump to the handler and prepare r9 to jump back directly to the main loop
    add     ra, s5, x0
1c006e2a:	000a80b3          	add	ra,s5,zero
    jr      t0
1c006e2e:	8282                	jr	t0

1c006e30 <__rt_set_slave_stack>:

  .global __rt_set_slave_stack
__rt_set_slave_stack:

#ifdef __RT_USE_ASSERT
    csrwi   0x7D0, 0
1c006e30:	7d005073          	csrwi	0x7d0,0
#endif

    // Multiply the stack size by the core ID and add the stack base to get our stack
    p.elw   t0, EU_DISPATCH_DEMUX_OFFSET + EU_DISPATCH_FIFO_ACCESS(s2)
1c006e34:	08096283          	p.elw	t0,128(s2)
    // If the cluster has a cluster controller, the first slave has core ID 0
    // and thus we need to take the next stack
    addi     t5, s3, 1
    p.mul   t4, t5, a0
#else
    p.mul   t4, s3, a0
1c006e38:	02a98eb3          	mul	t4,s3,a0
#endif
    add     sp, t4, t0
1c006e3c:	005e8133          	add	sp,t4,t0

#ifdef __RT_USE_ASSERT
    beqz    a0, __rt_no_stack_check_end
1c006e40:	c909                	beqz	a0,1c006e52 <__rt_no_stack_check_end>
    sub     t4, sp, a0
1c006e42:	40a10eb3          	sub	t4,sp,a0
    csrw    0x7D1, t4
1c006e46:	7d1e9073          	csrw	0x7d1,t4
    csrw    0x7D2, sp
1c006e4a:	7d211073          	csrw	0x7d2,sp
    csrwi   0x7D0, 1
1c006e4e:	7d00d073          	csrwi	0x7d0,1

1c006e52 <__rt_no_stack_check_end>:
#endif
__rt_no_stack_check_end:
    ret
1c006e52:	8082                	ret

1c006e54 <__rt_dma_2d>:
#if defined(ARCHI_HAS_CLUSTER)
#ifndef ARCHI_NO_L1_TINY
    .global __rt_dma_2d
__rt_dma_2d:

    sw  x8, -4(sp)
1c006e54:	fe812e23          	sw	s0,-4(sp)
    sw  x9, -8(sp)
1c006e58:	fe912c23          	sw	s1,-8(sp)
    sw  a0, -12(sp)
1c006e5c:	fea12a23          	sw	a0,-12(sp)
    sw  a1, -16(sp)
1c006e60:	feb12823          	sw	a1,-16(sp)
    sw  a2, -20(sp)
1c006e64:	fec12623          	sw	a2,-20(sp)

    li  a2, ARCHI_MCHAN_DEMUX_ADDR
1c006e68:	00204637          	lui	a2,0x204
1c006e6c:	40060613          	addi	a2,a2,1024 # 204400 <__L2+0x184400>

    lw  x8, %tiny(__rt_dma_first_pending)(x0)
1c006e70:	01402403          	lw	s0,20(zero) # 14 <__rt_bridge_eeprom_handle>

    lw  a1, CL_DMA_CMD_T_ID(x8)
1c006e74:	400c                	lw	a1,0(s0)
    lw  a0, CL_DMA_CMD_T_SIZE(x8)
1c006e76:	4408                	lw	a0,8(s0)
    p.bsetr a1, x0, a1
1c006e78:	80b045b3          	p.bsetr	a1,zero,a1
    sw  a1, MCHAN_STATUS_OFFSET(a2)
1c006e7c:	c24c                	sw	a1,4(a2)
    lw  a1, CL_DMA_CMD_T_LENGTH(x8)
1c006e7e:	480c                	lw	a1,16(s0)

    beqz a0, __rt_dma_2d_done
1c006e80:	c131                	beqz	a0,1c006ec4 <__rt_dma_2d_done>

1c006e82 <__rt_dma_2d_redo>:

__rt_dma_2d_redo:
    lw  x9, CL_DMA_CMD_T_CMD(x8)
1c006e82:	4044                	lw	s1,4(s0)
    
    bgt a0, a1, __rt_dma_2d_not_last
1c006e84:	00a5c363          	blt	a1,a0,1c006e8a <__rt_dma_2d_not_last>
    mv  a1, a0
1c006e88:	85aa                	mv	a1,a0

1c006e8a <__rt_dma_2d_not_last>:

__rt_dma_2d_not_last:
    lw  a0, MCHAN_CMD_OFFSET(a2)
1c006e8a:	4208                	lw	a0,0(a2)
    sw  a0, CL_DMA_CMD_T_ID(x8)
1c006e8c:	c008                	sw	a0,0(s0)

    lw  a0, CL_DMA_CMD_T_SIZE(x8)
1c006e8e:	4408                	lw	a0,8(s0)

    p.inserti x9, a1, MCHAN_CMD_CMD_LEN_WIDTH-1, MCHAN_CMD_CMD_LEN_BIT
1c006e90:	de05a4b3          	p.insert	s1,a1,15,0

    sw  x9, MCHAN_CMD_OFFSET(a2)   // cmd
1c006e94:	c204                	sw	s1,0(a2)

    sub a0, a0, a1
1c006e96:	8d0d                	sub	a0,a0,a1
    sw  a0, CL_DMA_CMD_T_SIZE(x8)
1c006e98:	c408                	sw	a0,8(s0)

    lw  a0, CL_DMA_CMD_T_LOC_ADDR(x8)
1c006e9a:	4848                	lw	a0,20(s0)

    sw  a0, MCHAN_CMD_OFFSET(a2)   // local address
1c006e9c:	c208                	sw	a0,0(a2)
    add a0, a0, a1
1c006e9e:	952e                	add	a0,a0,a1
    sw  a0, CL_DMA_CMD_T_LOC_ADDR(x8)
1c006ea0:	c848                	sw	a0,20(s0)


    lw  a0, CL_DMA_CMD_T_EXT_ADDR(x8)
1c006ea2:	4c08                	lw	a0,24(s0)
    lw  a1, CL_DMA_CMD_T_STRIDE(x8)
1c006ea4:	444c                	lw	a1,12(s0)

    sw  a0, MCHAN_CMD_OFFSET(a2)   // external address
1c006ea6:	c208                	sw	a0,0(a2)
    add a0, a0, a1
1c006ea8:	952e                	add	a0,a0,a1
    sw  a0, CL_DMA_CMD_T_EXT_ADDR(x8)
1c006eaa:	cc08                	sw	a0,24(s0)

1c006eac <__rt_dma_2d_exit>:

__rt_dma_2d_exit:
    lw  x8, -4(sp)
1c006eac:	ffc12403          	lw	s0,-4(sp)
    lw  x9, -8(sp)
1c006eb0:	ff812483          	lw	s1,-8(sp)
    lw  a0, -12(sp)
1c006eb4:	ff412503          	lw	a0,-12(sp)
    lw  a1, -16(sp)
1c006eb8:	ff012583          	lw	a1,-16(sp)
    lw  a2, -20(sp)
1c006ebc:	fec12603          	lw	a2,-20(sp)

    mret
1c006ec0:	30200073          	mret

1c006ec4 <__rt_dma_2d_done>:

__rt_dma_2d_done:
    sw  x0, CL_DMA_CMD_T_EXT_ADDR(x8)
1c006ec4:	00042c23          	sw	zero,24(s0)

    lw  x9, CL_DMA_CMD_T_NEXT(x8)
1c006ec8:	4c44                	lw	s1,28(s0)
    sw  x9, %tiny(__rt_dma_first_pending)(x0)
1c006eca:	00902a23          	sw	s1,20(zero) # 14 <__rt_bridge_eeprom_handle>

    li  x8, ARCHI_EU_DEMUX_ADDR + EU_SW_EVENTS_DEMUX_OFFSET + (RT_DMA_EVENT<<2)
1c006ece:	00204437          	lui	s0,0x204
1c006ed2:	11440413          	addi	s0,s0,276 # 204114 <__L2+0x184114>
    sw  x0, EU_CORE_TRIGG_SW_EVENT(x8)
1c006ed6:	00042023          	sw	zero,0(s0)

    beqz x9, __rt_dma_2d_exit
1c006eda:	d8e9                	beqz	s1,1c006eac <__rt_dma_2d_exit>

    mv  x8, x9
1c006edc:	8426                	mv	s0,s1

    lw  a0, CL_DMA_CMD_T_SIZE(x8)
1c006ede:	4408                	lw	a0,8(s0)
    lw  a1, CL_DMA_CMD_T_LENGTH(x8)
1c006ee0:	480c                	lw	a1,16(s0)

    j   __rt_dma_2d_redo
1c006ee2:	b745                	j	1c006e82 <__rt_dma_2d_redo>
